$VAR1 = {
          'ABI_DUMPER_VERSION' => '1.3',
          'ABI_DUMP_VERSION' => '3.5',
          'Arch' => 'x86_64',
          'GccVersion' => '14.1.1',
          'Headers' => {
                         'algorithm_impl.h' => 1,
                         'aligned_buffer.h' => 1,
                         'alloc_traits.h' => 1,
                         'allocator.h' => 1,
                         'any' => 1,
                         'arraylist' => 1,
                         'basic_string.h' => 1,
                         'basic_string.tcc' => 1,
                         'c++config.h' => 1,
                         'char_traits.h' => 1,
                         'compare' => 1,
                         'execution_defs.h' => 1,
                         'execution_impl.h' => 1,
                         'exit.hpp' => 1,
                         'glue_algorithm_impl.h' => 1,
                         'initializer_list' => 1,
                         'metadata.hpp' => 1,
                         'move.h' => 1,
                         'new' => 1,
                         'new_allocator.h' => 1,
                         'ptr_traits.h' => 1,
                         'registry.hpp' => 1,
                         'stddef.h' => 1,
                         'stdint-intn.h' => 1,
                         'stdint-uintn.h' => 1,
                         'stl_algobase.h' => 1,
                         'stl_construct.h' => 1,
                         'stl_function.h' => 1,
                         'stl_iterator_base_types.h' => 1,
                         'stl_map.h' => 1,
                         'stl_pair.h' => 1,
                         'stl_tree.h' => 1,
                         'string' => 1,
                         'string_view' => 1,
                         'tuple' => 1,
                         'type.hpp' => 1,
                         'type_traits' => 1,
                         'typeinfo.hpp' => 1,
                         'types.h' => 1,
                         'unique_ptr' => 1,
                         'unseq_backend_simd.h' => 1,
                         'utility.h' => 1
                       },
          'Language' => 'C++',
          'LibraryName' => 'liblibreflect.so',
          'LibraryVersion' => '1',
          'MissedOffsets' => '1',
          'MissedRegs' => '1',
          'NameSpaces' => {
                            '__gnu_cxx' => 1,
                            '__pstl::__internal' => 1,
                            '__pstl::__unseq_backend' => 1,
                            '__pstl::execution::v1' => 1,
                            'std' => 1,
                            'std::__cmp_cat' => 1,
                            'std::__cxx11' => 1,
                            'std::__detail' => 1,
                            'std::__exception_ptr' => 1,
                            'zeno::reflect' => 1,
                            'zeno::reflect::any' => 1
                          },
          'Needed' => {
                        'libc.so.6' => 1,
                        'libgcc_s.so.1' => 1,
                        'libm.so.6' => 1,
                        'libstdc++.so.6' => 1
                      },
          'Sources' => {
                         'exit.cpp' => 1,
                         'memory.cpp' => 1,
                         'metadata.cpp' => 1,
                         'registry.cpp' => 1,
                         'string.cpp' => 1,
                         'type.cpp' => 1,
                         'typeinfo.cpp' => 1
                       },
          'SymbolInfo' => {
                            '101687' => {
                                          'Header' => 'char_traits.h',
                                          'InLine' => 2,
                                          'Line' => '996',
                                          'MnglName' => '_ZNSt8__detail21__char_traits_cmp_catISt11char_traitsIcEEEDai',
                                          'NameSpace' => 'std::__detail',
                                          'Param' => {
                                                       '0' => {
                                                                'name' => '__cmp',
                                                                'type' => '132'
                                                              }
                                                     },
                                          'Return' => '101510',
                                          'ShortName' => '__char_traits_cmp_cat<std::char_traits<char> >',
                                          'TParam' => {
                                                        '0' => {
                                                                 'key' => '_ChTraits',
                                                                 'type' => '9708'
                                                               }
                                                      }
                                        },
                            '10251' => {
                                         'Data' => 1,
                                         'Header' => 'stl_pair.h',
                                         'Line' => '82',
                                         'MnglName' => '_ZSt19piecewise_construct',
                                         'NameSpace' => 'std',
                                         'Return' => '10246',
                                         'ShortName' => 'piecewise_construct'
                                       },
                            '10285' => {
                                         'Class' => '10271',
                                         'Header' => 'stl_pair.h',
                                         'InLine' => 2,
                                         'Line' => '1200',
                                         'MnglName' => '_ZNSt10__pair_getILm0EE5__getIKmPN4zeno7reflect8TypeBaseEEERT_RSt4pairIS7_T0_E',
                                         'Param' => {
                                                      '0' => {
                                                               'name' => '__pair',
                                                               'type' => '50661'
                                                             }
                                                    },
                                         'Return' => '50441',
                                         'ShortName' => '__get<unsigned long const, zeno::reflect::TypeBase*>',
                                         'Static' => 1,
                                         'TParam' => {
                                                       '0' => {
                                                                'key' => '_Tp1',
                                                                'type' => '7698'
                                                              },
                                                       '1' => {
                                                                'key' => '_Tp2',
                                                                'type' => '49416'
                                                              }
                                                     }
                                       },
                            '10355' => {
                                         'Class' => '10341',
                                         'Header' => 'stl_pair.h',
                                         'InLine' => 2,
                                         'Line' => '1224',
                                         'MnglName' => '_ZNSt10__pair_getILm1EE5__getIKmPN4zeno7reflect8TypeBaseEEERT0_RSt4pairIT_S7_E',
                                         'Param' => {
                                                      '0' => {
                                                               'name' => '__pair',
                                                               'type' => '50661'
                                                             }
                                                    },
                                         'Return' => '50761',
                                         'ShortName' => '__get<unsigned long const, zeno::reflect::TypeBase*>',
                                         'Static' => 1,
                                         'TParam' => {
                                                       '0' => {
                                                                'key' => '_Tp1',
                                                                'type' => '7698'
                                                              },
                                                       '1' => {
                                                                'key' => '_Tp2',
                                                                'type' => '49416'
                                                              }
                                                     }
                                       },
                            '10899' => {
                                         'Class' => '10427',
                                         'Const' => 1,
                                         'Header' => 'string_view',
                                         'InLine' => 2,
                                         'Line' => '229',
                                         'MnglName' => '_ZNKSt17basic_string_viewIcSt11char_traitsIcEE4sizeEv',
                                         'Param' => {
                                                      '0' => {
                                                               'name' => 'this',
                                                               'type' => '201523'
                                                             }
                                                    },
                                         'Return' => '10440',
                                         'ShortName' => 'size'
                                       },
                            '10989' => {
                                         'Class' => '10427',
                                         'Const' => 1,
                                         'Header' => 'string_view',
                                         'InLine' => 2,
                                         'Line' => '247',
                                         'MnglName' => '_ZNKSt17basic_string_viewIcSt11char_traitsIcEE5emptyEv',
                                         'Param' => {
                                                      '0' => {
                                                               'name' => 'this',
                                                               'type' => '201523'
                                                             }
                                                    },
                                         'Return' => '2273',
                                         'ShortName' => 'empty'
                                       },
                            '11178' => {
                                         'Class' => '10427',
                                         'Const' => 1,
                                         'Header' => 'string_view',
                                         'InLine' => 2,
                                         'Line' => '289',
                                         'MnglName' => '_ZNKSt17basic_string_viewIcSt11char_traitsIcEE4dataEv',
                                         'Param' => {
                                                      '0' => {
                                                               'name' => 'this',
                                                               'type' => '201523'
                                                             }
                                                    },
                                         'Return' => '11165',
                                         'ShortName' => 'data'
                                       },
                            '117083' => {
                                          'Class' => '18465',
                                          'Header' => 'basic_string.tcc',
                                          'InLine' => 2,
                                          'Line' => '221',
                                          'MnglName' => '_ZNSt7__cxx1112basic_stringIcSt11char_traitsIcESaIcEE12_M_constructIPKcEEvT_S8_St20forward_iterator_tag',
                                          'Param' => {
                                                       '0' => {
                                                                'name' => 'this',
                                                                'type' => '157053'
                                                              },
                                                       '1' => {
                                                                'name' => '__beg',
                                                                'type' => '2344'
                                                              },
                                                       '2' => {
                                                                'name' => '__end',
                                                                'type' => '2344'
                                                              },
                                                       '3' => {
                                                                'name' => 'p3',
                                                                'type' => '101763'
                                                              }
                                                     },
                                          'Private' => 1,
                                          'Return' => '1',
                                          'ShortName' => '_M_construct<char const*>',
                                          'TParam' => {
                                                        '0' => {
                                                                 'key' => '_FwdIterator',
                                                                 'type' => '2344'
                                                               }
                                                      }
                                        },
                            '124648' => {
                                          'Class' => '124623',
                                          'Header' => 'ptr_traits.h',
                                          'InLine' => 2,
                                          'Line' => '134',
                                          'MnglName' => '_ZNSt19__ptr_traits_ptr_toIPccLb0EE10pointer_toERc',
                                          'Param' => {
                                                       '0' => {
                                                                'name' => '__r',
                                                                'type' => '157098'
                                                              }
                                                     },
                                          'Return' => '124636',
                                          'ShortName' => 'pointer_to',
                                          'Static' => 1
                                        },
                            '125952' => {
                                          'Class' => '125812',
                                          'Const' => 1,
                                          'Header' => 'initializer_list',
                                          'InLine' => 2,
                                          'Line' => '69',
                                          'MnglName' => '_ZNKSt16initializer_listIN4zeno7reflect9UniquePtrINS1_14IMetadataValueEEEE4sizeEv',
                                          'Param' => {
                                                       '0' => {
                                                                'name' => 'this',
                                                                'type' => '159603'
                                                              }
                                                     },
                                          'Return' => '125851',
                                          'ShortName' => 'size'
                                        },
                            '125982' => {
                                          'Class' => '125812',
                                          'Const' => 1,
                                          'Header' => 'initializer_list',
                                          'InLine' => 2,
                                          'Line' => '73',
                                          'MnglName' => '_ZNKSt16initializer_listIN4zeno7reflect9UniquePtrINS1_14IMetadataValueEEEE5beginEv',
                                          'Param' => {
                                                       '0' => {
                                                                'name' => 'this',
                                                                'type' => '159603'
                                                              }
                                                     },
                                          'Return' => '125913',
                                          'ShortName' => 'begin'
                                        },
                            '126012' => {
                                          'Class' => '125812',
                                          'Const' => 1,
                                          'Header' => 'initializer_list',
                                          'InLine' => 2,
                                          'Line' => '77',
                                          'MnglName' => '_ZNKSt16initializer_listIN4zeno7reflect9UniquePtrINS1_14IMetadataValueEEEE3endEv',
                                          'Param' => {
                                                       '0' => {
                                                                'name' => 'this',
                                                                'type' => '159603'
                                                              }
                                                     },
                                          'Return' => '125913',
                                          'ShortName' => 'end'
                                        },
                            '127674' => {
                                          'Class' => '127569',
                                          'Header' => 'new_allocator.h',
                                          'InLine' => 2,
                                          'Line' => '126',
                                          'MnglName' => '_ZNSt15__new_allocatorISt13_Rb_tree_nodeISt4pairIKNSt7__cxx1112basic_stringIcSt11char_traitsIcESaIcEEEN4zeno7reflect9UniquePtrINSA_14IMetadataValueEEEEEE8allocateEmPKv',
                                          'Param' => {
                                                       '0' => {
                                                                'name' => 'this',
                                                                'type' => '157423'
                                                              },
                                                       '1' => {
                                                                'name' => '__n',
                                                                'type' => '127714'
                                                              },
                                                       '2' => {
                                                                'name' => 'p2',
                                                                'type' => '2385'
                                                              }
                                                     },
                                          'Return' => '157438',
                                          'ShortName' => 'allocate'
                                        },
                            '127727' => {
                                          'Class' => '127569',
                                          'Header' => 'new_allocator.h',
                                          'InLine' => 2,
                                          'Line' => '156',
                                          'MnglName' => '_ZNSt15__new_allocatorISt13_Rb_tree_nodeISt4pairIKNSt7__cxx1112basic_stringIcSt11char_traitsIcESaIcEEEN4zeno7reflect9UniquePtrINSA_14IMetadataValueEEEEEE10deallocateEPSF_m',
                                          'Param' => {
                                                       '0' => {
                                                                'name' => 'this',
                                                                'type' => '157423'
                                                              },
                                                       '1' => {
                                                                'name' => '__p',
                                                                'type' => '157438'
                                                              },
                                                       '2' => {
                                                                'name' => '__n',
                                                                'type' => '127714'
                                                              }
                                                     },
                                          'Return' => '1',
                                          'ShortName' => 'deallocate'
                                        },
                            '127841' => {
                                          'Class' => '127808',
                                          'Header' => 'stl_tree.h',
                                          'InLine' => 2,
                                          'Line' => '230',
                                          'MnglName' => '_ZNSt13_Rb_tree_nodeISt4pairIKNSt7__cxx1112basic_stringIcSt11char_traitsIcESaIcEEEN4zeno7reflect9UniquePtrINS9_14IMetadataValueEEEEE9_M_valptrEv',
                                          'Param' => {
                                                       '0' => {
                                                                'name' => 'this',
                                                                'type' => '157443'
                                                              }
                                                     },
                                          'Return' => '157373',
                                          'ShortName' => '_M_valptr'
                                        },
                            '127871' => {
                                          'Class' => '127808',
                                          'Const' => 1,
                                          'Header' => 'stl_tree.h',
                                          'InLine' => 2,
                                          'Line' => '234',
                                          'MnglName' => '_ZNKSt13_Rb_tree_nodeISt4pairIKNSt7__cxx1112basic_stringIcSt11char_traitsIcESaIcEEEN4zeno7reflect9UniquePtrINS9_14IMetadataValueEEEEE9_M_valptrEv',
                                          'Param' => {
                                                       '0' => {
                                                                'name' => 'this',
                                                                'type' => '157578'
                                                              }
                                                     },
                                          'Return' => '157413',
                                          'ShortName' => '_M_valptr'
                                        },
                            '127977' => {
                                          'Class' => '127957',
                                          'Const' => 1,
                                          'Header' => 'stl_function.h',
                                          'InLine' => 2,
                                          'Line' => '404',
                                          'MnglName' => '_ZNKSt4lessINSt7__cxx1112basic_stringIcSt11char_traitsIcESaIcEEEEclERKS5_S8_',
                                          'Param' => {
                                                       '0' => {
                                                                'name' => 'this',
                                                                'type' => '157483'
                                                              },
                                                       '1' => {
                                                                'name' => '__x',
                                                                'type' => '50125'
                                                              },
                                                       '2' => {
                                                                'name' => '__y',
                                                                'type' => '50125'
                                                              }
                                                     },
                                          'Return' => '2273',
                                          'ShortName' => 'operator()'
                                        },
                            '128499' => {
                                          'Class' => '128193',
                                          'Header' => 'stl_tree.h',
                                          'InLine' => 2,
                                          'Line' => '545',
                                          'MnglName' => '_ZNSt8_Rb_treeINSt7__cxx1112basic_stringIcSt11char_traitsIcESaIcEEESt4pairIKS5_N4zeno7reflect9UniquePtrINS9_14IMetadataValueEEEESt10_Select1stISD_ESt4lessIS5_ESaISD_EE21_M_get_Node_allocatorEv',
                                          'Param' => {
                                                       '0' => {
                                                                'name' => 'this',
                                                                'type' => '157548'
                                                              }
                                                     },
                                          'Return' => '157538',
                                          'ShortName' => '_M_get_Node_allocator'
                                        },
                            '128628' => {
                                          'Class' => '128193',
                                          'Header' => 'stl_tree.h',
                                          'InLine' => 2,
                                          'Line' => '558',
                                          'MnglName' => '_ZNSt8_Rb_treeINSt7__cxx1112basic_stringIcSt11char_traitsIcESaIcEEESt4pairIKS5_N4zeno7reflect9UniquePtrINS9_14IMetadataValueEEEESt10_Select1stISD_ESt4lessIS5_ESaISD_EE11_M_get_nodeEv',
                                          'Param' => {
                                                       '0' => {
                                                                'name' => 'this',
                                                                'type' => '157548'
                                                              }
                                                     },
                                          'Protected' => 1,
                                          'Return' => '128614',
                                          'ShortName' => '_M_get_node'
                                        },
                            '128660' => {
                                          'Class' => '128193',
                                          'Header' => 'stl_tree.h',
                                          'InLine' => 2,
                                          'Line' => '562',
                                          'MnglName' => '_ZNSt8_Rb_treeINSt7__cxx1112basic_stringIcSt11char_traitsIcESaIcEEESt4pairIKS5_N4zeno7reflect9UniquePtrINS9_14IMetadataValueEEEESt10_Select1stISD_ESt4lessIS5_ESaISD_EE11_M_put_nodeEPSt13_Rb_tree_nodeISD_E',
                                          'Param' => {
                                                       '0' => {
                                                                'name' => 'this',
                                                                'type' => '157548'
                                                              },
                                                       '1' => {
                                                                'name' => '__p',
                                                                'type' => '128614'
                                                              }
                                                     },
                                          'Protected' => 1,
                                          'Return' => '1',
                                          'ShortName' => '_M_put_node'
                                        },
                            '128693' => {
                                          'Class' => '128193',
                                          'Header' => 'stl_tree.h',
                                          'InLine' => 2,
                                          'Line' => '616',
                                          'MnglName' => '_ZNSt8_Rb_treeINSt7__cxx1112basic_stringIcSt11char_traitsIcESaIcEEESt4pairIKS5_N4zeno7reflect9UniquePtrINS9_14IMetadataValueEEEESt10_Select1stISD_ESt4lessIS5_ESaISD_EE15_M_destroy_nodeEPSt13_Rb_tree_nodeISD_E',
                                          'Param' => {
                                                       '0' => {
                                                                'name' => 'this',
                                                                'type' => '157548'
                                                              },
                                                       '1' => {
                                                                'name' => '__p',
                                                                'type' => '128614'
                                                              }
                                                     },
                                          'Protected' => 1,
                                          'Return' => '1',
                                          'ShortName' => '_M_destroy_node'
                                        },
                            '128726' => {
                                          'Class' => '128193',
                                          'Header' => 'stl_tree.h',
                                          'InLine' => 2,
                                          'Line' => '627',
                                          'MnglName' => '_ZNSt8_Rb_treeINSt7__cxx1112basic_stringIcSt11char_traitsIcESaIcEEESt4pairIKS5_N4zeno7reflect9UniquePtrINS9_14IMetadataValueEEEESt10_Select1stISD_ESt4lessIS5_ESaISD_EE12_M_drop_nodeEPSt13_Rb_tree_nodeISD_E',
                                          'Param' => {
                                                       '0' => {
                                                                'name' => 'this',
                                                                'type' => '157548'
                                                              },
                                                       '1' => {
                                                                'name' => '__p',
                                                                'type' => '128614'
                                                              }
                                                     },
                                          'Protected' => 1,
                                          'Return' => '1',
                                          'ShortName' => '_M_drop_node'
                                        },
                            '128864' => {
                                          'Class' => '128193',
                                          'Header' => 'stl_tree.h',
                                          'InLine' => 2,
                                          'Line' => '716',
                                          'MnglName' => '_ZNSt8_Rb_treeINSt7__cxx1112basic_stringIcSt11char_traitsIcESaIcEEESt4pairIKS5_N4zeno7reflect9UniquePtrINS9_14IMetadataValueEEEESt10_Select1stISD_ESt4lessIS5_ESaISD_EE11_M_leftmostEv',
                                          'Param' => {
                                                       '0' => {
                                                                'name' => 'this',
                                                                'type' => '157548'
                                                              }
                                                     },
                                          'Protected' => 1,
                                          'Return' => '157568',
                                          'ShortName' => '_M_leftmost'
                                        },
                            '128928' => {
                                          'Class' => '128193',
                                          'Header' => 'stl_tree.h',
                                          'InLine' => 2,
                                          'Line' => '724',
                                          'MnglName' => '_ZNSt8_Rb_treeINSt7__cxx1112basic_stringIcSt11char_traitsIcESaIcEEESt4pairIKS5_N4zeno7reflect9UniquePtrINS9_14IMetadataValueEEEESt10_Select1stISD_ESt4lessIS5_ESaISD_EE12_M_rightmostEv',
                                          'Param' => {
                                                       '0' => {
                                                                'name' => 'this',
                                                                'type' => '157548'
                                                              }
                                                     },
                                          'Protected' => 1,
                                          'Return' => '157568',
                                          'ShortName' => '_M_rightmost'
                                        },
                            '128992' => {
                                          'Class' => '128193',
                                          'Const' => 1,
                                          'Header' => 'stl_tree.h',
                                          'InLine' => 2,
                                          'Line' => '732',
                                          'MnglName' => '_ZNKSt8_Rb_treeINSt7__cxx1112basic_stringIcSt11char_traitsIcESaIcEEESt4pairIKS5_N4zeno7reflect9UniquePtrINS9_14IMetadataValueEEEESt10_Select1stISD_ESt4lessIS5_ESaISD_EE9_M_mbeginEv',
                                          'Param' => {
                                                       '0' => {
                                                                'name' => 'this',
                                                                'type' => '157563'
                                                              }
                                                     },
                                          'Protected' => 1,
                                          'Return' => '128614',
                                          'ShortName' => '_M_mbegin'
                                        },
                            '129024' => {
                                          'Class' => '128193',
                                          'Header' => 'stl_tree.h',
                                          'InLine' => 2,
                                          'Line' => '736',
                                          'MnglName' => '_ZNSt8_Rb_treeINSt7__cxx1112basic_stringIcSt11char_traitsIcESaIcEEESt4pairIKS5_N4zeno7reflect9UniquePtrINS9_14IMetadataValueEEEESt10_Select1stISD_ESt4lessIS5_ESaISD_EE8_M_beginEv',
                                          'Param' => {
                                                       '0' => {
                                                                'name' => 'this',
                                                                'type' => '157548'
                                                              }
                                                     },
                                          'Protected' => 1,
                                          'Return' => '128614',
                                          'ShortName' => '_M_begin'
                                        },
                            '129070' => {
                                          'Class' => '128193',
                                          'Const' => 1,
                                          'Header' => 'stl_tree.h',
                                          'InLine' => 2,
                                          'Line' => '740',
                                          'MnglName' => '_ZNKSt8_Rb_treeINSt7__cxx1112basic_stringIcSt11char_traitsIcESaIcEEESt4pairIKS5_N4zeno7reflect9UniquePtrINS9_14IMetadataValueEEEESt10_Select1stISD_ESt4lessIS5_ESaISD_EE8_M_beginEv',
                                          'Param' => {
                                                       '0' => {
                                                                'name' => 'this',
                                                                'type' => '157563'
                                                              }
                                                     },
                                          'Protected' => 1,
                                          'Return' => '129056',
                                          'ShortName' => '_M_begin'
                                        },
                            '129102' => {
                                          'Class' => '128193',
                                          'Header' => 'stl_tree.h',
                                          'InLine' => 2,
                                          'Line' => '747',
                                          'MnglName' => '_ZNSt8_Rb_treeINSt7__cxx1112basic_stringIcSt11char_traitsIcESaIcEEESt4pairIKS5_N4zeno7reflect9UniquePtrINS9_14IMetadataValueEEEESt10_Select1stISD_ESt4lessIS5_ESaISD_EE6_M_endEv',
                                          'Param' => {
                                                       '0' => {
                                                                'name' => 'this',
                                                                'type' => '157548'
                                                              }
                                                     },
                                          'Protected' => 1,
                                          'Return' => '128772',
                                          'ShortName' => '_M_end'
                                        },
                            '129134' => {
                                          'Class' => '128193',
                                          'Const' => 1,
                                          'Header' => 'stl_tree.h',
                                          'InLine' => 2,
                                          'Line' => '751',
                                          'MnglName' => '_ZNKSt8_Rb_treeINSt7__cxx1112basic_stringIcSt11char_traitsIcESaIcEEESt4pairIKS5_N4zeno7reflect9UniquePtrINS9_14IMetadataValueEEEESt10_Select1stISD_ESt4lessIS5_ESaISD_EE6_M_endEv',
                                          'Param' => {
                                                       '0' => {
                                                                'name' => 'this',
                                                                'type' => '157563'
                                                              }
                                                     },
                                          'Protected' => 1,
                                          'Return' => '128818',
                                          'ShortName' => '_M_end'
                                        },
                            '129166' => {
                                          'Class' => '128193',
                                          'Header' => 'stl_tree.h',
                                          'InLine' => 2,
                                          'Line' => '755',
                                          'MnglName' => '_ZNSt8_Rb_treeINSt7__cxx1112basic_stringIcSt11char_traitsIcESaIcEEESt4pairIKS5_N4zeno7reflect9UniquePtrINS9_14IMetadataValueEEEESt10_Select1stISD_ESt4lessIS5_ESaISD_EE6_S_keyEPKSt13_Rb_tree_nodeISD_E',
                                          'Param' => {
                                                       '0' => {
                                                                'name' => '__x',
                                                                'type' => '129056'
                                                              }
                                                     },
                                          'Protected' => 1,
                                          'Return' => '50125',
                                          'ShortName' => '_S_key',
                                          'Static' => 1
                                        },
                            '129191' => {
                                          'Class' => '128193',
                                          'Header' => 'stl_tree.h',
                                          'InLine' => 2,
                                          'Line' => '777',
                                          'MnglName' => '_ZNSt8_Rb_treeINSt7__cxx1112basic_stringIcSt11char_traitsIcESaIcEEESt4pairIKS5_N4zeno7reflect9UniquePtrINS9_14IMetadataValueEEEESt10_Select1stISD_ESt4lessIS5_ESaISD_EE7_S_leftEPSt18_Rb_tree_node_base',
                                          'Param' => {
                                                       '0' => {
                                                                'name' => '__x',
                                                                'type' => '128772'
                                                              }
                                                     },
                                          'Protected' => 1,
                                          'Return' => '128614',
                                          'ShortName' => '_S_left',
                                          'Static' => 1
                                        },
                            '129216' => {
                                          'Class' => '128193',
                                          'Header' => 'stl_tree.h',
                                          'InLine' => 2,
                                          'Line' => '781',
                                          'MnglName' => '_ZNSt8_Rb_treeINSt7__cxx1112basic_stringIcSt11char_traitsIcESaIcEEESt4pairIKS5_N4zeno7reflect9UniquePtrINS9_14IMetadataValueEEEESt10_Select1stISD_ESt4lessIS5_ESaISD_EE7_S_leftEPKSt18_Rb_tree_node_base',
                                          'Param' => {
                                                       '0' => {
                                                                'name' => '__x',
                                                                'type' => '128818'
                                                              }
                                                     },
                                          'Protected' => 1,
                                          'Return' => '129056',
                                          'ShortName' => '_S_left',
                                          'Static' => 1
                                        },
                            '129241' => {
                                          'Class' => '128193',
                                          'Header' => 'stl_tree.h',
                                          'InLine' => 2,
                                          'Line' => '785',
                                          'MnglName' => '_ZNSt8_Rb_treeINSt7__cxx1112basic_stringIcSt11char_traitsIcESaIcEEESt4pairIKS5_N4zeno7reflect9UniquePtrINS9_14IMetadataValueEEEESt10_Select1stISD_ESt4lessIS5_ESaISD_EE8_S_rightEPSt18_Rb_tree_node_base',
                                          'Param' => {
                                                       '0' => {
                                                                'name' => '__x',
                                                                'type' => '128772'
                                                              }
                                                     },
                                          'Protected' => 1,
                                          'Return' => '128614',
                                          'ShortName' => '_S_right',
                                          'Static' => 1
                                        },
                            '129266' => {
                                          'Class' => '128193',
                                          'Header' => 'stl_tree.h',
                                          'InLine' => 2,
                                          'Line' => '789',
                                          'MnglName' => '_ZNSt8_Rb_treeINSt7__cxx1112basic_stringIcSt11char_traitsIcESaIcEEESt4pairIKS5_N4zeno7reflect9UniquePtrINS9_14IMetadataValueEEEESt10_Select1stISD_ESt4lessIS5_ESaISD_EE8_S_rightEPKSt18_Rb_tree_node_base',
                                          'Param' => {
                                                       '0' => {
                                                                'name' => '__x',
                                                                'type' => '128818'
                                                              }
                                                     },
                                          'Protected' => 1,
                                          'Return' => '129056',
                                          'ShortName' => '_S_right',
                                          'Static' => 1
                                        },
                            '129291' => {
                                          'Class' => '128193',
                                          'Header' => 'stl_tree.h',
                                          'InLine' => 2,
                                          'Line' => '793',
                                          'MnglName' => '_ZNSt8_Rb_treeINSt7__cxx1112basic_stringIcSt11char_traitsIcESaIcEEESt4pairIKS5_N4zeno7reflect9UniquePtrINS9_14IMetadataValueEEEESt10_Select1stISD_ESt4lessIS5_ESaISD_EE6_S_keyEPKSt18_Rb_tree_node_base',
                                          'Param' => {
                                                       '0' => {
                                                                'name' => '__x',
                                                                'type' => '128818'
                                                              }
                                                     },
                                          'Protected' => 1,
                                          'Return' => '50125',
                                          'ShortName' => '_S_key',
                                          'Static' => 1
                                        },
                            '129416' => {
                                          'Class' => '128193',
                                          'Header' => 'stl_tree.h',
                                          'InLine' => 2,
                                          'Line' => '2104',
                                          'MnglName' => '_ZNSt8_Rb_treeINSt7__cxx1112basic_stringIcSt11char_traitsIcESaIcEEESt4pairIKS5_N4zeno7reflect9UniquePtrINS9_14IMetadataValueEEEESt10_Select1stISD_ESt4lessIS5_ESaISD_EE24_M_get_insert_unique_posERS7_',
                                          'Param' => {
                                                       '0' => {
                                                                'name' => 'this',
                                                                'type' => '157548'
                                                              },
                                                       '1' => {
                                                                'name' => '__k',
                                                                'type' => '157583'
                                                              }
                                                     },
                                          'Return' => '14452',
                                          'ShortName' => '_M_get_insert_unique_pos'
                                        },
                            '129509' => {
                                          'Class' => '128193',
                                          'Header' => 'stl_tree.h',
                                          'InLine' => 2,
                                          'Line' => '2206',
                                          'MnglName' => '_ZNSt8_Rb_treeINSt7__cxx1112basic_stringIcSt11char_traitsIcESaIcEEESt4pairIKS5_N4zeno7reflect9UniquePtrINS9_14IMetadataValueEEEESt10_Select1stISD_ESt4lessIS5_ESaISD_EE29_M_get_insert_hint_unique_posESt23_Rb_tree_const_iteratorISD_ERS7_',
                                          'Param' => {
                                                       '0' => {
                                                                'name' => 'this',
                                                                'type' => '157548'
                                                              },
                                                       '1' => {
                                                                'name' => '__position',
                                                                'type' => '129551'
                                                              },
                                                       '2' => {
                                                                'name' => '__k',
                                                                'type' => '157583'
                                                              }
                                                     },
                                          'Return' => '14452',
                                          'ShortName' => '_M_get_insert_hint_unique_pos'
                                        },
                            '129621' => {
                                          'Class' => '128193',
                                          'Header' => 'stl_tree.h',
                                          'InLine' => 2,
                                          'Line' => '2373',
                                          'MnglName' => '_ZNSt8_Rb_treeINSt7__cxx1112basic_stringIcSt11char_traitsIcESaIcEEESt4pairIKS5_N4zeno7reflect9UniquePtrINS9_14IMetadataValueEEEESt10_Select1stISD_ESt4lessIS5_ESaISD_EE14_M_insert_nodeEPSt18_Rb_tree_node_baseSL_PSt13_Rb_tree_nodeISD_E',
                                          'Param' => {
                                                       '0' => {
                                                                'name' => 'this',
                                                                'type' => '157548'
                                                              },
                                                       '1' => {
                                                                'name' => '__x',
                                                                'type' => '128772'
                                                              },
                                                       '2' => {
                                                                'name' => '__p',
                                                                'type' => '128772'
                                                              },
                                                       '3' => {
                                                                'name' => '__z',
                                                                'type' => '128614'
                                                              }
                                                     },
                                          'Private' => 1,
                                          'Return' => '129607',
                                          'ShortName' => '_M_insert_node'
                                        },
                            '129780' => {
                                          'Class' => '128193',
                                          'Header' => 'stl_tree.h',
                                          'InLine' => 2,
                                          'Line' => '1926',
                                          'MnglName' => '_ZNSt8_Rb_treeINSt7__cxx1112basic_stringIcSt11char_traitsIcESaIcEEESt4pairIKS5_N4zeno7reflect9UniquePtrINS9_14IMetadataValueEEEESt10_Select1stISD_ESt4lessIS5_ESaISD_EE8_M_eraseEPSt13_Rb_tree_nodeISD_E',
                                          'Param' => {
                                                       '0' => {
                                                                'name' => 'this',
                                                                'type' => '157548'
                                                              },
                                                       '1' => {
                                                                'name' => '__x',
                                                                'type' => '128614'
                                                              }
                                                     },
                                          'Private' => 1,
                                          'Return' => '1',
                                          'ShortName' => '_M_erase'
                                        },
                            '129812' => {
                                          'Class' => '128193',
                                          'Header' => 'stl_tree.h',
                                          'InLine' => 2,
                                          'Line' => '1943',
                                          'MnglName' => '_ZNSt8_Rb_treeINSt7__cxx1112basic_stringIcSt11char_traitsIcESaIcEEESt4pairIKS5_N4zeno7reflect9UniquePtrINS9_14IMetadataValueEEEESt10_Select1stISD_ESt4lessIS5_ESaISD_EE14_M_lower_boundEPSt13_Rb_tree_nodeISD_EPSt18_Rb_tree_node_baseRS7_',
                                          'Param' => {
                                                       '0' => {
                                                                'name' => 'this',
                                                                'type' => '157548'
                                                              },
                                                       '1' => {
                                                                'name' => '__x',
                                                                'type' => '128614'
                                                              },
                                                       '2' => {
                                                                'name' => '__y',
                                                                'type' => '128772'
                                                              },
                                                       '3' => {
                                                                'name' => '__k',
                                                                'type' => '50125'
                                                              }
                                                     },
                                          'Private' => 1,
                                          'Return' => '129607',
                                          'ShortName' => '_M_lower_bound'
                                        },
                            '129858' => {
                                          'Class' => '128193',
                                          'Const' => 1,
                                          'Header' => 'stl_tree.h',
                                          'InLine' => 2,
                                          'Line' => '1959',
                                          'MnglName' => '_ZNKSt8_Rb_treeINSt7__cxx1112basic_stringIcSt11char_traitsIcESaIcEEESt4pairIKS5_N4zeno7reflect9UniquePtrINS9_14IMetadataValueEEEESt10_Select1stISD_ESt4lessIS5_ESaISD_EE14_M_lower_boundEPKSt13_Rb_tree_nodeISD_EPKSt18_Rb_tree_node_baseRS7_',
                                          'Param' => {
                                                       '0' => {
                                                                'name' => 'this',
                                                                'type' => '157563'
                                                              },
                                                       '1' => {
                                                                'name' => '__x',
                                                                'type' => '129056'
                                                              },
                                                       '2' => {
                                                                'name' => '__y',
                                                                'type' => '128818'
                                                              },
                                                       '3' => {
                                                                'name' => '__k',
                                                                'type' => '50125'
                                                              }
                                                     },
                                          'Private' => 1,
                                          'Return' => '129551',
                                          'ShortName' => '_M_lower_bound'
                                        },
                            '130427' => {
                                          'Class' => '128193',
                                          'Const' => 1,
                                          'Header' => 'stl_tree.h',
                                          'InLine' => 2,
                                          'Line' => '989',
                                          'MnglName' => '_ZNKSt8_Rb_treeINSt7__cxx1112basic_stringIcSt11char_traitsIcESaIcEEESt4pairIKS5_N4zeno7reflect9UniquePtrINS9_14IMetadataValueEEEESt10_Select1stISD_ESt4lessIS5_ESaISD_EE8key_compEv',
                                          'Param' => {
                                                       '0' => {
                                                                'name' => 'this',
                                                                'type' => '157563'
                                                              }
                                                     },
                                          'Return' => '127957',
                                          'ShortName' => 'key_comp'
                                        },
                            '130459' => {
                                          'Class' => '128193',
                                          'Header' => 'stl_tree.h',
                                          'InLine' => 2,
                                          'Line' => '993',
                                          'MnglName' => '_ZNSt8_Rb_treeINSt7__cxx1112basic_stringIcSt11char_traitsIcESaIcEEESt4pairIKS5_N4zeno7reflect9UniquePtrINS9_14IMetadataValueEEEESt10_Select1stISD_ESt4lessIS5_ESaISD_EE5beginEv',
                                          'Param' => {
                                                       '0' => {
                                                                'name' => 'this',
                                                                'type' => '157548'
                                                              }
                                                     },
                                          'Return' => '129607',
                                          'ShortName' => 'begin'
                                        },
                            '130523' => {
                                          'Class' => '128193',
                                          'Header' => 'stl_tree.h',
                                          'InLine' => 2,
                                          'Line' => '1001',
                                          'MnglName' => '_ZNSt8_Rb_treeINSt7__cxx1112basic_stringIcSt11char_traitsIcESaIcEEESt4pairIKS5_N4zeno7reflect9UniquePtrINS9_14IMetadataValueEEEESt10_Select1stISD_ESt4lessIS5_ESaISD_EE3endEv',
                                          'Param' => {
                                                       '0' => {
                                                                'name' => 'this',
                                                                'type' => '157548'
                                                              }
                                                     },
                                          'Return' => '129607',
                                          'ShortName' => 'end'
                                        },
                            '130553' => {
                                          'Class' => '128193',
                                          'Const' => 1,
                                          'Header' => 'stl_tree.h',
                                          'InLine' => 2,
                                          'Line' => '1005',
                                          'MnglName' => '_ZNKSt8_Rb_treeINSt7__cxx1112basic_stringIcSt11char_traitsIcESaIcEEESt4pairIKS5_N4zeno7reflect9UniquePtrINS9_14IMetadataValueEEEESt10_Select1stISD_ESt4lessIS5_ESaISD_EE3endEv',
                                          'Param' => {
                                                       '0' => {
                                                                'name' => 'this',
                                                                'type' => '157563'
                                                              }
                                                     },
                                          'Return' => '129551',
                                          'ShortName' => 'end'
                                        },
                            '130785' => {
                                          'Class' => '128193',
                                          'Const' => 1,
                                          'Header' => 'stl_tree.h',
                                          'InLine' => 2,
                                          'Line' => '1029',
                                          'MnglName' => '_ZNKSt8_Rb_treeINSt7__cxx1112basic_stringIcSt11char_traitsIcESaIcEEESt4pairIKS5_N4zeno7reflect9UniquePtrINS9_14IMetadataValueEEEESt10_Select1stISD_ESt4lessIS5_ESaISD_EE4sizeEv',
                                          'Param' => {
                                                       '0' => {
                                                                'name' => 'this',
                                                                'type' => '157563'
                                                              }
                                                     },
                                          'Return' => '130771',
                                          'ShortName' => 'size'
                                        },
                            '131169' => {
                                          'Class' => '128193',
                                          'Const' => 1,
                                          'Header' => 'stl_tree.h',
                                          'InLine' => 2,
                                          'Line' => '2538',
                                          'MnglName' => '_ZNKSt8_Rb_treeINSt7__cxx1112basic_stringIcSt11char_traitsIcESaIcEEESt4pairIKS5_N4zeno7reflect9UniquePtrINS9_14IMetadataValueEEEESt10_Select1stISD_ESt4lessIS5_ESaISD_EE4findERS7_',
                                          'Param' => {
                                                       '0' => {
                                                                'name' => 'this',
                                                                'type' => '157563'
                                                              },
                                                       '1' => {
                                                                'name' => '__k',
                                                                'type' => '50125'
                                                              }
                                                     },
                                          'Return' => '129551',
                                          'ShortName' => 'find'
                                        },
                            '131243' => {
                                          'Class' => '128193',
                                          'Header' => 'stl_tree.h',
                                          'InLine' => 2,
                                          'Line' => '1266',
                                          'MnglName' => '_ZNSt8_Rb_treeINSt7__cxx1112basic_stringIcSt11char_traitsIcESaIcEEESt4pairIKS5_N4zeno7reflect9UniquePtrINS9_14IMetadataValueEEEESt10_Select1stISD_ESt4lessIS5_ESaISD_EE11lower_boundERS7_',
                                          'Param' => {
                                                       '0' => {
                                                                'name' => 'this',
                                                                'type' => '157548'
                                                              },
                                                       '1' => {
                                                                'name' => '__k',
                                                                'type' => '157583'
                                                              }
                                                     },
                                          'Return' => '129607',
                                          'ShortName' => 'lower_bound'
                                        },
                            '132020' => {
                                          'Class' => '131942',
                                          'Const' => 1,
                                          'Header' => 'stl_tree.h',
                                          'InLine' => 2,
                                          'Line' => '1647',
                                          'MnglName' => '_ZNKSt8_Rb_treeINSt7__cxx1112basic_stringIcSt11char_traitsIcESaIcEEESt4pairIKS5_N4zeno7reflect9UniquePtrINS9_14IMetadataValueEEEESt10_Select1stISD_ESt4lessIS5_ESaISD_EE10_Auto_node6_M_keyEv',
                                          'Param' => {
                                                       '0' => {
                                                                'name' => 'this',
                                                                'type' => '159628'
                                                              }
                                                     },
                                          'Return' => '50125',
                                          'ShortName' => '_M_key'
                                        },
                            '132051' => {
                                          'Class' => '131942',
                                          'Header' => 'stl_tree.h',
                                          'InLine' => 2,
                                          'Line' => '1651',
                                          'MnglName' => '_ZNSt8_Rb_treeINSt7__cxx1112basic_stringIcSt11char_traitsIcESaIcEEESt4pairIKS5_N4zeno7reflect9UniquePtrINS9_14IMetadataValueEEEESt10_Select1stISD_ESt4lessIS5_ESaISD_EE10_Auto_node9_M_insertES6_IPSt18_Rb_tree_node_baseSM_E',
                                          'Param' => {
                                                       '0' => {
                                                                'name' => 'this',
                                                                'type' => '159613'
                                                              },
                                                       '1' => {
                                                                'name' => '__p',
                                                                'type' => '14452'
                                                              }
                                                     },
                                          'Return' => '129607',
                                          'ShortName' => '_M_insert'
                                        },
                            '132221' => {
                                          'Class' => '128193',
                                          'Header' => 'stl_tree.h',
                                          'InLine' => 2,
                                          'Line' => '588',
                                          'MnglName' => '_ZNSt8_Rb_treeINSt7__cxx1112basic_stringIcSt11char_traitsIcESaIcEEESt4pairIKS5_N4zeno7reflect9UniquePtrINS9_14IMetadataValueEEEESt10_Select1stISD_ESt4lessIS5_ESaISD_EE17_M_construct_nodeIJRKSt21piecewise_construct_tSt5tupleIJOS5_EESO_IJOSC_EEEEEvPSt13_Rb_tree_nodeISD_EDpOT_',
                                          'Param' => {
                                                       '0' => {
                                                                'name' => 'this',
                                                                'type' => '157548'
                                                              },
                                                       '1' => {
                                                                'name' => '__node',
                                                                'type' => '128614'
                                                              },
                                                       '2' => {
                                                                'name' => 'p2',
                                                                'type' => '52689'
                                                              },
                                                       '3' => {
                                                                'name' => 'p3',
                                                                'type' => '159418'
                                                              },
                                                       '4' => {
                                                                'name' => 'p4',
                                                                'type' => '159493'
                                                              }
                                                     },
                                          'Protected' => 1,
                                          'Return' => '1',
                                          'ShortName' => '_M_construct_node<std::piecewise_construct_t const&>',
                                          'TParam' => {
                                                        '0' => {
                                                                 'key' => undef,
                                                                 'type' => '52689'
                                                               }
                                                      }
                                        },
                            '132294' => {
                                          'Class' => '128193',
                                          'Header' => 'stl_tree.h',
                                          'InLine' => 2,
                                          'Line' => '607',
                                          'MnglName' => '_ZNSt8_Rb_treeINSt7__cxx1112basic_stringIcSt11char_traitsIcESaIcEEESt4pairIKS5_N4zeno7reflect9UniquePtrINS9_14IMetadataValueEEEESt10_Select1stISD_ESt4lessIS5_ESaISD_EE14_M_create_nodeIJRKSt21piecewise_construct_tSt5tupleIJOS5_EESO_IJOSC_EEEEEPSt13_Rb_tree_nodeISD_EDpOT_',
                                          'Param' => {
                                                       '0' => {
                                                                'name' => 'this',
                                                                'type' => '157548'
                                                              },
                                                       '1' => {
                                                                'name' => 'p1',
                                                                'type' => '52689'
                                                              },
                                                       '2' => {
                                                                'name' => 'p2',
                                                                'type' => '159418'
                                                              },
                                                       '3' => {
                                                                'name' => 'p3',
                                                                'type' => '159493'
                                                              }
                                                     },
                                          'Protected' => 1,
                                          'Return' => '128614',
                                          'ShortName' => '_M_create_node<std::piecewise_construct_t const&>',
                                          'TParam' => {
                                                        '0' => {
                                                                 'key' => undef,
                                                                 'type' => '52689'
                                                               }
                                                      }
                                        },
                            '132366' => {
                                          'Class' => '128193',
                                          'Header' => 'stl_tree.h',
                                          'InLine' => 2,
                                          'Line' => '2454',
                                          'MnglName' => '_ZNSt8_Rb_treeINSt7__cxx1112basic_stringIcSt11char_traitsIcESaIcEEESt4pairIKS5_N4zeno7reflect9UniquePtrINS9_14IMetadataValueEEEESt10_Select1stISD_ESt4lessIS5_ESaISD_EE22_M_emplace_hint_uniqueIJRKSt21piecewise_construct_tSt5tupleIJOS5_EESO_IJOSC_EEEEESt17_Rb_tree_iteratorISD_ESt23_Rb_tree_const_iteratorISD_EDpOT_',
                                          'Param' => {
                                                       '0' => {
                                                                'name' => 'this',
                                                                'type' => '157548'
                                                              },
                                                       '1' => {
                                                                'name' => '__pos',
                                                                'type' => '129551'
                                                              },
                                                       '2' => {
                                                                'name' => 'p2',
                                                                'type' => '52689'
                                                              },
                                                       '3' => {
                                                                'name' => 'p3',
                                                                'type' => '159418'
                                                              },
                                                       '4' => {
                                                                'name' => 'p4',
                                                                'type' => '159493'
                                                              }
                                                     },
                                          'Return' => '129607',
                                          'ShortName' => '_M_emplace_hint_unique<std::piecewise_construct_t const&>',
                                          'TParam' => {
                                                        '0' => {
                                                                 'key' => undef,
                                                                 'type' => '52689'
                                                               }
                                                      }
                                        },
                            '132630' => {
                                          'Class' => '132494',
                                          'Const' => 1,
                                          'Header' => 'stl_tree.h',
                                          'InLine' => 2,
                                          'Line' => '350',
                                          'MnglName' => '_ZNKSt23_Rb_tree_const_iteratorISt4pairIKNSt7__cxx1112basic_stringIcSt11char_traitsIcESaIcEEEN4zeno7reflect9UniquePtrINS9_14IMetadataValueEEEEE13_M_const_castEv',
                                          'Param' => {
                                                       '0' => {
                                                                'name' => 'this',
                                                                'type' => '157713'
                                                              }
                                                     },
                                          'Return' => '132612',
                                          'ShortName' => '_M_const_cast'
                                        },
                            '132718' => {
                                          'Class' => '132494',
                                          'Const' => 1,
                                          'Header' => 'stl_tree.h',
                                          'InLine' => 2,
                                          'Line' => '358',
                                          'MnglName' => '_ZNKSt23_Rb_tree_const_iteratorISt4pairIKNSt7__cxx1112basic_stringIcSt11char_traitsIcESaIcEEEN4zeno7reflect9UniquePtrINS9_14IMetadataValueEEEEEptEv',
                                          'Param' => {
                                                       '0' => {
                                                                'name' => 'this',
                                                                'type' => '157713'
                                                              }
                                                     },
                                          'Return' => '132705',
                                          'ShortName' => 'operator->'
                                        },
                            '133040' => {
                                          'Class' => '132943',
                                          'Const' => 1,
                                          'Header' => 'stl_tree.h',
                                          'InLine' => 2,
                                          'Line' => '273',
                                          'MnglName' => '_ZNKSt17_Rb_tree_iteratorISt4pairIKNSt7__cxx1112basic_stringIcSt11char_traitsIcESaIcEEEN4zeno7reflect9UniquePtrINS9_14IMetadataValueEEEEEdeEv',
                                          'Param' => {
                                                       '0' => {
                                                                'name' => 'this',
                                                                'type' => '157753'
                                                              }
                                                     },
                                          'Return' => '133028',
                                          'ShortName' => 'operator*'
                                        },
                            '133133' => {
                                          'Class' => '132943',
                                          'Header' => 'stl_tree.h',
                                          'InLine' => 2,
                                          'Line' => '281',
                                          'MnglName' => '_ZNSt17_Rb_tree_iteratorISt4pairIKNSt7__cxx1112basic_stringIcSt11char_traitsIcESaIcEEEN4zeno7reflect9UniquePtrINS9_14IMetadataValueEEEEEppEv',
                                          'Param' => {
                                                       '0' => {
                                                                'name' => 'this',
                                                                'type' => '157743'
                                                              }
                                                     },
                                          'Return' => '157758',
                                          'ShortName' => 'operator++'
                                        },
                            '133200' => {
                                          'Class' => '132943',
                                          'Header' => 'stl_tree.h',
                                          'InLine' => 2,
                                          'Line' => '296',
                                          'MnglName' => '_ZNSt17_Rb_tree_iteratorISt4pairIKNSt7__cxx1112basic_stringIcSt11char_traitsIcESaIcEEEN4zeno7reflect9UniquePtrINS9_14IMetadataValueEEEEEmmEv',
                                          'Param' => {
                                                       '0' => {
                                                                'name' => 'this',
                                                                'type' => '157743'
                                                              }
                                                     },
                                          'Return' => '157758',
                                          'ShortName' => 'operator--'
                                        },
                            '133988' => {
                                          'Class' => '133374',
                                          'Header' => 'stl_map.h',
                                          'InLine' => 2,
                                          'Line' => '386',
                                          'MnglName' => '_ZNSt3mapINSt7__cxx1112basic_stringIcSt11char_traitsIcESaIcEEEN4zeno7reflect9UniquePtrINS7_14IMetadataValueEEESt4lessIS5_ESaISt4pairIKS5_SA_EEE3endEv',
                                          'Param' => {
                                                       '0' => {
                                                                'name' => 'this',
                                                                'type' => '157618'
                                                              }
                                                     },
                                          'Return' => '133898',
                                          'ShortName' => 'end'
                                        },
                            '134018' => {
                                          'Class' => '133374',
                                          'Const' => 1,
                                          'Header' => 'stl_map.h',
                                          'InLine' => 2,
                                          'Line' => '395',
                                          'MnglName' => '_ZNKSt3mapINSt7__cxx1112basic_stringIcSt11char_traitsIcESaIcEEEN4zeno7reflect9UniquePtrINS7_14IMetadataValueEEESt4lessIS5_ESaISt4pairIKS5_SA_EEE3endEv',
                                          'Param' => {
                                                       '0' => {
                                                                'name' => 'this',
                                                                'type' => '157653'
                                                              }
                                                     },
                                          'Return' => '133943',
                                          'ShortName' => 'end'
                                        },
                            '135232' => {
                                          'Class' => '133374',
                                          'Const' => 1,
                                          'Header' => 'stl_map.h',
                                          'InLine' => 2,
                                          'Line' => '1191',
                                          'MnglName' => '_ZNKSt3mapINSt7__cxx1112basic_stringIcSt11char_traitsIcESaIcEEEN4zeno7reflect9UniquePtrINS7_14IMetadataValueEEESt4lessIS5_ESaISt4pairIKS5_SA_EEE8key_compEv',
                                          'Param' => {
                                                       '0' => {
                                                                'name' => 'this',
                                                                'type' => '157653'
                                                              }
                                                     },
                                          'Return' => '135219',
                                          'ShortName' => 'key_comp'
                                        },
                            '135338' => {
                                          'Class' => '133374',
                                          'Const' => 1,
                                          'Header' => 'stl_map.h',
                                          'InLine' => 2,
                                          'Line' => '1243',
                                          'MnglName' => '_ZNKSt3mapINSt7__cxx1112basic_stringIcSt11char_traitsIcESaIcEEEN4zeno7reflect9UniquePtrINS7_14IMetadataValueEEESt4lessIS5_ESaISt4pairIKS5_SA_EEE4findERSE_',
                                          'Param' => {
                                                       '0' => {
                                                                'name' => 'this',
                                                                'type' => '157653'
                                                              },
                                                       '1' => {
                                                                'name' => '__x',
                                                                'type' => '157663'
                                                              }
                                                     },
                                          'Return' => '133943',
                                          'ShortName' => 'find'
                                        },
                            '135449' => {
                                          'Class' => '133374',
                                          'Header' => 'stl_map.h',
                                          'InLine' => 2,
                                          'Line' => '1307',
                                          'MnglName' => '_ZNSt3mapINSt7__cxx1112basic_stringIcSt11char_traitsIcESaIcEEEN4zeno7reflect9UniquePtrINS7_14IMetadataValueEEESt4lessIS5_ESaISt4pairIKS5_SA_EEE11lower_boundERSE_',
                                          'Param' => {
                                                       '0' => {
                                                                'name' => 'this',
                                                                'type' => '157618'
                                                              },
                                                       '1' => {
                                                                'name' => '__x',
                                                                'type' => '157663'
                                                              }
                                                     },
                                          'Return' => '133898',
                                          'ShortName' => 'lower_bound'
                                        },
                            '135671' => {
                                          'Class' => '133374',
                                          'Header' => 'stl_map.h',
                                          'InLine' => 2,
                                          'Line' => '638',
                                          'MnglName' => '_ZNSt3mapINSt7__cxx1112basic_stringIcSt11char_traitsIcESaIcEEEN4zeno7reflect9UniquePtrINS7_14IMetadataValueEEESt4lessIS5_ESaISt4pairIKS5_SA_EEE12emplace_hintIJRKSt21piecewise_construct_tSt5tupleIJOS5_EESM_IJOSA_EEEEESt17_Rb_tree_iteratorISF_ESt23_Rb_tree_const_iteratorISF_EDpOT_',
                                          'Param' => {
                                                       '0' => {
                                                                'name' => 'this',
                                                                'type' => '157618'
                                                              },
                                                       '1' => {
                                                                'name' => '__pos',
                                                                'type' => '133943'
                                                              },
                                                       '2' => {
                                                                'name' => 'p2',
                                                                'type' => '52689'
                                                              },
                                                       '3' => {
                                                                'name' => 'p3',
                                                                'type' => '159418'
                                                              },
                                                       '4' => {
                                                                'name' => 'p4',
                                                                'type' => '159493'
                                                              }
                                                     },
                                          'Return' => '133898',
                                          'ShortName' => 'emplace_hint<std::piecewise_construct_t const&>',
                                          'TParam' => {
                                                        '0' => {
                                                                 'key' => undef,
                                                                 'type' => '52689'
                                                               }
                                                      }
                                        },
                            '135748' => {
                                          'Class' => '133374',
                                          'Header' => 'stl_map.h',
                                          'InLine' => 2,
                                          'Line' => '985',
                                          'MnglName' => '_ZNSt3mapINSt7__cxx1112basic_stringIcSt11char_traitsIcESaIcEEEN4zeno7reflect9UniquePtrINS7_14IMetadataValueEEESt4lessIS5_ESaISt4pairIKS5_SA_EEE16insert_or_assignISA_EESD_ISt17_Rb_tree_iteratorISF_EbEOS5_OT_',
                                          'Param' => {
                                                       '0' => {
                                                                'name' => 'this',
                                                                'type' => '157618'
                                                              },
                                                       '1' => {
                                                                'name' => '__k',
                                                                'type' => '157668'
                                                              },
                                                       '2' => {
                                                                'name' => '__obj',
                                                                'type' => '157313'
                                                              }
                                                     },
                                          'Return' => '135863',
                                          'ShortName' => 'insert_or_assign<zeno::reflect::UniquePtr<zeno::reflect::IMetadataValue> >',
                                          'TParam' => {
                                                        '0' => {
                                                                 'key' => '_Obj',
                                                                 'type' => '152050'
                                                               }
                                                      }
                                        },
                            '136624' => {
                                          'Class' => '136457',
                                          'Header' => 'tuple',
                                          'InLine' => 2,
                                          'Line' => '242',
                                          'MnglName' => '_ZNSt10_Head_baseILm0EONSt7__cxx1112basic_stringIcSt11char_traitsIcESaIcEEELb0EE7_M_headERS7_',
                                          'Param' => {
                                                       '0' => {
                                                                'name' => '__b',
                                                                'type' => '159373'
                                                              }
                                                     },
                                          'Return' => '50135',
                                          'ShortName' => '_M_head',
                                          'Static' => 1
                                        },
                            '13671' => {
                                         'Class' => '13566',
                                         'Header' => 'new_allocator.h',
                                         'InLine' => 2,
                                         'Line' => '126',
                                         'MnglName' => '_ZNSt15__new_allocatorIcE8allocateEmPKv',
                                         'Param' => {
                                                      '0' => {
                                                               'name' => 'this',
                                                               'type' => '156517'
                                                             },
                                                      '1' => {
                                                               'name' => '__n',
                                                               'type' => '13711'
                                                             },
                                                      '2' => {
                                                               'name' => 'p2',
                                                               'type' => '2385'
                                                             }
                                                    },
                                         'Return' => '328',
                                         'ShortName' => 'allocate'
                                       },
                            '136773' => {
                                          'Class' => '136753',
                                          'Header' => 'tuple',
                                          'InLine' => 2,
                                          'Line' => '556',
                                          'MnglName' => '_ZNSt11_Tuple_implILm0EJONSt7__cxx1112basic_stringIcSt11char_traitsIcESaIcEEEEE7_M_headERS7_',
                                          'Param' => {
                                                       '0' => {
                                                                'name' => '__t',
                                                                'type' => '159378'
                                                              }
                                                     },
                                          'Return' => '50135',
                                          'ShortName' => '_M_head',
                                          'Static' => 1
                                        },
                            '13724' => {
                                         'Class' => '13566',
                                         'Header' => 'new_allocator.h',
                                         'InLine' => 2,
                                         'Line' => '156',
                                         'MnglName' => '_ZNSt15__new_allocatorIcE10deallocateEPcm',
                                         'Param' => {
                                                      '0' => {
                                                               'name' => 'this',
                                                               'type' => '156517'
                                                             },
                                                      '1' => {
                                                               'name' => '__p',
                                                               'type' => '328'
                                                             },
                                                      '2' => {
                                                               'name' => '__n',
                                                               'type' => '13711'
                                                             }
                                                    },
                                         'Return' => '1',
                                         'ShortName' => 'deallocate'
                                       },
                            '137589' => {
                                          'Class' => '137422',
                                          'Header' => 'tuple',
                                          'InLine' => 2,
                                          'Line' => '242',
                                          'MnglName' => '_ZNSt10_Head_baseILm0EON4zeno7reflect9UniquePtrINS1_14IMetadataValueEEELb0EE7_M_headERS6_',
                                          'Param' => {
                                                       '0' => {
                                                                'name' => '__b',
                                                                'type' => '159448'
                                                              }
                                                     },
                                          'Return' => '157318',
                                          'ShortName' => '_M_head',
                                          'Static' => 1
                                        },
                            '137738' => {
                                          'Class' => '137718',
                                          'Header' => 'tuple',
                                          'InLine' => 2,
                                          'Line' => '556',
                                          'MnglName' => '_ZNSt11_Tuple_implILm0EJON4zeno7reflect9UniquePtrINS1_14IMetadataValueEEEEE7_M_headERS6_',
                                          'Param' => {
                                                       '0' => {
                                                                'name' => '__t',
                                                                'type' => '159453'
                                                              }
                                                     },
                                          'Return' => '157318',
                                          'ShortName' => '_M_head',
                                          'Static' => 1
                                        },
                            '138523' => {
                                          'Class' => '138498',
                                          'Header' => 'ptr_traits.h',
                                          'InLine' => 2,
                                          'Line' => '134',
                                          'MnglName' => '_ZNSt19__ptr_traits_ptr_toIPKcS0_Lb0EE10pointer_toERS0_',
                                          'Param' => {
                                                       '0' => {
                                                                'name' => '__r',
                                                                'type' => '159503'
                                                              }
                                                     },
                                          'Return' => '138511',
                                          'ShortName' => 'pointer_to',
                                          'Static' => 1
                                        },
                            '139384' => {
                                          'Class' => '139328',
                                          'Const' => 1,
                                          'Header' => 'stl_function.h',
                                          'InLine' => 2,
                                          'Line' => '1179',
                                          'MnglName' => '_ZNKSt10_Select1stISt4pairIKNSt7__cxx1112basic_stringIcSt11char_traitsIcESaIcEEEN4zeno7reflect9UniquePtrINS9_14IMetadataValueEEEEEclERKSD_',
                                          'Param' => {
                                                       '0' => {
                                                                'name' => 'this',
                                                                'type' => '159653'
                                                              },
                                                       '1' => {
                                                                'name' => '__x',
                                                                'type' => '157718'
                                                              }
                                                     },
                                          'Return' => '159643',
                                          'ShortName' => 'operator()'
                                        },
                            '139829' => {
                                          'Header' => 'tuple',
                                          'InLine' => 2,
                                          'Line' => '2427',
                                          'MnglName' => '_ZSt12__get_helperILm0EON4zeno7reflect9UniquePtrINS1_14IMetadataValueEEEJEERT0_RSt11_Tuple_implIXT_EJS6_DpT1_EE',
                                          'NameSpace' => 'std',
                                          'Param' => {
                                                       '0' => {
                                                                'name' => '__t',
                                                                'type' => '159453'
                                                              }
                                                     },
                                          'Return' => '157318',
                                          'ShortName' => '__get_helper<0ul, zeno::reflect::UniquePtr<zeno::reflect::IMetadataValue>&&>',
                                          'TParam' => {
                                                        '0' => {
                                                                 'key' => '__i',
                                                                 'type' => '51',
                                                                 'val' => '0'
                                                               },
                                                        '1' => {
                                                                 'key' => '_Head',
                                                                 'type' => '157313'
                                                               }
                                                      }
                                        },
                            '139880' => {
                                          'Header' => 'move.h',
                                          'InLine' => 2,
                                          'Line' => '70',
                                          'MnglName' => '_ZSt7forwardION4zeno7reflect9UniquePtrINS1_14IMetadataValueEEEEOT_RNSt16remove_referenceIS6_E4typeE',
                                          'NameSpace' => 'std',
                                          'Param' => {
                                                       '0' => {
                                                                'name' => '__t',
                                                                'type' => '160339'
                                                              }
                                                     },
                                          'Return' => '157313',
                                          'ShortName' => 'forward<zeno::reflect::UniquePtr<zeno::reflect::IMetadataValue>&&>',
                                          'TParam' => {
                                                        '0' => {
                                                                 'key' => '_Tp',
                                                                 'type' => '157313'
                                                               }
                                                      }
                                        },
                            '139915' => {
                                          'Header' => 'tuple',
                                          'InLine' => 2,
                                          'Line' => '2443',
                                          'MnglName' => '_ZSt3getILm0EJON4zeno7reflect9UniquePtrINS1_14IMetadataValueEEEEERNSt13tuple_elementIXT_ESt5tupleIJDpT0_EEE4typeERSA_',
                                          'NameSpace' => 'std',
                                          'Param' => {
                                                       '0' => {
                                                                'name' => '__t',
                                                                'type' => '159498'
                                                              }
                                                     },
                                          'Return' => '157318',
                                          'ShortName' => 'get<0ul, zeno::reflect::UniquePtr<zeno::reflect::IMetadataValue>&&>',
                                          'TParam' => {
                                                        '0' => {
                                                                 'key' => '__i',
                                                                 'type' => '51',
                                                                 'val' => '0'
                                                               },
                                                        '1' => {
                                                                 'key' => undef,
                                                                 'type' => '157313'
                                                               }
                                                      }
                                        },
                            '139967' => {
                                          'Header' => 'move.h',
                                          'InLine' => 2,
                                          'Line' => '70',
                                          'MnglName' => '_ZSt7forwardIONSt7__cxx1112basic_stringIcSt11char_traitsIcESaIcEEEEOT_RNSt16remove_referenceIS7_E4typeE',
                                          'NameSpace' => 'std',
                                          'Param' => {
                                                       '0' => {
                                                                'name' => '__t',
                                                                'type' => '160465'
                                                              }
                                                     },
                                          'Return' => '50130',
                                          'ShortName' => 'forward<std::__cxx11::basic_string<char>&&>',
                                          'TParam' => {
                                                        '0' => {
                                                                 'key' => '_Tp',
                                                                 'type' => '50130'
                                                               }
                                                      }
                                        },
                            '140002' => {
                                          'Header' => 'tuple',
                                          'InLine' => 2,
                                          'Line' => '2427',
                                          'MnglName' => '_ZSt12__get_helperILm0EONSt7__cxx1112basic_stringIcSt11char_traitsIcESaIcEEEJEERT0_RSt11_Tuple_implIXT_EJS7_DpT1_EE',
                                          'NameSpace' => 'std',
                                          'Param' => {
                                                       '0' => {
                                                                'name' => '__t',
                                                                'type' => '159378'
                                                              }
                                                     },
                                          'Return' => '50135',
                                          'ShortName' => '__get_helper<0ul, std::__cxx11::basic_string<char>&&>',
                                          'TParam' => {
                                                        '0' => {
                                                                 'key' => '__i',
                                                                 'type' => '51',
                                                                 'val' => '0'
                                                               },
                                                        '1' => {
                                                                 'key' => '_Head',
                                                                 'type' => '50130'
                                                               }
                                                      }
                                        },
                            '140053' => {
                                          'Header' => 'tuple',
                                          'InLine' => 2,
                                          'Line' => '2443',
                                          'MnglName' => '_ZSt3getILm0EJONSt7__cxx1112basic_stringIcSt11char_traitsIcESaIcEEEEERNSt13tuple_elementIXT_ESt5tupleIJDpT0_EEE4typeERSB_',
                                          'NameSpace' => 'std',
                                          'Param' => {
                                                       '0' => {
                                                                'name' => '__t',
                                                                'type' => '159423'
                                                              }
                                                     },
                                          'Return' => '50135',
                                          'ShortName' => 'get<0ul, std::__cxx11::basic_string<char>&&>',
                                          'TParam' => {
                                                        '0' => {
                                                                 'key' => '__i',
                                                                 'type' => '51',
                                                                 'val' => '0'
                                                               },
                                                        '1' => {
                                                                 'key' => undef,
                                                                 'type' => '50130'
                                                               }
                                                      }
                                        },
                            '140105' => {
                                          'Header' => 'stl_construct.h',
                                          'InLine' => 2,
                                          'Line' => '94',
                                          'MnglName' => '_ZSt12construct_atISt4pairIKNSt7__cxx1112basic_stringIcSt11char_traitsIcESaIcEEEN4zeno7reflect9UniquePtrINS9_14IMetadataValueEEEEJRKSt21piecewise_construct_tSt5tupleIJOS6_EESH_IJOSC_EEEEDTgsnwcvPvLi0E_T_pispcl7declvalIT0_EEEEPSN_DpOSO_',
                                          'NameSpace' => 'std',
                                          'Param' => {
                                                       '0' => {
                                                                'name' => '__location',
                                                                'type' => '157373'
                                                              },
                                                       '1' => {
                                                                'name' => 'p2',
                                                                'type' => '52689'
                                                              },
                                                       '2' => {
                                                                'name' => 'p3',
                                                                'type' => '159418'
                                                              },
                                                       '3' => {
                                                                'name' => 'p4',
                                                                'type' => '159493'
                                                              }
                                                     },
                                          'Return' => '157373',
                                          'ShortName' => 'construct_at<std::pair<std::__cxx11::basic_string<char>const, zeno::reflect::UniquePtr<zeno::reflect::IMetadataValue> >, std::piecewise_construct_t const&>',
                                          'TParam' => {
                                                        '0' => {
                                                                 'key' => '_Tp',
                                                                 'type' => '126332'
                                                               },
                                                        '1' => {
                                                                 'key' => undef,
                                                                 'type' => '52689'
                                                               }
                                                      }
                                        },
                            '140180' => {
                                          'Header' => 'move.h',
                                          'InLine' => 2,
                                          'Line' => '70',
                                          'MnglName' => '_ZSt7forwardIRPSt13_Rb_tree_nodeISt4pairIKNSt7__cxx1112basic_stringIcSt11char_traitsIcESaIcEEEN4zeno7reflect9UniquePtrINSA_14IMetadataValueEEEEEEOT_RNSt16remove_referenceISI_E4typeE',
                                          'NameSpace' => 'std',
                                          'Param' => {
                                                       '0' => {
                                                                'name' => '__t',
                                                                'type' => '161839'
                                                              }
                                                     },
                                          'Return' => '161834',
                                          'ShortName' => 'forward<std::_Rb_tree_node<std::pair<std::__cxx11::basic_string<char>const, zeno::reflect::UniquePtr<zeno::reflect::IMetadataValue> > >*&>',
                                          'TParam' => {
                                                        '0' => {
                                                                 'key' => '_Tp',
                                                                 'type' => '161834'
                                                               }
                                                      }
                                        },
                            '140250' => {
                                          'Header' => 'stl_construct.h',
                                          'InLine' => 2,
                                          'Line' => '80',
                                          'MnglName' => '_ZSt10destroy_atISt4pairIKNSt7__cxx1112basic_stringIcSt11char_traitsIcESaIcEEEN4zeno7reflect9UniquePtrINS9_14IMetadataValueEEEEEvPT_',
                                          'NameSpace' => 'std',
                                          'Param' => {
                                                       '0' => {
                                                                'name' => '__location',
                                                                'type' => '157373'
                                                              }
                                                     },
                                          'Return' => '1',
                                          'ShortName' => 'destroy_at<std::pair<std::__cxx11::basic_string<char>const, zeno::reflect::UniquePtr<zeno::reflect::IMetadataValue> > >',
                                          'TParam' => {
                                                        '0' => {
                                                                 'key' => '_Tp',
                                                                 'type' => '126332'
                                                               }
                                                      }
                                        },
                            '140281' => {
                                          'Header' => 'move.h',
                                          'InLine' => 2,
                                          'Line' => '51',
                                          'MnglName' => '_ZSt11__addressofIKcEPT_RS1_',
                                          'NameSpace' => 'std',
                                          'Param' => {
                                                       '0' => {
                                                                'name' => '__r',
                                                                'type' => '50150'
                                                              }
                                                     },
                                          'Return' => '2344',
                                          'ShortName' => '__addressof<char const>',
                                          'TParam' => {
                                                        '0' => {
                                                                 'key' => '_Tp',
                                                                 'type' => '340'
                                                               }
                                                      }
                                        },
                            '140316' => {
                                          'Header' => 'stl_algobase.h',
                                          'InLine' => 2,
                                          'Line' => '233',
                                          'MnglName' => '_ZSt3minImERKT_S2_S2_',
                                          'NameSpace' => 'std',
                                          'Param' => {
                                                       '0' => {
                                                                'name' => '__a',
                                                                'type' => '50441'
                                                              },
                                                       '1' => {
                                                                'name' => '__b',
                                                                'type' => '50441'
                                                              }
                                                     },
                                          'Return' => '50441',
                                          'ShortName' => 'min<unsigned long>',
                                          'TParam' => {
                                                        '0' => {
                                                                 'key' => '_Tp',
                                                                 'type' => '51'
                                                               }
                                                      }
                                        },
                            '140401' => {
                                          'Header' => 'move.h',
                                          'InLine' => 2,
                                          'Line' => '162',
                                          'MnglName' => '_ZSt9addressofIKcEPT_RS1_',
                                          'NameSpace' => 'std',
                                          'Param' => {
                                                       '0' => {
                                                                'name' => '__r',
                                                                'type' => '50150'
                                                              }
                                                     },
                                          'Return' => '2344',
                                          'ShortName' => 'addressof<char const>',
                                          'TParam' => {
                                                        '0' => {
                                                                 'key' => '_Tp',
                                                                 'type' => '340'
                                                               }
                                                      }
                                        },
                            '140471' => {
                                          'Header' => 'move.h',
                                          'InLine' => 2,
                                          'Line' => '70',
                                          'MnglName' => '_ZSt7forwardIRSt17_Rb_tree_iteratorISt4pairIKNSt7__cxx1112basic_stringIcSt11char_traitsIcESaIcEEEN4zeno7reflect9UniquePtrINSA_14IMetadataValueEEEEEEOT_RNSt16remove_referenceISH_E4typeE',
                                          'NameSpace' => 'std',
                                          'Param' => {
                                                       '0' => {
                                                                'name' => '__t',
                                                                'type' => '167365'
                                                              }
                                                     },
                                          'Return' => '167360',
                                          'ShortName' => 'forward<std::_Rb_tree_iterator<std::pair<std::__cxx11::basic_string<char>const, zeno::reflect::UniquePtr<zeno::reflect::IMetadataValue> > >&>',
                                          'TParam' => {
                                                        '0' => {
                                                                 'key' => '_Tp',
                                                                 'type' => '167360'
                                                               }
                                                      }
                                        },
                            '140506' => {
                                          'Header' => 'move.h',
                                          'InLine' => 2,
                                          'Line' => '70',
                                          'MnglName' => '_ZSt7forwardISt5tupleIJON4zeno7reflect9UniquePtrINS2_14IMetadataValueEEEEEEOT_RNSt16remove_referenceIS8_E4typeE',
                                          'NameSpace' => 'std',
                                          'Param' => {
                                                       '0' => {
                                                                'name' => '__t',
                                                                'type' => '167579'
                                                              }
                                                     },
                                          'Return' => '159493',
                                          'ShortName' => 'forward<std::tuple<zeno::reflect::UniquePtr<zeno::reflect::IMetadataValue>&&> >',
                                          'TParam' => {
                                                        '0' => {
                                                                 'key' => '_Tp',
                                                                 'type' => '138051'
                                                               }
                                                      }
                                        },
                            '140541' => {
                                          'Header' => 'move.h',
                                          'InLine' => 2,
                                          'Line' => '70',
                                          'MnglName' => '_ZSt7forwardISt5tupleIJONSt7__cxx1112basic_stringIcSt11char_traitsIcESaIcEEEEEEOT_RNSt16remove_referenceIS9_E4typeE',
                                          'NameSpace' => 'std',
                                          'Param' => {
                                                       '0' => {
                                                                'name' => '__t',
                                                                'type' => '167636'
                                                              }
                                                     },
                                          'Return' => '159418',
                                          'ShortName' => 'forward<std::tuple<std::__cxx11::basic_string<char, std::char_traits<char>, std::allocator<char> >&&> >',
                                          'TParam' => {
                                                        '0' => {
                                                                 'key' => '_Tp',
                                                                 'type' => '137086'
                                                               }
                                                      }
                                        },
                            '140611' => {
                                          'Header' => 'move.h',
                                          'InLine' => 2,
                                          'Line' => '70',
                                          'MnglName' => '_ZSt7forwardINSt7__cxx1112basic_stringIcSt11char_traitsIcESaIcEEEEOT_RNSt16remove_referenceIS6_E4typeE',
                                          'NameSpace' => 'std',
                                          'Param' => {
                                                       '0' => {
                                                                'name' => '__t',
                                                                'type' => '167996'
                                                              }
                                                     },
                                          'Return' => '50130',
                                          'ShortName' => 'forward<std::__cxx11::basic_string<char> >',
                                          'TParam' => {
                                                        '0' => {
                                                                 'key' => '_Tp',
                                                                 'type' => '18465'
                                                               }
                                                      }
                                        },
                            '140646' => {
                                          'Header' => 'basic_string.h',
                                          'InLine' => 2,
                                          'Line' => '3790',
                                          'MnglName' => '_ZStssIcSt11char_traitsIcESaIcEEDTcl21__char_traits_cmp_catIT0_ELi0EEERKNSt7__cxx1112basic_stringIT_S3_T1_EESB_',
                                          'NameSpace' => 'std',
                                          'Param' => {
                                                       '0' => {
                                                                'name' => '__lhs',
                                                                'type' => '50125'
                                                              },
                                                       '1' => {
                                                                'name' => '__rhs',
                                                                'type' => '50125'
                                                              }
                                                     },
                                          'Return' => '101510',
                                          'ShortName' => 'operator<=><char, std::char_traits<char>, std::allocator<char> >',
                                          'TParam' => {
                                                        '0' => {
                                                                 'key' => '_CharT',
                                                                 'type' => '333'
                                                               },
                                                        '1' => {
                                                                 'key' => '_Traits',
                                                                 'type' => '9708'
                                                               },
                                                        '2' => {
                                                                 'key' => '_Alloc',
                                                                 'type' => '13805'
                                                               }
                                                      }
                                        },
                            '140705' => {
                                          'Header' => 'move.h',
                                          'InLine' => 2,
                                          'Line' => '126',
                                          'MnglName' => '_ZSt4moveIRN4zeno7reflect9UniquePtrINS1_14IMetadataValueEEEEONSt16remove_referenceIT_E4typeEOS7_',
                                          'NameSpace' => 'std',
                                          'Param' => {
                                                       '0' => {
                                                                'name' => '__t',
                                                                'type' => '157318'
                                                              }
                                                     },
                                          'Return' => '168930',
                                          'ShortName' => 'move<zeno::reflect::UniquePtr<zeno::reflect::IMetadataValue>&>',
                                          'TParam' => {
                                                        '0' => {
                                                                 'key' => '_Tp',
                                                                 'type' => '157318'
                                                               }
                                                      }
                                        },
                            '140780' => {
                                          'Header' => 'move.h',
                                          'InLine' => 2,
                                          'Line' => '70',
                                          'MnglName' => '_ZSt7forwardIRfEOT_RNSt16remove_referenceIS1_E4typeE',
                                          'NameSpace' => 'std',
                                          'Param' => {
                                                       '0' => {
                                                                'name' => '__t',
                                                                'type' => '169594'
                                                              }
                                                     },
                                          'Return' => '169589',
                                          'ShortName' => 'forward<float&>',
                                          'TParam' => {
                                                        '0' => {
                                                                 'key' => '_Tp',
                                                                 'type' => '169589'
                                                               }
                                                      }
                                        },
                            '140815' => {
                                          'Header' => 'move.h',
                                          'InLine' => 2,
                                          'Line' => '70',
                                          'MnglName' => '_ZSt7forwardIRiEOT_RNSt16remove_referenceIS1_E4typeE',
                                          'NameSpace' => 'std',
                                          'Param' => {
                                                       '0' => {
                                                                'name' => '__t',
                                                                'type' => '169756'
                                                              }
                                                     },
                                          'Return' => '169751',
                                          'ShortName' => 'forward<int&>',
                                          'TParam' => {
                                                        '0' => {
                                                                 'key' => '_Tp',
                                                                 'type' => '169751'
                                                               }
                                                      }
                                        },
                            '140850' => {
                                          'Header' => 'move.h',
                                          'InLine' => 2,
                                          'Line' => '70',
                                          'MnglName' => '_ZSt7forwardIRPKcEOT_RNSt16remove_referenceIS3_E4typeE',
                                          'NameSpace' => 'std',
                                          'Param' => {
                                                       '0' => {
                                                                'name' => '__t',
                                                                'type' => '170181'
                                                              }
                                                     },
                                          'Return' => '170176',
                                          'ShortName' => 'forward<char const*&>',
                                          'TParam' => {
                                                        '0' => {
                                                                 'key' => '_Tp',
                                                                 'type' => '170176'
                                                               }
                                                      }
                                        },
                            '140885' => {
                                          'Header' => 'tuple',
                                          'InLine' => 2,
                                          'Line' => '2650',
                                          'MnglName' => '_ZSt16forward_as_tupleIJN4zeno7reflect9UniquePtrINS1_14IMetadataValueEEEEESt5tupleIJDpOT_EES8_',
                                          'NameSpace' => 'std',
                                          'Param' => {
                                                       '0' => {
                                                                'name' => 'p1',
                                                                'type' => '157313'
                                                              }
                                                     },
                                          'Return' => '138051',
                                          'ShortName' => 'forward_as_tuple<zeno::reflect::UniquePtr<zeno::reflect::IMetadataValue> >',
                                          'TParam' => {
                                                        '0' => {
                                                                 'key' => undef,
                                                                 'type' => '152050'
                                                               }
                                                      }
                                        },
                            '140927' => {
                                          'Header' => 'tuple',
                                          'InLine' => 2,
                                          'Line' => '2650',
                                          'MnglName' => '_ZSt16forward_as_tupleIJNSt7__cxx1112basic_stringIcSt11char_traitsIcESaIcEEEEESt5tupleIJDpOT_EES9_',
                                          'NameSpace' => 'std',
                                          'Param' => {
                                                       '0' => {
                                                                'name' => 'p1',
                                                                'type' => '50130'
                                                              }
                                                     },
                                          'Return' => '137086',
                                          'ShortName' => 'forward_as_tuple<std::__cxx11::basic_string<char> >',
                                          'TParam' => {
                                                        '0' => {
                                                                 'key' => undef,
                                                                 'type' => '18465'
                                                               }
                                                      }
                                        },
                            '140969' => {
                                          'Header' => 'move.h',
                                          'InLine' => 2,
                                          'Line' => '126',
                                          'MnglName' => '_ZSt4moveIRNSt7__cxx1112basic_stringIcSt11char_traitsIcESaIcEEEEONSt16remove_referenceIT_E4typeEOS8_',
                                          'NameSpace' => 'std',
                                          'Param' => {
                                                       '0' => {
                                                                'name' => '__t',
                                                                'type' => '50135'
                                                              }
                                                     },
                                          'Return' => '170871',
                                          'ShortName' => 'move<std::__cxx11::basic_string<char>&>',
                                          'TParam' => {
                                                        '0' => {
                                                                 'key' => '_Tp',
                                                                 'type' => '50135'
                                                               }
                                                      }
                                        },
                            '141004' => {
                                          'Header' => 'stl_tree.h',
                                          'InLine' => 2,
                                          'Line' => '311',
                                          'MnglName' => '_ZSteqRKSt17_Rb_tree_iteratorISt4pairIKNSt7__cxx1112basic_stringIcSt11char_traitsIcESaIcEEEN4zeno7reflect9UniquePtrINS9_14IMetadataValueEEEEESG_',
                                          'NameSpace' => 'std',
                                          'Param' => {
                                                       '0' => {
                                                                'name' => '__x',
                                                                'type' => '171176'
                                                              },
                                                       '1' => {
                                                                'name' => '__y',
                                                                'type' => '171176'
                                                              }
                                                     },
                                          'Return' => '2273',
                                          'ShortName' => 'operator=='
                                        },
                            '141071' => {
                                          'Header' => 'move.h',
                                          'InLine' => 2,
                                          'Line' => '70',
                                          'MnglName' => '_ZSt7forwardIRKcEOT_RNSt16remove_referenceIS2_E4typeE',
                                          'NameSpace' => 'std',
                                          'Param' => {
                                                       '0' => {
                                                                'name' => '__t',
                                                                'type' => '172989'
                                                              }
                                                     },
                                          'Return' => '50150',
                                          'ShortName' => 'forward<char const&>',
                                          'TParam' => {
                                                        '0' => {
                                                                 'key' => '_Tp',
                                                                 'type' => '50150'
                                                               }
                                                      }
                                        },
                            '141106' => {
                                          'Header' => 'stl_tree.h',
                                          'InLine' => 2,
                                          'Line' => '392',
                                          'MnglName' => '_ZSteqRKSt23_Rb_tree_const_iteratorISt4pairIKNSt7__cxx1112basic_stringIcSt11char_traitsIcESaIcEEEN4zeno7reflect9UniquePtrINS9_14IMetadataValueEEEEESG_',
                                          'NameSpace' => 'std',
                                          'Param' => {
                                                       '0' => {
                                                                'name' => '__x',
                                                                'type' => '175060'
                                                              },
                                                       '1' => {
                                                                'name' => '__y',
                                                                'type' => '175060'
                                                              }
                                                     },
                                          'Return' => '2273',
                                          'ShortName' => 'operator=='
                                        },
                            '141138' => {
                                          'Header' => 'move.h',
                                          'InLine' => 2,
                                          'Line' => '70',
                                          'MnglName' => '_ZSt7forwardIN4zeno7reflect9UniquePtrINS1_14IMetadataValueEEEEOT_RNSt16remove_referenceIS5_E4typeE',
                                          'NameSpace' => 'std',
                                          'Param' => {
                                                       '0' => {
                                                                'name' => '__t',
                                                                'type' => '175730'
                                                              }
                                                     },
                                          'Return' => '157313',
                                          'ShortName' => 'forward<zeno::reflect::UniquePtr<zeno::reflect::IMetadataValue> >',
                                          'TParam' => {
                                                        '0' => {
                                                                 'key' => '_Tp',
                                                                 'type' => '152050'
                                                               }
                                                      }
                                        },
                            '141173' => {
                                          'Header' => 'move.h',
                                          'InLine' => 2,
                                          'Line' => '126',
                                          'MnglName' => '_ZSt4moveIRN4zeno7reflect13simple_stringEEONSt16remove_referenceIT_E4typeEOS5_',
                                          'NameSpace' => 'std',
                                          'Param' => {
                                                       '0' => {
                                                                'name' => '__t',
                                                                'type' => '175998'
                                                              }
                                                     },
                                          'Return' => '175993',
                                          'ShortName' => 'move<zeno::reflect::simple_string&>',
                                          'TParam' => {
                                                        '0' => {
                                                                 'key' => '_Tp',
                                                                 'type' => '175998'
                                                               }
                                                      }
                                        },
                            '141208' => {
                                          'Header' => 'stl_construct.h',
                                          'InLine' => 2,
                                          'Line' => '94',
                                          'MnglName' => '_ZSt12construct_atIcJRKcEEDTgsnwcvPvLi0E_T_pispcl7declvalIT0_EEEEPS3_DpOS4_',
                                          'NameSpace' => 'std',
                                          'Param' => {
                                                       '0' => {
                                                                'name' => '__location',
                                                                'type' => '328'
                                                              },
                                                       '1' => {
                                                                'name' => 'p2',
                                                                'type' => '50150'
                                                              }
                                                     },
                                          'Return' => '328',
                                          'ShortName' => 'construct_at<char, char const&>',
                                          'TParam' => {
                                                        '0' => {
                                                                 'key' => '_Tp',
                                                                 'type' => '333'
                                                               },
                                                        '1' => {
                                                                 'key' => undef,
                                                                 'type' => '50150'
                                                               }
                                                      }
                                        },
                            '141263' => {
                                          'Header' => 'move.h',
                                          'InLine' => 2,
                                          'Line' => '126',
                                          'MnglName' => '_ZSt4moveIRSaIcEEONSt16remove_referenceIT_E4typeEOS3_',
                                          'NameSpace' => 'std',
                                          'Param' => {
                                                       '0' => {
                                                                'name' => '__t',
                                                                'type' => '49496'
                                                              }
                                                     },
                                          'Return' => '180006',
                                          'ShortName' => 'move<std::allocator<char>&>',
                                          'TParam' => {
                                                        '0' => {
                                                                 'key' => '_Tp',
                                                                 'type' => '49496'
                                                               }
                                                      }
                                        },
                            '141298' => {
                                          'Header' => 'move.h',
                                          'InLine' => 2,
                                          'Line' => '51',
                                          'MnglName' => '_ZSt11__addressofIcEPT_RS0_',
                                          'NameSpace' => 'std',
                                          'Param' => {
                                                       '0' => {
                                                                'name' => '__r',
                                                                'type' => '50786'
                                                              }
                                                     },
                                          'Return' => '328',
                                          'ShortName' => '__addressof<char>',
                                          'TParam' => {
                                                        '0' => {
                                                                 'key' => '_Tp',
                                                                 'type' => '333'
                                                               }
                                                      }
                                        },
                            '141333' => {
                                          'Header' => 'move.h',
                                          'InLine' => 2,
                                          'Line' => '162',
                                          'MnglName' => '_ZSt9addressofIcEPT_RS0_',
                                          'NameSpace' => 'std',
                                          'Param' => {
                                                       '0' => {
                                                                'name' => '__r',
                                                                'type' => '50786'
                                                              }
                                                     },
                                          'Return' => '328',
                                          'ShortName' => 'addressof<char>',
                                          'TParam' => {
                                                        '0' => {
                                                                 'key' => '_Tp',
                                                                 'type' => '333'
                                                               }
                                                      }
                                        },
                            '141368' => {
                                          'Header' => 'compare',
                                          'InLine' => 2,
                                          'Line' => '291',
                                          'MnglName' => '_ZStltSt15strong_orderingNSt9__cmp_cat8__unspecE',
                                          'NameSpace' => 'std',
                                          'Param' => {
                                                       '0' => {
                                                                'name' => '__v',
                                                                'type' => '101510'
                                                              },
                                                       '1' => {
                                                                'name' => 'p2',
                                                                'type' => '101294'
                                                              }
                                                     },
                                          'Return' => '2273',
                                          'ShortName' => 'operator<'
                                        },
                            '141400' => {
                                          'Header' => 'type_traits',
                                          'InLine' => 2,
                                          'Line' => '3817',
                                          'MnglName' => '_ZSt21is_constant_evaluatedv',
                                          'NameSpace' => 'std',
                                          'Return' => '2273',
                                          'ShortName' => 'is_constant_evaluated'
                                        },
                            '142592' => {
                                          'Class' => '142535',
                                          'Header' => 'char_traits.h',
                                          'InLine' => 2,
                                          'Line' => '136',
                                          'MnglName' => '_ZN9__gnu_cxx11char_traitsIcE2eqERKcS3_',
                                          'Param' => {
                                                       '0' => {
                                                                'name' => '__c1',
                                                                'type' => '150692'
                                                              },
                                                       '1' => {
                                                                'name' => '__c2',
                                                                'type' => '150692'
                                                              }
                                                     },
                                          'Return' => '2273',
                                          'ShortName' => 'eq',
                                          'Static' => 1
                                        },
                            '142690' => {
                                          'Class' => '142535',
                                          'Header' => 'char_traits.h',
                                          'InLine' => 2,
                                          'Line' => '199',
                                          'MnglName' => '_ZN9__gnu_cxx11char_traitsIcE6lengthEPKc',
                                          'Param' => {
                                                       '0' => {
                                                                'name' => '__p',
                                                                'type' => '150697'
                                                              }
                                                     },
                                          'Return' => '8813',
                                          'ShortName' => 'length',
                                          'Static' => 1
                                        },
                            '142788' => {
                                          'Class' => '142535',
                                          'Header' => 'char_traits.h',
                                          'InLine' => 2,
                                          'Line' => '253',
                                          'MnglName' => '_ZN9__gnu_cxx11char_traitsIcE4copyEPcPKcm',
                                          'Param' => {
                                                       '0' => {
                                                                'name' => '__s1',
                                                                'type' => '150702'
                                                              },
                                                       '1' => {
                                                                'name' => '__s2',
                                                                'type' => '150697'
                                                              },
                                                       '2' => {
                                                                'name' => '__n',
                                                                'type' => '8813'
                                                              }
                                                     },
                                          'Return' => '150702',
                                          'ShortName' => 'copy',
                                          'Static' => 1
                                        },
                            '14396' => {
                                         'Class' => '14269',
                                         'Header' => 'stl_tree.h',
                                         'InLine' => 2,
                                         'Line' => '202',
                                         'MnglName' => '_ZNSt15_Rb_tree_header8_M_resetEv',
                                         'Param' => {
                                                      '0' => {
                                                               'name' => 'this',
                                                               'type' => '49521'
                                                             }
                                                    },
                                         'Return' => '1',
                                         'ShortName' => '_M_reset'
                                       },
                            '146143' => {
                                          'Class' => '146059',
                                          'Header' => 'aligned_buffer.h',
                                          'InLine' => 2,
                                          'Line' => '64',
                                          'MnglName' => '_ZN9__gnu_cxx16__aligned_membufISt4pairIKNSt7__cxx1112basic_stringIcSt11char_traitsIcESaIcEEEN4zeno7reflect9UniquePtrINSA_14IMetadataValueEEEEE7_M_addrEv',
                                          'Param' => {
                                                       '0' => {
                                                                'name' => 'this',
                                                                'type' => '159338'
                                                              }
                                                     },
                                          'Return' => '326',
                                          'ShortName' => '_M_addr'
                                        },
                            '146173' => {
                                          'Class' => '146059',
                                          'Const' => 1,
                                          'Header' => 'aligned_buffer.h',
                                          'InLine' => 2,
                                          'Line' => '68',
                                          'MnglName' => '_ZNK9__gnu_cxx16__aligned_membufISt4pairIKNSt7__cxx1112basic_stringIcSt11char_traitsIcESaIcEEEN4zeno7reflect9UniquePtrINSA_14IMetadataValueEEEEE7_M_addrEv',
                                          'Param' => {
                                                       '0' => {
                                                                'name' => 'this',
                                                                'type' => '159348'
                                                              }
                                                     },
                                          'Return' => '2385',
                                          'ShortName' => '_M_addr'
                                        },
                            '146203' => {
                                          'Class' => '146059',
                                          'Header' => 'aligned_buffer.h',
                                          'InLine' => 2,
                                          'Line' => '72',
                                          'MnglName' => '_ZN9__gnu_cxx16__aligned_membufISt4pairIKNSt7__cxx1112basic_stringIcSt11char_traitsIcESaIcEEEN4zeno7reflect9UniquePtrINSA_14IMetadataValueEEEEE6_M_ptrEv',
                                          'Param' => {
                                                       '0' => {
                                                                'name' => 'this',
                                                                'type' => '159338'
                                                              }
                                                     },
                                          'Return' => '157373',
                                          'ShortName' => '_M_ptr'
                                        },
                            '146233' => {
                                          'Class' => '146059',
                                          'Const' => 1,
                                          'Header' => 'aligned_buffer.h',
                                          'InLine' => 2,
                                          'Line' => '76',
                                          'MnglName' => '_ZNK9__gnu_cxx16__aligned_membufISt4pairIKNSt7__cxx1112basic_stringIcSt11char_traitsIcESaIcEEEN4zeno7reflect9UniquePtrINSA_14IMetadataValueEEEEE6_M_ptrEv',
                                          'Param' => {
                                                       '0' => {
                                                                'name' => 'this',
                                                                'type' => '159348'
                                                              }
                                                     },
                                          'Return' => '157413',
                                          'ShortName' => '_M_ptr'
                                        },
                            '150967' => {
                                          'Class' => '47862',
                                          'Const' => 1,
                                          'Header' => 'string',
                                          'Line' => '85',
                                          'MnglName' => '_ZNK4zeno7reflect13simple_string4dataEv',
                                          'Param' => {
                                                       '0' => {
                                                                'name' => 'this',
                                                                'type' => '205932'
                                                              }
                                                     },
                                          'Return' => '2344',
                                          'ShortName' => 'data',
                                          'Source' => 'string.cpp',
                                          'SourceLine' => '172'
                                        },
                            '151158' => {
                                          'Class' => '151106',
                                          'Header' => 'arraylist',
                                          'InLine' => 2,
                                          'Line' => '27',
                                          'MnglName' => '_ZN4zeno7reflect9ArrayListINS0_9UniquePtrINS0_14IMetadataValueEEEE15resize_internalEv',
                                          'Param' => {
                                                       '0' => {
                                                                'name' => 'this',
                                                                'type' => '157283'
                                                              }
                                                     },
                                          'Private' => 1,
                                          'Return' => '1',
                                          'ShortName' => 'resize_internal'
                                        },
                            '151339' => {
                                          'Class' => '151106',
                                          'Const' => 1,
                                          'Header' => 'arraylist',
                                          'InLine' => 2,
                                          'Line' => '67',
                                          'MnglName' => '_ZNK4zeno7reflect9ArrayListINS0_9UniquePtrINS0_14IMetadataValueEEEE14is_valid_indexEm',
                                          'Param' => {
                                                       '0' => {
                                                                'name' => 'this',
                                                                'type' => '157303'
                                                              },
                                                       '1' => {
                                                                'name' => 'index',
                                                                'type' => '2327'
                                                              }
                                                     },
                                          'Return' => '2273',
                                          'ShortName' => 'is_valid_index'
                                        },
                            '151409' => {
                                          'Class' => '151106',
                                          'Header' => 'arraylist',
                                          'InLine' => 2,
                                          'Line' => '79',
                                          'MnglName' => '_ZN4zeno7reflect9ArrayListINS0_9UniquePtrINS0_14IMetadataValueEEEE8add_itemEOS4_',
                                          'Param' => {
                                                       '0' => {
                                                                'name' => 'this',
                                                                'type' => '157283'
                                                              },
                                                       '1' => {
                                                                'name' => 'value',
                                                                'type' => '157313'
                                                              }
                                                     },
                                          'Return' => '2327',
                                          'ShortName' => 'add_item'
                                        },
                            '151632' => {
                                          'Class' => '151106',
                                          'Header' => 'arraylist',
                                          'InLine' => 2,
                                          'Line' => '138',
                                          'MnglName' => '_ZN4zeno7reflect9ArrayListINS0_9UniquePtrINS0_14IMetadataValueEEEE5resetEv',
                                          'Param' => {
                                                       '0' => {
                                                                'name' => 'this',
                                                                'type' => '157283'
                                                              }
                                                     },
                                          'Return' => '1',
                                          'ShortName' => 'reset'
                                        },
                            '151724' => {
                                          'Class' => '151106',
                                          'Const' => 1,
                                          'Header' => 'arraylist',
                                          'InLine' => 2,
                                          'Line' => '161',
                                          'MnglName' => '_ZNK4zeno7reflect9ArrayListINS0_9UniquePtrINS0_14IMetadataValueEEEEixEm',
                                          'Param' => {
                                                       '0' => {
                                                                'name' => 'this',
                                                                'type' => '157303'
                                                              },
                                                       '1' => {
                                                                'name' => 'index',
                                                                'type' => '2327'
                                                              }
                                                     },
                                          'Return' => '157308',
                                          'ShortName' => 'operator[]'
                                        },
                            '151759' => {
                                          'Class' => '151106',
                                          'Const' => 1,
                                          'Header' => 'arraylist',
                                          'InLine' => 2,
                                          'Line' => '166',
                                          'MnglName' => '_ZNK4zeno7reflect9ArrayListINS0_9UniquePtrINS0_14IMetadataValueEEEE4sizeEv',
                                          'Param' => {
                                                       '0' => {
                                                                'name' => 'this',
                                                                'type' => '157303'
                                                              }
                                                     },
                                          'Return' => '2327',
                                          'ShortName' => 'size'
                                        },
                            '152302' => {
                                          'Class' => '152050',
                                          'Const' => 1,
                                          'Header' => 'unique_ptr',
                                          'InLine' => 2,
                                          'Line' => '49',
                                          'MnglName' => '_ZNK4zeno7reflect9UniquePtrINS0_14IMetadataValueEE3getEv',
                                          'Param' => {
                                                       '0' => {
                                                                'name' => 'this',
                                                                'type' => '157343'
                                                              }
                                                     },
                                          'Return' => '157348',
                                          'ShortName' => 'get'
                                        },
                            '152462' => {
                                          'Class' => '152050',
                                          'Header' => 'unique_ptr',
                                          'InLine' => 2,
                                          'Line' => '33',
                                          'MnglName' => '_ZN4zeno7reflect9UniquePtrINS0_14IMetadataValueEEaSIS2_EERS3_ONS1_IT_EE',
                                          'Param' => {
                                                       '0' => {
                                                                'name' => 'this',
                                                                'type' => '157328'
                                                              },
                                                       '1' => {
                                                                'name' => 'moving',
                                                                'type' => '157313'
                                                              }
                                                     },
                                          'Return' => '157318',
                                          'ShortName' => 'operator=<zeno::reflect::IMetadataValue>',
                                          'TParam' => {
                                                        '0' => {
                                                                 'key' => 'U',
                                                                 'type' => '152669'
                                                               }
                                                      }
                                        },
                            '152747' => {
                                          'Class' => '152669',
                                          'Header' => 'metadata.hpp',
                                          'MnglName' => '_ZN4zeno7reflect14IMetadataValue13create_stringEPKc',
                                          'Param' => {
                                                       '0' => {
                                                                'name' => 'str',
                                                                'type' => '2344'
                                                              }
                                                     },
                                          'Return' => '152050',
                                          'ShortName' => 'create_string',
                                          'Source' => 'metadata.cpp',
                                          'SourceLine' => '123',
                                          'Static' => 1
                                        },
                            '152772' => {
                                          'Class' => '152669',
                                          'Header' => 'metadata.hpp',
                                          'MnglName' => '_ZN4zeno7reflect14IMetadataValue11create_listEv',
                                          'Return' => '152050',
                                          'ShortName' => 'create_list',
                                          'Source' => 'metadata.cpp',
                                          'SourceLine' => '128',
                                          'Static' => 1
                                        },
                            '152788' => {
                                          'Class' => '152669',
                                          'Header' => 'metadata.hpp',
                                          'MnglName' => '_ZN4zeno7reflect14IMetadataValue10create_intEi',
                                          'Param' => {
                                                       '0' => {
                                                                'name' => 'value',
                                                                'type' => '132'
                                                              }
                                                     },
                                          'Return' => '152050',
                                          'ShortName' => 'create_int',
                                          'Source' => 'metadata.cpp',
                                          'SourceLine' => '133',
                                          'Static' => 1
                                        },
                            '152813' => {
                                          'Class' => '152669',
                                          'Header' => 'metadata.hpp',
                                          'MnglName' => '_ZN4zeno7reflect14IMetadataValue12create_floatEf',
                                          'Param' => {
                                                       '0' => {
                                                                'name' => 'value',
                                                                'type' => '4641'
                                                              }
                                                     },
                                          'Return' => '152050',
                                          'ShortName' => 'create_float',
                                          'Source' => 'metadata.cpp',
                                          'SourceLine' => '138',
                                          'Static' => 1
                                        },
                            '152872' => {
                                          'Class' => '152669',
                                          'Const' => 1,
                                          'Header' => 'metadata.hpp',
                                          'MnglName' => '_ZNK4zeno7reflect14IMetadataValue9is_stringEv',
                                          'Param' => {
                                                       '0' => {
                                                                'name' => 'this',
                                                                'type' => '159696'
                                                              }
                                                     },
                                          'Return' => '2273',
                                          'ShortName' => 'is_string',
                                          'Source' => 'metadata.cpp',
                                          'SourceLine' => '147',
                                          'Virt' => 1,
                                          'VirtPos' => '2'
                                        },
                            '152910' => {
                                          'Class' => '152669',
                                          'Const' => 1,
                                          'Header' => 'metadata.hpp',
                                          'MnglName' => '_ZNK4zeno7reflect14IMetadataValue9as_stringEv',
                                          'Param' => {
                                                       '0' => {
                                                                'name' => 'this',
                                                                'type' => '159696'
                                                              }
                                                     },
                                          'Return' => '2344',
                                          'ShortName' => 'as_string',
                                          'Source' => 'metadata.cpp',
                                          'SourceLine' => '160',
                                          'Virt' => 1,
                                          'VirtPos' => '3'
                                        },
                            '152948' => {
                                          'Class' => '152669',
                                          'Const' => 1,
                                          'Header' => 'metadata.hpp',
                                          'MnglName' => '_ZNK4zeno7reflect14IMetadataValue6is_intEv',
                                          'Param' => {
                                                       '0' => {
                                                                'name' => 'this',
                                                                'type' => '159696'
                                                              }
                                                     },
                                          'Return' => '2273',
                                          'ShortName' => 'is_int',
                                          'Source' => 'metadata.cpp',
                                          'SourceLine' => '152',
                                          'Virt' => 1,
                                          'VirtPos' => '4'
                                        },
                            '152986' => {
                                          'Class' => '152669',
                                          'Const' => 1,
                                          'Header' => 'metadata.hpp',
                                          'MnglName' => '_ZNK4zeno7reflect14IMetadataValue6as_intEv',
                                          'Param' => {
                                                       '0' => {
                                                                'name' => 'this',
                                                                'type' => '159696'
                                                              }
                                                     },
                                          'Return' => '132',
                                          'ShortName' => 'as_int',
                                          'Source' => 'metadata.cpp',
                                          'SourceLine' => '166',
                                          'Virt' => 1,
                                          'VirtPos' => '5'
                                        },
                            '153024' => {
                                          'Class' => '152669',
                                          'Const' => 1,
                                          'Header' => 'metadata.hpp',
                                          'MnglName' => '_ZNK4zeno7reflect14IMetadataValue8is_floatEv',
                                          'Param' => {
                                                       '0' => {
                                                                'name' => 'this',
                                                                'type' => '159696'
                                                              }
                                                     },
                                          'Return' => '2273',
                                          'ShortName' => 'is_float',
                                          'Source' => 'metadata.cpp',
                                          'SourceLine' => '156',
                                          'Virt' => 1,
                                          'VirtPos' => '6'
                                        },
                            '153062' => {
                                          'Class' => '152669',
                                          'Const' => 1,
                                          'Header' => 'metadata.hpp',
                                          'MnglName' => '_ZNK4zeno7reflect14IMetadataValue8as_floatEv',
                                          'Param' => {
                                                       '0' => {
                                                                'name' => 'this',
                                                                'type' => '159696'
                                                              }
                                                     },
                                          'Return' => '4641',
                                          'ShortName' => 'as_float',
                                          'Source' => 'metadata.cpp',
                                          'SourceLine' => '171',
                                          'Virt' => 1,
                                          'VirtPos' => '7'
                                        },
                            '153100' => {
                                          'Class' => '152669',
                                          'Const' => 1,
                                          'Header' => 'metadata.hpp',
                                          'MnglName' => '_ZNK4zeno7reflect14IMetadataValue7is_listEv',
                                          'Param' => {
                                                       '0' => {
                                                                'name' => 'this',
                                                                'type' => '159696'
                                                              }
                                                     },
                                          'Return' => '2273',
                                          'ShortName' => 'is_list',
                                          'Source' => 'metadata.cpp',
                                          'SourceLine' => '176',
                                          'Virt' => 1,
                                          'VirtPos' => '8'
                                        },
                            '153138' => {
                                          'Class' => '152669',
                                          'Const' => 1,
                                          'Header' => 'metadata.hpp',
                                          'MnglName' => '_ZNK4zeno7reflect14IMetadataValue11list_lengthEv',
                                          'Param' => {
                                                       '0' => {
                                                                'name' => 'this',
                                                                'type' => '159696'
                                                              }
                                                     },
                                          'Return' => '2327',
                                          'ShortName' => 'list_length',
                                          'Source' => 'metadata.cpp',
                                          'SourceLine' => '181',
                                          'Virt' => 1,
                                          'VirtPos' => '9'
                                        },
                            '153176' => {
                                          'Class' => '152669',
                                          'Const' => 1,
                                          'Header' => 'metadata.hpp',
                                          'MnglName' => '_ZNK4zeno7reflect14IMetadataValue13list_get_itemEm',
                                          'Param' => {
                                                       '0' => {
                                                                'name' => 'this',
                                                                'type' => '159696'
                                                              },
                                                       '1' => {
                                                                'name' => 'index',
                                                                'type' => '2327'
                                                              }
                                                     },
                                          'Return' => '159691',
                                          'ShortName' => 'list_get_item',
                                          'Source' => 'metadata.cpp',
                                          'SourceLine' => '187',
                                          'Virt' => 1,
                                          'VirtPos' => '10'
                                        },
                            '153219' => {
                                          'Class' => '152669',
                                          'Header' => 'metadata.hpp',
                                          'MnglName' => '_ZN4zeno7reflect14IMetadataValue13list_add_itemEONS0_9UniquePtrIS1_EE',
                                          'Param' => {
                                                       '0' => {
                                                                'name' => 'this',
                                                                'type' => '157353'
                                                              },
                                                       '1' => {
                                                                'name' => 'value',
                                                                'type' => '157313'
                                                              }
                                                     },
                                          'Return' => '1',
                                          'ShortName' => 'list_add_item',
                                          'Source' => 'metadata.cpp',
                                          'SourceLine' => '193',
                                          'Virt' => 1,
                                          'VirtPos' => '11'
                                        },
                            '153801' => {
                                          'Class' => '86718',
                                          'Header' => 'metadata.hpp',
                                          'MnglName' => '_ZN4zeno7reflect12IRawMetadata6createEv',
                                          'Return' => '153260',
                                          'ShortName' => 'create',
                                          'Source' => 'metadata.cpp',
                                          'SourceLine' => '114',
                                          'Static' => 1
                                        },
                            '153851' => {
                                          'Class' => '86718',
                                          'Const' => 1,
                                          'Header' => 'metadata.hpp',
                                          'Line' => '40',
                                          'MnglName' => '_ZNK4zeno7reflect12IRawMetadata9get_valueEPKc',
                                          'Param' => {
                                                       '0' => {
                                                                'name' => 'this',
                                                                'type' => '88841'
                                                              },
                                                       '1' => {
                                                                'name' => 'p1',
                                                                'type' => '2344'
                                                              }
                                                     },
                                          'PureVirt' => 1,
                                          'Return' => '159691',
                                          'ShortName' => 'get_value',
                                          'VirtPos' => '2'
                                        },
                            '153894' => {
                                          'Class' => '86718',
                                          'Header' => 'metadata.hpp',
                                          'Line' => '42',
                                          'MnglName' => '_ZN4zeno7reflect12IRawMetadata9set_valueEPKcONS0_9UniquePtrINS0_14IMetadataValueEEE',
                                          'Param' => {
                                                       '0' => {
                                                                'name' => 'this',
                                                                'type' => '157833'
                                                              },
                                                       '1' => {
                                                                'name' => 'p1',
                                                                'type' => '2344'
                                                              },
                                                       '2' => {
                                                                'name' => 'p2',
                                                                'type' => '157313'
                                                              }
                                                     },
                                          'PureVirt' => 1,
                                          'Return' => '1',
                                          'ShortName' => 'set_value',
                                          'VirtPos' => '3'
                                        },
                            '156252' => {
                                          'Header' => 'unique_ptr',
                                          'InLine' => 2,
                                          'Line' => '78',
                                          'MnglName' => '_ZN4zeno7reflect11make_uniqueI18FloatMetadataValueJRfEEENS0_9UniquePtrIT_EEDpOT0_',
                                          'NameSpace' => 'zeno::reflect',
                                          'Param' => {
                                                       '0' => {
                                                                'name' => 'p1',
                                                                'type' => '169589'
                                                              }
                                                     },
                                          'Return' => '155780',
                                          'ShortName' => 'make_unique<FloatMetadataValue, float&>',
                                          'TParam' => {
                                                        '0' => {
                                                                 'key' => 'T',
                                                                 'type' => '159061'
                                                               },
                                                        '1' => {
                                                                 'key' => undef,
                                                                 'type' => '169589'
                                                               }
                                                      }
                                        },
                            '156300' => {
                                          'Header' => 'unique_ptr',
                                          'InLine' => 2,
                                          'Line' => '78',
                                          'MnglName' => '_ZN4zeno7reflect11make_uniqueI16IntMetadataValueJRiEEENS0_9UniquePtrIT_EEDpOT0_',
                                          'NameSpace' => 'zeno::reflect',
                                          'Param' => {
                                                       '0' => {
                                                                'name' => 'p1',
                                                                'type' => '169751'
                                                              }
                                                     },
                                          'Return' => '155320',
                                          'ShortName' => 'make_unique<IntMetadataValue, int&>',
                                          'TParam' => {
                                                        '0' => {
                                                                 'key' => 'T',
                                                                 'type' => '158785'
                                                               },
                                                        '1' => {
                                                                 'key' => undef,
                                                                 'type' => '169751'
                                                               }
                                                      }
                                        },
                            '156348' => {
                                          'Header' => 'unique_ptr',
                                          'InLine' => 2,
                                          'Line' => '78',
                                          'MnglName' => '_ZN4zeno7reflect11make_uniqueI30HeterogeneousListMetadataValueJEEENS0_9UniquePtrIT_EEDpOT0_',
                                          'NameSpace' => 'zeno::reflect',
                                          'Return' => '154860',
                                          'ShortName' => 'make_unique<HeterogeneousListMetadataValue>',
                                          'TParam' => {
                                                        '0' => {
                                                                 'key' => 'T',
                                                                 'type' => '158426'
                                                               }
                                                      }
                                        },
                            '156381' => {
                                          'Header' => 'unique_ptr',
                                          'InLine' => 2,
                                          'Line' => '78',
                                          'MnglName' => '_ZN4zeno7reflect11make_uniqueI19StringMetadataValueJRPKcEEENS0_9UniquePtrIT_EEDpOT0_',
                                          'NameSpace' => 'zeno::reflect',
                                          'Param' => {
                                                       '0' => {
                                                                'name' => 'p1',
                                                                'type' => '170176'
                                                              }
                                                     },
                                          'Return' => '154400',
                                          'ShortName' => 'make_unique<StringMetadataValue, char const*&>',
                                          'TParam' => {
                                                        '0' => {
                                                                 'key' => 'T',
                                                                 'type' => '158150'
                                                               },
                                                        '1' => {
                                                                 'key' => undef,
                                                                 'type' => '170176'
                                                               }
                                                      }
                                        },
                            '156429' => {
                                          'Header' => 'unique_ptr',
                                          'InLine' => 2,
                                          'Line' => '78',
                                          'MnglName' => '_ZN4zeno7reflect11make_uniqueI11RawMetadataJEEENS0_9UniquePtrIT_EEDpOT0_',
                                          'NameSpace' => 'zeno::reflect',
                                          'Return' => '153940',
                                          'ShortName' => 'make_unique<RawMetadata>',
                                          'TParam' => {
                                                        '0' => {
                                                                 'key' => 'T',
                                                                 'type' => '157868'
                                                               }
                                                      }
                                        },
                            '157986' => {
                                          'Class' => '157868',
                                          'Const' => 1,
                                          'InLine' => 2,
                                          'Line' => '101',
                                          'MnglName' => '_ZNK11RawMetadata9get_valueEPKc',
                                          'Param' => {
                                                       '0' => {
                                                                'name' => 'this',
                                                                'type' => '159726'
                                                              },
                                                       '1' => {
                                                                'name' => 'key',
                                                                'type' => '2344'
                                                              }
                                                     },
                                          'Protected' => 1,
                                          'Return' => '159691',
                                          'ShortName' => 'get_value',
                                          'Source' => 'metadata.cpp',
                                          'Virt' => 1,
                                          'VirtPos' => '2'
                                        },
                            '158029' => {
                                          'Class' => '157868',
                                          'InLine' => 2,
                                          'Line' => '108',
                                          'MnglName' => '_ZN11RawMetadata9set_valueEPKcON4zeno7reflect9UniquePtrINS3_14IMetadataValueEEE',
                                          'Param' => {
                                                       '0' => {
                                                                'name' => 'this',
                                                                'type' => '158120'
                                                              },
                                                       '1' => {
                                                                'name' => 'key',
                                                                'type' => '2344'
                                                              },
                                                       '2' => {
                                                                'name' => 'value',
                                                                'type' => '157313'
                                                              }
                                                     },
                                          'Protected' => 1,
                                          'Return' => '1',
                                          'ShortName' => 'set_value',
                                          'Source' => 'metadata.cpp',
                                          'Virt' => 1,
                                          'VirtPos' => '3'
                                        },
                            '158271' => {
                                          'Class' => '158150',
                                          'Const' => 1,
                                          'InLine' => 2,
                                          'Line' => '20',
                                          'MnglName' => '_ZNK19StringMetadataValue9is_stringEv',
                                          'Param' => {
                                                       '0' => {
                                                                'name' => 'this',
                                                                'type' => '159806'
                                                              }
                                                     },
                                          'Protected' => 1,
                                          'Return' => '2273',
                                          'ShortName' => 'is_string',
                                          'Source' => 'metadata.cpp',
                                          'Virt' => 1,
                                          'VirtPos' => '2'
                                        },
                            '158309' => {
                                          'Class' => '158150',
                                          'Const' => 1,
                                          'InLine' => 2,
                                          'Line' => '24',
                                          'MnglName' => '_ZNK19StringMetadataValue9as_stringEv',
                                          'Param' => {
                                                       '0' => {
                                                                'name' => 'this',
                                                                'type' => '159806'
                                                              }
                                                     },
                                          'Protected' => 1,
                                          'Return' => '2344',
                                          'ShortName' => 'as_string',
                                          'Source' => 'metadata.cpp',
                                          'Virt' => 1,
                                          'VirtPos' => '3'
                                        },
                            '158516' => {
                                          'Class' => '158426',
                                          'Const' => 1,
                                          'InLine' => 2,
                                          'Line' => '70',
                                          'MnglName' => '_ZNK30HeterogeneousListMetadataValue7is_listEv',
                                          'Param' => {
                                                       '0' => {
                                                                'name' => 'this',
                                                                'type' => '159746'
                                                              }
                                                     },
                                          'Protected' => 1,
                                          'Return' => '2273',
                                          'ShortName' => 'is_list',
                                          'Source' => 'metadata.cpp',
                                          'Virt' => 1,
                                          'VirtPos' => '8'
                                        },
                            '158554' => {
                                          'Class' => '158426',
                                          'Const' => 1,
                                          'InLine' => 2,
                                          'Line' => '74',
                                          'MnglName' => '_ZNK30HeterogeneousListMetadataValue11list_lengthEv',
                                          'Param' => {
                                                       '0' => {
                                                                'name' => 'this',
                                                                'type' => '159746'
                                                              }
                                                     },
                                          'Protected' => 1,
                                          'Return' => '2327',
                                          'ShortName' => 'list_length',
                                          'Source' => 'metadata.cpp',
                                          'Virt' => 1,
                                          'VirtPos' => '9'
                                        },
                            '158592' => {
                                          'Class' => '158426',
                                          'Const' => 1,
                                          'InLine' => 2,
                                          'Line' => '78',
                                          'MnglName' => '_ZNK30HeterogeneousListMetadataValue13list_get_itemEm',
                                          'Param' => {
                                                       '0' => {
                                                                'name' => 'this',
                                                                'type' => '159746'
                                                              },
                                                       '1' => {
                                                                'name' => 'index',
                                                                'type' => '2327'
                                                              }
                                                     },
                                          'Protected' => 1,
                                          'Return' => '159691',
                                          'ShortName' => 'list_get_item',
                                          'Source' => 'metadata.cpp',
                                          'Virt' => 1,
                                          'VirtPos' => '10'
                                        },
                            '158635' => {
                                          'Class' => '158426',
                                          'InLine' => 2,
                                          'Line' => '83',
                                          'MnglName' => '_ZN30HeterogeneousListMetadataValue13list_add_itemEON4zeno7reflect9UniquePtrINS1_14IMetadataValueEEE',
                                          'Param' => {
                                                       '0' => {
                                                                'name' => 'this',
                                                                'type' => '158755'
                                                              },
                                                       '1' => {
                                                                'name' => 'value',
                                                                'type' => '157313'
                                                              }
                                                     },
                                          'Protected' => 1,
                                          'Return' => '1',
                                          'ShortName' => 'list_add_item',
                                          'Source' => 'metadata.cpp',
                                          'Virt' => 1,
                                          'VirtPos' => '11'
                                        },
                            '158906' => {
                                          'Class' => '158785',
                                          'Const' => 1,
                                          'InLine' => 2,
                                          'Line' => '36',
                                          'MnglName' => '_ZNK16IntMetadataValue6is_intEv',
                                          'Param' => {
                                                       '0' => {
                                                                'name' => 'this',
                                                                'type' => '159786'
                                                              }
                                                     },
                                          'Protected' => 1,
                                          'Return' => '2273',
                                          'ShortName' => 'is_int',
                                          'Source' => 'metadata.cpp',
                                          'Virt' => 1,
                                          'VirtPos' => '4'
                                        },
                            '158944' => {
                                          'Class' => '158785',
                                          'Const' => 1,
                                          'InLine' => 2,
                                          'Line' => '40',
                                          'MnglName' => '_ZNK16IntMetadataValue6as_intEv',
                                          'Param' => {
                                                       '0' => {
                                                                'name' => 'this',
                                                                'type' => '159786'
                                                              }
                                                     },
                                          'Protected' => 1,
                                          'Return' => '132',
                                          'ShortName' => 'as_int',
                                          'Source' => 'metadata.cpp',
                                          'Virt' => 1,
                                          'VirtPos' => '5'
                                        },
                            '159182' => {
                                          'Class' => '159061',
                                          'Const' => 1,
                                          'InLine' => 2,
                                          'Line' => '52',
                                          'MnglName' => '_ZNK18FloatMetadataValue8is_floatEv',
                                          'Param' => {
                                                       '0' => {
                                                                'name' => 'this',
                                                                'type' => '159766'
                                                              }
                                                     },
                                          'Protected' => 1,
                                          'Return' => '2273',
                                          'ShortName' => 'is_float',
                                          'Source' => 'metadata.cpp',
                                          'Virt' => 1,
                                          'VirtPos' => '6'
                                        },
                            '159220' => {
                                          'Class' => '159061',
                                          'Const' => 1,
                                          'InLine' => 2,
                                          'Line' => '56',
                                          'MnglName' => '_ZNK18FloatMetadataValue8as_floatEv',
                                          'Param' => {
                                                       '0' => {
                                                                'name' => 'this',
                                                                'type' => '159766'
                                                              }
                                                     },
                                          'Protected' => 1,
                                          'Return' => '4641',
                                          'ShortName' => 'as_float',
                                          'Source' => 'metadata.cpp',
                                          'Virt' => 1,
                                          'VirtPos' => '7'
                                        },
                            '159969' => {
                                          'Constructor' => 1,
                                          'Header' => 'string',
                                          'Line' => '64',
                                          'MnglName' => '_ZN4zeno7reflect13simple_stringC1EOS1_',
                                          'Param' => {
                                                       '0' => {
                                                                'name' => 'this',
                                                                'type' => '89175'
                                                              },
                                                       '1' => {
                                                                'name' => 'other',
                                                                'type' => '159964'
                                                              }
                                                     }
                                        },
                            '160035' => {
                                          'Constructor' => 1,
                                          'Header' => 'string',
                                          'Line' => '60',
                                          'MnglName' => '_ZN4zeno7reflect13simple_stringC1EPKc',
                                          'Param' => {
                                                       '0' => {
                                                                'name' => 'this',
                                                                'type' => '89175'
                                                              },
                                                       '1' => {
                                                                'name' => 's',
                                                                'type' => '2344'
                                                              }
                                                     }
                                        },
                            '160607' => {
                                          'Artificial' => 1,
                                          'Class' => '126332',
                                          'Constructor' => 1,
                                          'Header' => 'tuple',
                                          'InLine' => 1,
                                          'Line' => '2872',
                                          'MnglName' => '_ZNSt4pairIKNSt7__cxx1112basic_stringIcSt11char_traitsIcESaIcEEEN4zeno7reflect9UniquePtrINS8_14IMetadataValueEEEEC2IJOS5_EJOSB_EEESt21piecewise_construct_tSt5tupleIJDpT_EESH_IJDpT0_EE',
                                          'Param' => {
                                                       '0' => {
                                                                'name' => 'this',
                                                                'type' => '157378'
                                                              },
                                                       '1' => {
                                                                'name' => 'p1',
                                                                'type' => '10210'
                                                              },
                                                       '2' => {
                                                                'name' => '__first',
                                                                'type' => '137086'
                                                              },
                                                       '3' => {
                                                                'name' => '__second',
                                                                'type' => '138051'
                                                              }
                                                     },
                                          'ShortName' => 'pair<std::__cxx11::basic_string<char>&&, zeno::reflect::UniquePtr<zeno::reflect::IMetadataValue>&&>',
                                          'TParam' => {
                                                        '0' => {
                                                                 'key' => undef,
                                                                 'type' => '50130'
                                                               },
                                                        '1' => {
                                                                 'key' => undef,
                                                                 'type' => '157313'
                                                               }
                                                      }
                                        },
                            '160608' => {
                                          'Artificial' => 1,
                                          'Class' => '126332',
                                          'Constructor' => 1,
                                          'Header' => 'tuple',
                                          'InLine' => 1,
                                          'Line' => '2872',
                                          'MnglName' => '_ZNSt4pairIKNSt7__cxx1112basic_stringIcSt11char_traitsIcESaIcEEEN4zeno7reflect9UniquePtrINS8_14IMetadataValueEEEEC1IJOS5_EJOSB_EEESt21piecewise_construct_tSt5tupleIJDpT_EESH_IJDpT0_EE',
                                          'Param' => {
                                                       '0' => {
                                                                'name' => 'this',
                                                                'type' => '157378'
                                                              },
                                                       '1' => {
                                                                'name' => 'p1',
                                                                'type' => '10210'
                                                              },
                                                       '2' => {
                                                                'name' => '__first',
                                                                'type' => '137086'
                                                              },
                                                       '3' => {
                                                                'name' => '__second',
                                                                'type' => '138051'
                                                              }
                                                     },
                                          'ShortName' => 'pair<std::__cxx11::basic_string<char>&&, zeno::reflect::UniquePtr<zeno::reflect::IMetadataValue>&&>',
                                          'TParam' => {
                                                        '0' => {
                                                                 'key' => undef,
                                                                 'type' => '50130'
                                                               },
                                                        '1' => {
                                                                 'key' => undef,
                                                                 'type' => '157313'
                                                               }
                                                      }
                                        },
                            '160833' => {
                                          'Artificial' => 1,
                                          'Class' => '126332',
                                          'Constructor' => 1,
                                          'Header' => 'tuple',
                                          'InLine' => 1,
                                          'Line' => '2884',
                                          'MnglName' => '_ZNSt4pairIKNSt7__cxx1112basic_stringIcSt11char_traitsIcESaIcEEEN4zeno7reflect9UniquePtrINS8_14IMetadataValueEEEEC2IJOS5_EJLm0EEJOSB_EJLm0EEEERSt5tupleIJDpT_EERSG_IJDpT1_EESt12_Index_tupleIJXspT0_EEESP_IJXspT2_EEE',
                                          'Param' => {
                                                       '0' => {
                                                                'name' => 'this',
                                                                'type' => '157378'
                                                              },
                                                       '1' => {
                                                                'name' => '__tuple1',
                                                                'type' => '159423'
                                                              },
                                                       '2' => {
                                                                'name' => '__tuple2',
                                                                'type' => '159498'
                                                              },
                                                       '3' => {
                                                                'name' => 'p3',
                                                                'type' => '39250'
                                                              },
                                                       '4' => {
                                                                'name' => 'p4',
                                                                'type' => '39250'
                                                              }
                                                     },
                                          'Private' => 1,
                                          'ShortName' => 'pair<std::__cxx11::basic_string<char>&&, 0(0), zeno::reflect::UniquePtr<zeno::reflect::IMetadataValue>&&, 0(0)>',
                                          'TParam' => {
                                                        '0' => {
                                                                 'key' => undef,
                                                                 'type' => '50130'
                                                               },
                                                        '1' => {
                                                                 'key' => undef,
                                                                 'type' => '51',
                                                                 'val' => '0 (0)'
                                                               },
                                                        '2' => {
                                                                 'key' => undef,
                                                                 'type' => '157313'
                                                               },
                                                        '3' => {
                                                                 'key' => undef,
                                                                 'type' => '51',
                                                                 'val' => '0 (0)'
                                                               }
                                                      }
                                        },
                            '160834' => {
                                          'Artificial' => 1,
                                          'Class' => '126332',
                                          'Constructor' => 1,
                                          'Header' => 'tuple',
                                          'InLine' => 1,
                                          'Line' => '2884',
                                          'MnglName' => '_ZNSt4pairIKNSt7__cxx1112basic_stringIcSt11char_traitsIcESaIcEEEN4zeno7reflect9UniquePtrINS8_14IMetadataValueEEEEC1IJOS5_EJLm0EEJOSB_EJLm0EEEERSt5tupleIJDpT_EERSG_IJDpT1_EESt12_Index_tupleIJXspT0_EEESP_IJXspT2_EEE',
                                          'Param' => {
                                                       '0' => {
                                                                'name' => 'this',
                                                                'type' => '157378'
                                                              },
                                                       '1' => {
                                                                'name' => '__tuple1',
                                                                'type' => '159423'
                                                              },
                                                       '2' => {
                                                                'name' => '__tuple2',
                                                                'type' => '159498'
                                                              },
                                                       '3' => {
                                                                'name' => 'p3',
                                                                'type' => '39250'
                                                              },
                                                       '4' => {
                                                                'name' => 'p4',
                                                                'type' => '39250'
                                                              }
                                                     },
                                          'Private' => 1,
                                          'ShortName' => 'pair<std::__cxx11::basic_string<char>&&, 0(0), zeno::reflect::UniquePtr<zeno::reflect::IMetadataValue>&&, 0(0)>',
                                          'TParam' => {
                                                        '0' => {
                                                                 'key' => undef,
                                                                 'type' => '50130'
                                                               },
                                                        '1' => {
                                                                 'key' => undef,
                                                                 'type' => '51',
                                                                 'val' => '0 (0)'
                                                               },
                                                        '2' => {
                                                                 'key' => undef,
                                                                 'type' => '157313'
                                                               },
                                                        '3' => {
                                                                 'key' => undef,
                                                                 'type' => '51',
                                                                 'val' => '0 (0)'
                                                               }
                                                      }
                                        },
                            '161236' => {
                                          'Artificial' => 1,
                                          'Class' => '137718',
                                          'Constructor' => 1,
                                          'Header' => 'tuple',
                                          'InLine' => 1,
                                          'Line' => '586',
                                          'MnglName' => '_ZNSt11_Tuple_implILm0EJON4zeno7reflect9UniquePtrINS1_14IMetadataValueEEEEEC2EOS6_',
                                          'Param' => {
                                                       '0' => {
                                                                'name' => 'this',
                                                                'type' => '159468'
                                                              },
                                                       '1' => {
                                                                'name' => '__in',
                                                                'type' => '159473'
                                                              }
                                                     },
                                          'ShortName' => '_Tuple_impl'
                                        },
                            '161237' => {
                                          'Artificial' => 1,
                                          'Class' => '137718',
                                          'Constructor' => 1,
                                          'Header' => 'tuple',
                                          'InLine' => 1,
                                          'Line' => '586',
                                          'MnglName' => '_ZNSt11_Tuple_implILm0EJON4zeno7reflect9UniquePtrINS1_14IMetadataValueEEEEEC1EOS6_',
                                          'Param' => {
                                                       '0' => {
                                                                'name' => 'this',
                                                                'type' => '159468'
                                                              },
                                                       '1' => {
                                                                'name' => '__in',
                                                                'type' => '159473'
                                                              }
                                                     },
                                          'ShortName' => '_Tuple_impl'
                                        },
                            '161325' => {
                                          'Artificial' => 1,
                                          'Class' => '136753',
                                          'Constructor' => 1,
                                          'Header' => 'tuple',
                                          'InLine' => 1,
                                          'Line' => '586',
                                          'MnglName' => '_ZNSt11_Tuple_implILm0EJONSt7__cxx1112basic_stringIcSt11char_traitsIcESaIcEEEEEC2EOS7_',
                                          'Param' => {
                                                       '0' => {
                                                                'name' => 'this',
                                                                'type' => '159393'
                                                              },
                                                       '1' => {
                                                                'name' => '__in',
                                                                'type' => '159398'
                                                              }
                                                     },
                                          'ShortName' => '_Tuple_impl'
                                        },
                            '161326' => {
                                          'Artificial' => 1,
                                          'Class' => '136753',
                                          'Constructor' => 1,
                                          'Header' => 'tuple',
                                          'InLine' => 1,
                                          'Line' => '586',
                                          'MnglName' => '_ZNSt11_Tuple_implILm0EJONSt7__cxx1112basic_stringIcSt11char_traitsIcESaIcEEEEEC1EOS7_',
                                          'Param' => {
                                                       '0' => {
                                                                'name' => 'this',
                                                                'type' => '159393'
                                                              },
                                                       '1' => {
                                                                'name' => '__in',
                                                                'type' => '159398'
                                                              }
                                                     },
                                          'ShortName' => '_Tuple_impl'
                                        },
                            '161665' => {
                                          'Artificial' => 1,
                                          'Class' => '138051',
                                          'Constructor' => 1,
                                          'Header' => 'tuple',
                                          'InLine' => 1,
                                          'Line' => '995',
                                          'MnglName' => '_ZNSt5tupleIJON4zeno7reflect9UniquePtrINS1_14IMetadataValueEEEEEC2EOS6_',
                                          'Param' => {
                                                       '0' => {
                                                                'name' => 'this',
                                                                'type' => '159483'
                                                              },
                                                       '1' => {
                                                                'name' => 'p1',
                                                                'type' => '159493'
                                                              }
                                                     },
                                          'ShortName' => 'tuple'
                                        },
                            '161666' => {
                                          'Artificial' => 1,
                                          'Class' => '138051',
                                          'Constructor' => 1,
                                          'Header' => 'tuple',
                                          'InLine' => 1,
                                          'Line' => '995',
                                          'MnglName' => '_ZNSt5tupleIJON4zeno7reflect9UniquePtrINS1_14IMetadataValueEEEEEC1EOS6_',
                                          'Param' => {
                                                       '0' => {
                                                                'name' => 'this',
                                                                'type' => '159483'
                                                              },
                                                       '1' => {
                                                                'name' => 'p1',
                                                                'type' => '159493'
                                                              }
                                                     },
                                          'ShortName' => 'tuple'
                                        },
                            '161746' => {
                                          'Artificial' => 1,
                                          'Class' => '137086',
                                          'Constructor' => 1,
                                          'Header' => 'tuple',
                                          'InLine' => 1,
                                          'Line' => '995',
                                          'MnglName' => '_ZNSt5tupleIJONSt7__cxx1112basic_stringIcSt11char_traitsIcESaIcEEEEEC2EOS7_',
                                          'Param' => {
                                                       '0' => {
                                                                'name' => 'this',
                                                                'type' => '159408'
                                                              },
                                                       '1' => {
                                                                'name' => 'p1',
                                                                'type' => '159418'
                                                              }
                                                     },
                                          'ShortName' => 'tuple'
                                        },
                            '161747' => {
                                          'Artificial' => 1,
                                          'Class' => '137086',
                                          'Constructor' => 1,
                                          'Header' => 'tuple',
                                          'InLine' => 1,
                                          'Line' => '995',
                                          'MnglName' => '_ZNSt5tupleIJONSt7__cxx1112basic_stringIcSt11char_traitsIcESaIcEEEEEC1EOS7_',
                                          'Param' => {
                                                       '0' => {
                                                                'name' => 'this',
                                                                'type' => '159408'
                                                              },
                                                       '1' => {
                                                                'name' => 'p1',
                                                                'type' => '159418'
                                                              }
                                                     },
                                          'ShortName' => 'tuple'
                                        },
                            '162371' => {
                                          'Artificial' => 1,
                                          'Class' => '14452',
                                          'Constructor' => 1,
                                          'Header' => 'stl_pair.h',
                                          'InLine' => 1,
                                          'Line' => '442',
                                          'MnglName' => '_ZNSt4pairIPSt18_Rb_tree_node_baseS1_EC2IRPSt13_Rb_tree_nodeIS_IKNSt7__cxx1112basic_stringIcSt11char_traitsIcESaIcEEEN4zeno7reflect9UniquePtrINSD_14IMetadataValueEEEEERS1_EEOT_OT0_',
                                          'Param' => {
                                                       '0' => {
                                                                'name' => 'this',
                                                                'type' => '49541'
                                                              },
                                                       '1' => {
                                                                'name' => '__x',
                                                                'type' => '161834'
                                                              },
                                                       '2' => {
                                                                'name' => '__y',
                                                                'type' => '53315'
                                                              }
                                                     },
                                          'ShortName' => 'pair<std::_Rb_tree_node<std::pair<std::__cxx11::basic_string<char>const, zeno::reflect::UniquePtr<zeno::reflect::IMetadataValue> > >*&, std::_Rb_tree_node_base*&>',
                                          'TParam' => {
                                                        '0' => {
                                                                 'key' => '_U1',
                                                                 'type' => '161834'
                                                               },
                                                        '1' => {
                                                                 'key' => '_U2',
                                                                 'type' => '53315'
                                                               }
                                                      }
                                        },
                            '162372' => {
                                          'Artificial' => 1,
                                          'Class' => '14452',
                                          'Constructor' => 1,
                                          'Header' => 'stl_pair.h',
                                          'InLine' => 1,
                                          'Line' => '442',
                                          'MnglName' => '_ZNSt4pairIPSt18_Rb_tree_node_baseS1_EC1IRPSt13_Rb_tree_nodeIS_IKNSt7__cxx1112basic_stringIcSt11char_traitsIcESaIcEEEN4zeno7reflect9UniquePtrINSD_14IMetadataValueEEEEERS1_EEOT_OT0_',
                                          'Param' => {
                                                       '0' => {
                                                                'name' => 'this',
                                                                'type' => '49541'
                                                              },
                                                       '1' => {
                                                                'name' => '__x',
                                                                'type' => '161834'
                                                              },
                                                       '2' => {
                                                                'name' => '__y',
                                                                'type' => '53315'
                                                              }
                                                     },
                                          'ShortName' => 'pair<std::_Rb_tree_node<std::pair<std::__cxx11::basic_string<char>const, zeno::reflect::UniquePtr<zeno::reflect::IMetadataValue> > >*&, std::_Rb_tree_node_base*&>',
                                          'TParam' => {
                                                        '0' => {
                                                                 'key' => '_U1',
                                                                 'type' => '161834'
                                                               },
                                                        '1' => {
                                                                 'key' => '_U2',
                                                                 'type' => '53315'
                                                               }
                                                      }
                                        },
                            '162974' => {
                                          'Artificial' => 1,
                                          'Class' => '126332',
                                          'Destructor' => 1,
                                          'Header' => 'stl_pair.h',
                                          'InLine' => 1,
                                          'Line' => '284',
                                          'MnglName' => '_ZNSt4pairIKNSt7__cxx1112basic_stringIcSt11char_traitsIcESaIcEEEN4zeno7reflect9UniquePtrINS8_14IMetadataValueEEEED2Ev',
                                          'Param' => {
                                                       '0' => {
                                                                'name' => 'this',
                                                                'type' => '157378'
                                                              }
                                                     },
                                          'ShortName' => 'pair'
                                        },
                            '162975' => {
                                          'Artificial' => 1,
                                          'Class' => '126332',
                                          'Destructor' => 1,
                                          'Header' => 'stl_pair.h',
                                          'InLine' => 1,
                                          'Line' => '284',
                                          'MnglName' => '_ZNSt4pairIKNSt7__cxx1112basic_stringIcSt11char_traitsIcESaIcEEEN4zeno7reflect9UniquePtrINS8_14IMetadataValueEEEED0Ev',
                                          'Param' => {
                                                       '0' => {
                                                                'name' => 'this',
                                                                'type' => '157378'
                                                              }
                                                     },
                                          'ShortName' => 'pair'
                                        },
                            '164056' => {
                                          'Artificial' => 1,
                                          'Class' => '137422',
                                          'Constructor' => 1,
                                          'Header' => 'tuple',
                                          'InLine' => 1,
                                          'Line' => '208',
                                          'MnglName' => '_ZNSt10_Head_baseILm0EON4zeno7reflect9UniquePtrINS1_14IMetadataValueEEELb0EEC2IS4_EEOT_',
                                          'Param' => {
                                                       '0' => {
                                                                'name' => 'this',
                                                                'type' => '159433'
                                                              },
                                                       '1' => {
                                                                'name' => '__h',
                                                                'type' => '157313'
                                                              }
                                                     },
                                          'ShortName' => '_Head_base<zeno::reflect::UniquePtr<zeno::reflect::IMetadataValue> >',
                                          'TParam' => {
                                                        '0' => {
                                                                 'key' => '_UHead',
                                                                 'type' => '152050'
                                                               }
                                                      }
                                        },
                            '164057' => {
                                          'Artificial' => 1,
                                          'Class' => '137422',
                                          'Constructor' => 1,
                                          'Header' => 'tuple',
                                          'InLine' => 1,
                                          'Line' => '208',
                                          'MnglName' => '_ZNSt10_Head_baseILm0EON4zeno7reflect9UniquePtrINS1_14IMetadataValueEEELb0EEC1IS4_EEOT_',
                                          'Param' => {
                                                       '0' => {
                                                                'name' => 'this',
                                                                'type' => '159433'
                                                              },
                                                       '1' => {
                                                                'name' => '__h',
                                                                'type' => '157313'
                                                              }
                                                     },
                                          'ShortName' => '_Head_base<zeno::reflect::UniquePtr<zeno::reflect::IMetadataValue> >',
                                          'TParam' => {
                                                        '0' => {
                                                                 'key' => '_UHead',
                                                                 'type' => '152050'
                                                               }
                                                      }
                                        },
                            '164162' => {
                                          'Artificial' => 1,
                                          'Class' => '136457',
                                          'Constructor' => 1,
                                          'Header' => 'tuple',
                                          'InLine' => 1,
                                          'Line' => '208',
                                          'MnglName' => '_ZNSt10_Head_baseILm0EONSt7__cxx1112basic_stringIcSt11char_traitsIcESaIcEEELb0EEC2IS5_EEOT_',
                                          'Param' => {
                                                       '0' => {
                                                                'name' => 'this',
                                                                'type' => '159358'
                                                              },
                                                       '1' => {
                                                                'name' => '__h',
                                                                'type' => '50130'
                                                              }
                                                     },
                                          'ShortName' => '_Head_base<std::__cxx11::basic_string<char> >',
                                          'TParam' => {
                                                        '0' => {
                                                                 'key' => '_UHead',
                                                                 'type' => '18465'
                                                               }
                                                      }
                                        },
                            '164163' => {
                                          'Artificial' => 1,
                                          'Class' => '136457',
                                          'Constructor' => 1,
                                          'Header' => 'tuple',
                                          'InLine' => 1,
                                          'Line' => '208',
                                          'MnglName' => '_ZNSt10_Head_baseILm0EONSt7__cxx1112basic_stringIcSt11char_traitsIcESaIcEEELb0EEC1IS5_EEOT_',
                                          'Param' => {
                                                       '0' => {
                                                                'name' => 'this',
                                                                'type' => '159358'
                                                              },
                                                       '1' => {
                                                                'name' => '__h',
                                                                'type' => '50130'
                                                              }
                                                     },
                                          'ShortName' => '_Head_base<std::__cxx11::basic_string<char> >',
                                          'TParam' => {
                                                        '0' => {
                                                                 'key' => '_UHead',
                                                                 'type' => '18465'
                                                               }
                                                      }
                                        },
                            '165094' => {
                                          'Artificial' => 1,
                                          'Class' => '131942',
                                          'Destructor' => 1,
                                          'Header' => 'stl_tree.h',
                                          'InLine' => 1,
                                          'Line' => '1636',
                                          'MnglName' => '_ZNSt8_Rb_treeINSt7__cxx1112basic_stringIcSt11char_traitsIcESaIcEEESt4pairIKS5_N4zeno7reflect9UniquePtrINS9_14IMetadataValueEEEESt10_Select1stISD_ESt4lessIS5_ESaISD_EE10_Auto_nodeD2Ev',
                                          'Param' => {
                                                       '0' => {
                                                                'name' => 'this',
                                                                'type' => '159613'
                                                              }
                                                     },
                                          'ShortName' => '_Auto_node'
                                        },
                            '165095' => {
                                          'Artificial' => 1,
                                          'Class' => '131942',
                                          'Destructor' => 1,
                                          'Header' => 'stl_tree.h',
                                          'InLine' => 1,
                                          'Line' => '1636',
                                          'MnglName' => '_ZNSt8_Rb_treeINSt7__cxx1112basic_stringIcSt11char_traitsIcESaIcEEESt4pairIKS5_N4zeno7reflect9UniquePtrINS9_14IMetadataValueEEEESt10_Select1stISD_ESt4lessIS5_ESaISD_EE10_Auto_nodeD0Ev',
                                          'Param' => {
                                                       '0' => {
                                                                'name' => 'this',
                                                                'type' => '159613'
                                                              }
                                                     },
                                          'ShortName' => '_Auto_node'
                                        },
                            '165221' => {
                                          'Artificial' => 1,
                                          'Class' => '131942',
                                          'Constructor' => 1,
                                          'Header' => 'stl_tree.h',
                                          'InLine' => 1,
                                          'Line' => '1631',
                                          'MnglName' => '_ZNSt8_Rb_treeINSt7__cxx1112basic_stringIcSt11char_traitsIcESaIcEEESt4pairIKS5_N4zeno7reflect9UniquePtrINS9_14IMetadataValueEEEESt10_Select1stISD_ESt4lessIS5_ESaISD_EE10_Auto_nodeC2IJRKSt21piecewise_construct_tSt5tupleIJOS5_EESP_IJOSC_EEEEERSJ_DpOT_',
                                          'Param' => {
                                                       '0' => {
                                                                'name' => 'this',
                                                                'type' => '159613'
                                                              },
                                                       '1' => {
                                                                'name' => '__t',
                                                                'type' => '157603'
                                                              },
                                                       '2' => {
                                                                'name' => 'p2',
                                                                'type' => '52689'
                                                              },
                                                       '3' => {
                                                                'name' => 'p3',
                                                                'type' => '159418'
                                                              },
                                                       '4' => {
                                                                'name' => 'p4',
                                                                'type' => '159493'
                                                              }
                                                     },
                                          'ShortName' => '_Auto_node<std::piecewise_construct_t const&>',
                                          'TParam' => {
                                                        '0' => {
                                                                 'key' => undef,
                                                                 'type' => '52689'
                                                               }
                                                      }
                                        },
                            '165222' => {
                                          'Artificial' => 1,
                                          'Class' => '131942',
                                          'Constructor' => 1,
                                          'Header' => 'stl_tree.h',
                                          'InLine' => 1,
                                          'Line' => '1631',
                                          'MnglName' => '_ZNSt8_Rb_treeINSt7__cxx1112basic_stringIcSt11char_traitsIcESaIcEEESt4pairIKS5_N4zeno7reflect9UniquePtrINS9_14IMetadataValueEEEESt10_Select1stISD_ESt4lessIS5_ESaISD_EE10_Auto_nodeC1IJRKSt21piecewise_construct_tSt5tupleIJOS5_EESP_IJOSC_EEEEERSJ_DpOT_',
                                          'Param' => {
                                                       '0' => {
                                                                'name' => 'this',
                                                                'type' => '159613'
                                                              },
                                                       '1' => {
                                                                'name' => '__t',
                                                                'type' => '157603'
                                                              },
                                                       '2' => {
                                                                'name' => 'p2',
                                                                'type' => '52689'
                                                              },
                                                       '3' => {
                                                                'name' => 'p3',
                                                                'type' => '159418'
                                                              },
                                                       '4' => {
                                                                'name' => 'p4',
                                                                'type' => '159493'
                                                              }
                                                     },
                                          'ShortName' => '_Auto_node<std::piecewise_construct_t const&>',
                                          'TParam' => {
                                                        '0' => {
                                                                 'key' => undef,
                                                                 'type' => '52689'
                                                               }
                                                      }
                                        },
                            '165375' => {
                                          'Artificial' => 1,
                                          'Class' => '137718',
                                          'Constructor' => 1,
                                          'Header' => 'tuple',
                                          'InLine' => 1,
                                          'Line' => '572',
                                          'MnglName' => '_ZNSt11_Tuple_implILm0EJON4zeno7reflect9UniquePtrINS1_14IMetadataValueEEEEEC2IS4_EEOT_',
                                          'Param' => {
                                                       '0' => {
                                                                'name' => 'this',
                                                                'type' => '159468'
                                                              },
                                                       '1' => {
                                                                'name' => '__head',
                                                                'type' => '157313'
                                                              }
                                                     },
                                          'ShortName' => '_Tuple_impl<zeno::reflect::UniquePtr<zeno::reflect::IMetadataValue> >',
                                          'TParam' => {
                                                        '0' => {
                                                                 'key' => '_UHead',
                                                                 'type' => '152050'
                                                               }
                                                      }
                                        },
                            '165376' => {
                                          'Artificial' => 1,
                                          'Class' => '137718',
                                          'Constructor' => 1,
                                          'Header' => 'tuple',
                                          'InLine' => 1,
                                          'Line' => '572',
                                          'MnglName' => '_ZNSt11_Tuple_implILm0EJON4zeno7reflect9UniquePtrINS1_14IMetadataValueEEEEEC1IS4_EEOT_',
                                          'Param' => {
                                                       '0' => {
                                                                'name' => 'this',
                                                                'type' => '159468'
                                                              },
                                                       '1' => {
                                                                'name' => '__head',
                                                                'type' => '157313'
                                                              }
                                                     },
                                          'ShortName' => '_Tuple_impl<zeno::reflect::UniquePtr<zeno::reflect::IMetadataValue> >',
                                          'TParam' => {
                                                        '0' => {
                                                                 'key' => '_UHead',
                                                                 'type' => '152050'
                                                               }
                                                      }
                                        },
                            '165482' => {
                                          'Artificial' => 1,
                                          'Class' => '136753',
                                          'Constructor' => 1,
                                          'Header' => 'tuple',
                                          'InLine' => 1,
                                          'Line' => '572',
                                          'MnglName' => '_ZNSt11_Tuple_implILm0EJONSt7__cxx1112basic_stringIcSt11char_traitsIcESaIcEEEEEC2IS5_EEOT_',
                                          'Param' => {
                                                       '0' => {
                                                                'name' => 'this',
                                                                'type' => '159393'
                                                              },
                                                       '1' => {
                                                                'name' => '__head',
                                                                'type' => '50130'
                                                              }
                                                     },
                                          'ShortName' => '_Tuple_impl<std::__cxx11::basic_string<char> >',
                                          'TParam' => {
                                                        '0' => {
                                                                 'key' => '_UHead',
                                                                 'type' => '18465'
                                                               }
                                                      }
                                        },
                            '165483' => {
                                          'Artificial' => 1,
                                          'Class' => '136753',
                                          'Constructor' => 1,
                                          'Header' => 'tuple',
                                          'InLine' => 1,
                                          'Line' => '572',
                                          'MnglName' => '_ZNSt11_Tuple_implILm0EJONSt7__cxx1112basic_stringIcSt11char_traitsIcESaIcEEEEEC1IS5_EEOT_',
                                          'Param' => {
                                                       '0' => {
                                                                'name' => 'this',
                                                                'type' => '159393'
                                                              },
                                                       '1' => {
                                                                'name' => '__head',
                                                                'type' => '50130'
                                                              }
                                                     },
                                          'ShortName' => '_Tuple_impl<std::__cxx11::basic_string<char> >',
                                          'TParam' => {
                                                        '0' => {
                                                                 'key' => '_UHead',
                                                                 'type' => '18465'
                                                               }
                                                      }
                                        },
                            '165823' => {
                                          'Artificial' => 1,
                                          'Class' => '132943',
                                          'Constructor' => 1,
                                          'Header' => 'stl_tree.h',
                                          'InLine' => 1,
                                          'Line' => '269',
                                          'MnglName' => '_ZNSt17_Rb_tree_iteratorISt4pairIKNSt7__cxx1112basic_stringIcSt11char_traitsIcESaIcEEEN4zeno7reflect9UniquePtrINS9_14IMetadataValueEEEEEC2EPSt18_Rb_tree_node_base',
                                          'Param' => {
                                                       '0' => {
                                                                'name' => 'this',
                                                                'type' => '157743'
                                                              },
                                                       '1' => {
                                                                'name' => '__x',
                                                                'type' => '133015'
                                                              }
                                                     },
                                          'ShortName' => '_Rb_tree_iterator'
                                        },
                            '165824' => {
                                          'Artificial' => 1,
                                          'Class' => '132943',
                                          'Constructor' => 1,
                                          'Header' => 'stl_tree.h',
                                          'InLine' => 1,
                                          'Line' => '269',
                                          'MnglName' => '_ZNSt17_Rb_tree_iteratorISt4pairIKNSt7__cxx1112basic_stringIcSt11char_traitsIcESaIcEEEN4zeno7reflect9UniquePtrINS9_14IMetadataValueEEEEEC1EPSt18_Rb_tree_node_base',
                                          'Param' => {
                                                       '0' => {
                                                                'name' => 'this',
                                                                'type' => '157743'
                                                              },
                                                       '1' => {
                                                                'name' => '__x',
                                                                'type' => '133015'
                                                              }
                                                     },
                                          'ShortName' => '_Rb_tree_iterator'
                                        },
                            '167116' => {
                                          'Artificial' => 1,
                                          'Class' => '151106',
                                          'Constructor' => 1,
                                          'Header' => 'arraylist',
                                          'InLine' => 1,
                                          'Line' => '45',
                                          'MnglName' => '_ZN4zeno7reflect9ArrayListINS0_9UniquePtrINS0_14IMetadataValueEEEEC2ESt16initializer_listIS4_E',
                                          'Param' => {
                                                       '0' => {
                                                                'name' => 'this',
                                                                'type' => '157283'
                                                              },
                                                       '1' => {
                                                                'name' => 'init',
                                                                'type' => '125812'
                                                              }
                                                     },
                                          'ShortName' => 'ArrayList'
                                        },
                            '167117' => {
                                          'Artificial' => 1,
                                          'Class' => '151106',
                                          'Constructor' => 1,
                                          'Header' => 'arraylist',
                                          'InLine' => 1,
                                          'Line' => '45',
                                          'MnglName' => '_ZN4zeno7reflect9ArrayListINS0_9UniquePtrINS0_14IMetadataValueEEEEC1ESt16initializer_listIS4_E',
                                          'Param' => {
                                                       '0' => {
                                                                'name' => 'this',
                                                                'type' => '157283'
                                                              },
                                                       '1' => {
                                                                'name' => 'init',
                                                                'type' => '125812'
                                                              }
                                                     },
                                          'ShortName' => 'ArrayList'
                                        },
                            '167800' => {
                                          'Artificial' => 1,
                                          'Class' => '138051',
                                          'Constructor' => 1,
                                          'Header' => 'tuple',
                                          'InLine' => 1,
                                          'Line' => '982',
                                          'MnglName' => '_ZNSt5tupleIJON4zeno7reflect9UniquePtrINS1_14IMetadataValueEEEEEC2IJS4_EEEDpOT_',
                                          'Param' => {
                                                       '0' => {
                                                                'name' => 'this',
                                                                'type' => '159483'
                                                              },
                                                       '1' => {
                                                                'name' => 'p1',
                                                                'type' => '157313'
                                                              }
                                                     },
                                          'ShortName' => 'tuple<zeno::reflect::UniquePtr<zeno::reflect::IMetadataValue> >',
                                          'TParam' => {
                                                        '0' => {
                                                                 'key' => undef,
                                                                 'type' => '152050'
                                                               }
                                                      }
                                        },
                            '167801' => {
                                          'Artificial' => 1,
                                          'Class' => '138051',
                                          'Constructor' => 1,
                                          'Header' => 'tuple',
                                          'InLine' => 1,
                                          'Line' => '982',
                                          'MnglName' => '_ZNSt5tupleIJON4zeno7reflect9UniquePtrINS1_14IMetadataValueEEEEEC1IJS4_EEEDpOT_',
                                          'Param' => {
                                                       '0' => {
                                                                'name' => 'this',
                                                                'type' => '159483'
                                                              },
                                                       '1' => {
                                                                'name' => 'p1',
                                                                'type' => '157313'
                                                              }
                                                     },
                                          'ShortName' => 'tuple<zeno::reflect::UniquePtr<zeno::reflect::IMetadataValue> >',
                                          'TParam' => {
                                                        '0' => {
                                                                 'key' => undef,
                                                                 'type' => '152050'
                                                               }
                                                      }
                                        },
                            '167923' => {
                                          'Artificial' => 1,
                                          'Class' => '137086',
                                          'Constructor' => 1,
                                          'Header' => 'tuple',
                                          'InLine' => 1,
                                          'Line' => '982',
                                          'MnglName' => '_ZNSt5tupleIJONSt7__cxx1112basic_stringIcSt11char_traitsIcESaIcEEEEEC2IJS5_EEEDpOT_',
                                          'Param' => {
                                                       '0' => {
                                                                'name' => 'this',
                                                                'type' => '159408'
                                                              },
                                                       '1' => {
                                                                'name' => 'p1',
                                                                'type' => '50130'
                                                              }
                                                     },
                                          'ShortName' => 'tuple<std::__cxx11::basic_string<char> >',
                                          'TParam' => {
                                                        '0' => {
                                                                 'key' => undef,
                                                                 'type' => '18465'
                                                               }
                                                      }
                                        },
                            '167924' => {
                                          'Artificial' => 1,
                                          'Class' => '137086',
                                          'Constructor' => 1,
                                          'Header' => 'tuple',
                                          'InLine' => 1,
                                          'Line' => '982',
                                          'MnglName' => '_ZNSt5tupleIJONSt7__cxx1112basic_stringIcSt11char_traitsIcESaIcEEEEEC1IJS5_EEEDpOT_',
                                          'Param' => {
                                                       '0' => {
                                                                'name' => 'this',
                                                                'type' => '159408'
                                                              },
                                                       '1' => {
                                                                'name' => 'p1',
                                                                'type' => '50130'
                                                              }
                                                     },
                                          'ShortName' => 'tuple<std::__cxx11::basic_string<char> >',
                                          'TParam' => {
                                                        '0' => {
                                                                 'key' => undef,
                                                                 'type' => '18465'
                                                               }
                                                      }
                                        },
                            '168413' => {
                                          'Artificial' => 1,
                                          'Class' => '132494',
                                          'Constructor' => 1,
                                          'Header' => 'stl_tree.h',
                                          'InLine' => 1,
                                          'Line' => '343',
                                          'MnglName' => '_ZNSt23_Rb_tree_const_iteratorISt4pairIKNSt7__cxx1112basic_stringIcSt11char_traitsIcESaIcEEEN4zeno7reflect9UniquePtrINS9_14IMetadataValueEEEEEC2EPKSt18_Rb_tree_node_base',
                                          'Param' => {
                                                       '0' => {
                                                                'name' => 'this',
                                                                'type' => '157698'
                                                              },
                                                       '1' => {
                                                                'name' => '__x',
                                                                'type' => '132567'
                                                              }
                                                     },
                                          'ShortName' => '_Rb_tree_const_iterator'
                                        },
                            '168414' => {
                                          'Artificial' => 1,
                                          'Class' => '132494',
                                          'Constructor' => 1,
                                          'Header' => 'stl_tree.h',
                                          'InLine' => 1,
                                          'Line' => '343',
                                          'MnglName' => '_ZNSt23_Rb_tree_const_iteratorISt4pairIKNSt7__cxx1112basic_stringIcSt11char_traitsIcESaIcEEEN4zeno7reflect9UniquePtrINS9_14IMetadataValueEEEEEC1EPKSt18_Rb_tree_node_base',
                                          'Param' => {
                                                       '0' => {
                                                                'name' => 'this',
                                                                'type' => '157698'
                                                              },
                                                       '1' => {
                                                                'name' => '__x',
                                                                'type' => '132567'
                                                              }
                                                     },
                                          'ShortName' => '_Rb_tree_const_iterator'
                                        },
                            '168907' => {
                                          'Artificial' => 1,
                                          'Class' => '127569',
                                          'Constructor' => 1,
                                          'Header' => 'new_allocator.h',
                                          'InLine' => 1,
                                          'Line' => '88',
                                          'MnglName' => '_ZNSt15__new_allocatorISt13_Rb_tree_nodeISt4pairIKNSt7__cxx1112basic_stringIcSt11char_traitsIcESaIcEEEN4zeno7reflect9UniquePtrINSA_14IMetadataValueEEEEEEC2Ev',
                                          'Param' => {
                                                       '0' => {
                                                                'name' => 'this',
                                                                'type' => '157423'
                                                              }
                                                     },
                                          'ShortName' => '__new_allocator'
                                        },
                            '168908' => {
                                          'Artificial' => 1,
                                          'Class' => '127569',
                                          'Constructor' => 1,
                                          'Header' => 'new_allocator.h',
                                          'InLine' => 1,
                                          'Line' => '88',
                                          'MnglName' => '_ZNSt15__new_allocatorISt13_Rb_tree_nodeISt4pairIKNSt7__cxx1112basic_stringIcSt11char_traitsIcESaIcEEEN4zeno7reflect9UniquePtrINSA_14IMetadataValueEEEEEEC1Ev',
                                          'Param' => {
                                                       '0' => {
                                                                'name' => 'this',
                                                                'type' => '157423'
                                                              }
                                                     },
                                          'ShortName' => '__new_allocator'
                                        },
                            '169530' => {
                                          'Artificial' => 1,
                                          'Class' => '155780',
                                          'Constructor' => 1,
                                          'Header' => 'unique_ptr',
                                          'InLine' => 1,
                                          'Line' => '17',
                                          'MnglName' => '_ZN4zeno7reflect9UniquePtrI18FloatMetadataValueEC2IS2_EEPT_',
                                          'Param' => {
                                                       '0' => {
                                                                'name' => 'this',
                                                                'type' => '159041'
                                                              },
                                                       '1' => {
                                                                'name' => 'p',
                                                                'type' => '159302'
                                                              }
                                                     },
                                          'ShortName' => 'UniquePtr<FloatMetadataValue>',
                                          'TParam' => {
                                                        '0' => {
                                                                 'key' => 'U',
                                                                 'type' => '159061'
                                                               }
                                                      }
                                        },
                            '169531' => {
                                          'Artificial' => 1,
                                          'Class' => '155780',
                                          'Constructor' => 1,
                                          'Header' => 'unique_ptr',
                                          'InLine' => 1,
                                          'Line' => '17',
                                          'MnglName' => '_ZN4zeno7reflect9UniquePtrI18FloatMetadataValueEC1IS2_EEPT_',
                                          'Param' => {
                                                       '0' => {
                                                                'name' => 'this',
                                                                'type' => '159041'
                                                              },
                                                       '1' => {
                                                                'name' => 'p',
                                                                'type' => '159302'
                                                              }
                                                     },
                                          'ShortName' => 'UniquePtr<FloatMetadataValue>',
                                          'TParam' => {
                                                        '0' => {
                                                                 'key' => 'U',
                                                                 'type' => '159061'
                                                               }
                                                      }
                                        },
                            '169692' => {
                                          'Artificial' => 1,
                                          'Class' => '155320',
                                          'Constructor' => 1,
                                          'Header' => 'unique_ptr',
                                          'InLine' => 1,
                                          'Line' => '17',
                                          'MnglName' => '_ZN4zeno7reflect9UniquePtrI16IntMetadataValueEC2IS2_EEPT_',
                                          'Param' => {
                                                       '0' => {
                                                                'name' => 'this',
                                                                'type' => '158765'
                                                              },
                                                       '1' => {
                                                                'name' => 'p',
                                                                'type' => '159026'
                                                              }
                                                     },
                                          'ShortName' => 'UniquePtr<IntMetadataValue>',
                                          'TParam' => {
                                                        '0' => {
                                                                 'key' => 'U',
                                                                 'type' => '158785'
                                                               }
                                                      }
                                        },
                            '169693' => {
                                          'Artificial' => 1,
                                          'Class' => '155320',
                                          'Constructor' => 1,
                                          'Header' => 'unique_ptr',
                                          'InLine' => 1,
                                          'Line' => '17',
                                          'MnglName' => '_ZN4zeno7reflect9UniquePtrI16IntMetadataValueEC1IS2_EEPT_',
                                          'Param' => {
                                                       '0' => {
                                                                'name' => 'this',
                                                                'type' => '158765'
                                                              },
                                                       '1' => {
                                                                'name' => 'p',
                                                                'type' => '159026'
                                                              }
                                                     },
                                          'ShortName' => 'UniquePtr<IntMetadataValue>',
                                          'TParam' => {
                                                        '0' => {
                                                                 'key' => 'U',
                                                                 'type' => '158785'
                                                               }
                                                      }
                                        },
                            '169846' => {
                                          'Artificial' => 1,
                                          'Class' => '151106',
                                          'Destructor' => 1,
                                          'Header' => 'arraylist',
                                          'InLine' => 1,
                                          'Line' => '51',
                                          'MnglName' => '_ZN4zeno7reflect9ArrayListINS0_9UniquePtrINS0_14IMetadataValueEEEED2Ev',
                                          'Param' => {
                                                       '0' => {
                                                                'name' => 'this',
                                                                'type' => '157283'
                                                              }
                                                     },
                                          'ShortName' => 'ArrayList'
                                        },
                            '169847' => {
                                          'Artificial' => 1,
                                          'Class' => '151106',
                                          'Destructor' => 1,
                                          'Header' => 'arraylist',
                                          'InLine' => 1,
                                          'Line' => '51',
                                          'MnglName' => '_ZN4zeno7reflect9ArrayListINS0_9UniquePtrINS0_14IMetadataValueEEEED0Ev',
                                          'Param' => {
                                                       '0' => {
                                                                'name' => 'this',
                                                                'type' => '157283'
                                                              }
                                                     },
                                          'ShortName' => 'ArrayList'
                                        },
                            '169931' => {
                                          'Artificial' => 1,
                                          'Class' => '154860',
                                          'Constructor' => 1,
                                          'Header' => 'unique_ptr',
                                          'InLine' => 1,
                                          'Line' => '17',
                                          'MnglName' => '_ZN4zeno7reflect9UniquePtrI30HeterogeneousListMetadataValueEC2IS2_EEPT_',
                                          'Param' => {
                                                       '0' => {
                                                                'name' => 'this',
                                                                'type' => '158406'
                                                              },
                                                       '1' => {
                                                                'name' => 'p',
                                                                'type' => '158750'
                                                              }
                                                     },
                                          'ShortName' => 'UniquePtr<HeterogeneousListMetadataValue>',
                                          'TParam' => {
                                                        '0' => {
                                                                 'key' => 'U',
                                                                 'type' => '158426'
                                                               }
                                                      }
                                        },
                            '169932' => {
                                          'Artificial' => 1,
                                          'Class' => '154860',
                                          'Constructor' => 1,
                                          'Header' => 'unique_ptr',
                                          'InLine' => 1,
                                          'Line' => '17',
                                          'MnglName' => '_ZN4zeno7reflect9UniquePtrI30HeterogeneousListMetadataValueEC1IS2_EEPT_',
                                          'Param' => {
                                                       '0' => {
                                                                'name' => 'this',
                                                                'type' => '158406'
                                                              },
                                                       '1' => {
                                                                'name' => 'p',
                                                                'type' => '158750'
                                                              }
                                                     },
                                          'ShortName' => 'UniquePtr<HeterogeneousListMetadataValue>',
                                          'TParam' => {
                                                        '0' => {
                                                                 'key' => 'U',
                                                                 'type' => '158426'
                                                               }
                                                      }
                                        },
                            '170023' => {
                                          'Artificial' => 1,
                                          'Class' => '158426',
                                          'Constructor' => 1,
                                          'InLine' => 1,
                                          'Line' => '64',
                                          'MnglName' => '_ZN30HeterogeneousListMetadataValueC2IJEEEDpOT_',
                                          'Param' => {
                                                       '0' => {
                                                                'name' => 'this',
                                                                'type' => '158755'
                                                              }
                                                     },
                                          'ShortName' => 'HeterogeneousListMetadataValue<>',
                                          'Source' => 'metadata.cpp'
                                        },
                            '170024' => {
                                          'Artificial' => 1,
                                          'Class' => '158426',
                                          'Constructor' => 1,
                                          'InLine' => 1,
                                          'Line' => '64',
                                          'MnglName' => '_ZN30HeterogeneousListMetadataValueC1IJEEEDpOT_',
                                          'Param' => {
                                                       '0' => {
                                                                'name' => 'this',
                                                                'type' => '158755'
                                                              }
                                                     },
                                          'ShortName' => 'HeterogeneousListMetadataValue<>',
                                          'Source' => 'metadata.cpp'
                                        },
                            '170117' => {
                                          'Artificial' => 1,
                                          'Class' => '154400',
                                          'Constructor' => 1,
                                          'Header' => 'unique_ptr',
                                          'InLine' => 1,
                                          'Line' => '17',
                                          'MnglName' => '_ZN4zeno7reflect9UniquePtrI19StringMetadataValueEC2IS2_EEPT_',
                                          'Param' => {
                                                       '0' => {
                                                                'name' => 'this',
                                                                'type' => '158130'
                                                              },
                                                       '1' => {
                                                                'name' => 'p',
                                                                'type' => '158391'
                                                              }
                                                     },
                                          'ShortName' => 'UniquePtr<StringMetadataValue>',
                                          'TParam' => {
                                                        '0' => {
                                                                 'key' => 'U',
                                                                 'type' => '158150'
                                                               }
                                                      }
                                        },
                            '170118' => {
                                          'Artificial' => 1,
                                          'Class' => '154400',
                                          'Constructor' => 1,
                                          'Header' => 'unique_ptr',
                                          'InLine' => 1,
                                          'Line' => '17',
                                          'MnglName' => '_ZN4zeno7reflect9UniquePtrI19StringMetadataValueEC1IS2_EEPT_',
                                          'Param' => {
                                                       '0' => {
                                                                'name' => 'this',
                                                                'type' => '158130'
                                                              },
                                                       '1' => {
                                                                'name' => 'p',
                                                                'type' => '158391'
                                                              }
                                                     },
                                          'ShortName' => 'UniquePtr<StringMetadataValue>',
                                          'TParam' => {
                                                        '0' => {
                                                                 'key' => 'U',
                                                                 'type' => '158150'
                                                               }
                                                      }
                                        },
                            '170279' => {
                                          'Artificial' => 1,
                                          'Class' => '153940',
                                          'Constructor' => 1,
                                          'Header' => 'unique_ptr',
                                          'InLine' => 1,
                                          'Line' => '17',
                                          'MnglName' => '_ZN4zeno7reflect9UniquePtrI11RawMetadataEC2IS2_EEPT_',
                                          'Param' => {
                                                       '0' => {
                                                                'name' => 'this',
                                                                'type' => '157848'
                                                              },
                                                       '1' => {
                                                                'name' => 'p',
                                                                'type' => '158115'
                                                              }
                                                     },
                                          'ShortName' => 'UniquePtr<RawMetadata>',
                                          'TParam' => {
                                                        '0' => {
                                                                 'key' => 'U',
                                                                 'type' => '157868'
                                                               }
                                                      }
                                        },
                            '170280' => {
                                          'Artificial' => 1,
                                          'Class' => '153940',
                                          'Constructor' => 1,
                                          'Header' => 'unique_ptr',
                                          'InLine' => 1,
                                          'Line' => '17',
                                          'MnglName' => '_ZN4zeno7reflect9UniquePtrI11RawMetadataEC1IS2_EEPT_',
                                          'Param' => {
                                                       '0' => {
                                                                'name' => 'this',
                                                                'type' => '157848'
                                                              },
                                                       '1' => {
                                                                'name' => 'p',
                                                                'type' => '158115'
                                                              }
                                                     },
                                          'ShortName' => 'UniquePtr<RawMetadata>',
                                          'TParam' => {
                                                        '0' => {
                                                                 'key' => 'U',
                                                                 'type' => '157868'
                                                               }
                                                      }
                                        },
                            '170472' => {
                                          'Artificial' => 1,
                                          'Class' => '135863',
                                          'Constructor' => 1,
                                          'Header' => 'stl_pair.h',
                                          'InLine' => 1,
                                          'Line' => '442',
                                          'MnglName' => '_ZNSt4pairISt17_Rb_tree_iteratorIS_IKNSt7__cxx1112basic_stringIcSt11char_traitsIcESaIcEEEN4zeno7reflect9UniquePtrINS9_14IMetadataValueEEEEEbEC2IRSE_bEEOT_OT0_',
                                          'Param' => {
                                                       '0' => {
                                                                'name' => 'this',
                                                                'type' => '157768'
                                                              },
                                                       '1' => {
                                                                'name' => '__x',
                                                                'type' => '167360'
                                                              },
                                                       '2' => {
                                                                'name' => '__y',
                                                                'type' => '50287'
                                                              }
                                                     },
                                          'ShortName' => 'pair<std::_Rb_tree_iterator<std::pair<std::__cxx11::basic_string<char>const, zeno::reflect::UniquePtr<zeno::reflect::IMetadataValue> > >&, bool>',
                                          'TParam' => {
                                                        '0' => {
                                                                 'key' => '_U1',
                                                                 'type' => '167360'
                                                               },
                                                        '1' => {
                                                                 'key' => '_U2',
                                                                 'type' => '2273'
                                                               }
                                                      }
                                        },
                            '170473' => {
                                          'Artificial' => 1,
                                          'Class' => '135863',
                                          'Constructor' => 1,
                                          'Header' => 'stl_pair.h',
                                          'InLine' => 1,
                                          'Line' => '442',
                                          'MnglName' => '_ZNSt4pairISt17_Rb_tree_iteratorIS_IKNSt7__cxx1112basic_stringIcSt11char_traitsIcESaIcEEEN4zeno7reflect9UniquePtrINS9_14IMetadataValueEEEEEbEC1IRSE_bEEOT_OT0_',
                                          'Param' => {
                                                       '0' => {
                                                                'name' => 'this',
                                                                'type' => '157768'
                                                              },
                                                       '1' => {
                                                                'name' => '__x',
                                                                'type' => '167360'
                                                              },
                                                       '2' => {
                                                                'name' => '__y',
                                                                'type' => '50287'
                                                              }
                                                     },
                                          'ShortName' => 'pair<std::_Rb_tree_iterator<std::pair<std::__cxx11::basic_string<char>const, zeno::reflect::UniquePtr<zeno::reflect::IMetadataValue> > >&, bool>',
                                          'TParam' => {
                                                        '0' => {
                                                                 'key' => '_U1',
                                                                 'type' => '167360'
                                                               },
                                                        '1' => {
                                                                 'key' => '_U2',
                                                                 'type' => '2273'
                                                               }
                                                      }
                                        },
                            '170705' => {
                                          'Artificial' => 1,
                                          'Class' => '132494',
                                          'Constructor' => 1,
                                          'Header' => 'stl_tree.h',
                                          'InLine' => 1,
                                          'Line' => '346',
                                          'MnglName' => '_ZNSt23_Rb_tree_const_iteratorISt4pairIKNSt7__cxx1112basic_stringIcSt11char_traitsIcESaIcEEEN4zeno7reflect9UniquePtrINS9_14IMetadataValueEEEEEC2ERKSt17_Rb_tree_iteratorISD_E',
                                          'Param' => {
                                                       '0' => {
                                                                'name' => 'this',
                                                                'type' => '157698'
                                                              },
                                                       '1' => {
                                                                'name' => '__it',
                                                                'type' => '157703'
                                                              }
                                                     },
                                          'ShortName' => '_Rb_tree_const_iterator'
                                        },
                            '170706' => {
                                          'Artificial' => 1,
                                          'Class' => '132494',
                                          'Constructor' => 1,
                                          'Header' => 'stl_tree.h',
                                          'InLine' => 1,
                                          'Line' => '346',
                                          'MnglName' => '_ZNSt23_Rb_tree_const_iteratorISt4pairIKNSt7__cxx1112basic_stringIcSt11char_traitsIcESaIcEEEN4zeno7reflect9UniquePtrINS9_14IMetadataValueEEEEEC1ERKSt17_Rb_tree_iteratorISD_E',
                                          'Param' => {
                                                       '0' => {
                                                                'name' => 'this',
                                                                'type' => '157698'
                                                              },
                                                       '1' => {
                                                                'name' => '__it',
                                                                'type' => '157703'
                                                              }
                                                     },
                                          'ShortName' => '_Rb_tree_const_iterator'
                                        },
                            '171673' => {
                                          'Artificial' => 1,
                                          'Class' => '128033',
                                          'Constructor' => 1,
                                          'Header' => 'stl_tree.h',
                                          'InLine' => 1,
                                          'Line' => '142',
                                          'MnglName' => '_ZNSt20_Rb_tree_key_compareISt4lessINSt7__cxx1112basic_stringIcSt11char_traitsIcESaIcEEEEEC2Ev',
                                          'Param' => {
                                                       '0' => {
                                                                'name' => 'this',
                                                                'type' => '157493'
                                                              }
                                                     },
                                          'ShortName' => '_Rb_tree_key_compare'
                                        },
                            '171674' => {
                                          'Artificial' => 1,
                                          'Class' => '128033',
                                          'Constructor' => 1,
                                          'Header' => 'stl_tree.h',
                                          'InLine' => 1,
                                          'Line' => '142',
                                          'MnglName' => '_ZNSt20_Rb_tree_key_compareISt4lessINSt7__cxx1112basic_stringIcSt11char_traitsIcESaIcEEEEEC1Ev',
                                          'Param' => {
                                                       '0' => {
                                                                'name' => 'this',
                                                                'type' => '157493'
                                                              }
                                                     },
                                          'ShortName' => '_Rb_tree_key_compare'
                                        },
                            '171741' => {
                                          'Artificial' => 1,
                                          'Class' => '127354',
                                          'Constructor' => 1,
                                          'Header' => 'allocator.h',
                                          'InLine' => 1,
                                          'Line' => '161',
                                          'MnglName' => '_ZNSaISt13_Rb_tree_nodeISt4pairIKNSt7__cxx1112basic_stringIcSt11char_traitsIcESaIcEEEN4zeno7reflect9UniquePtrINS9_14IMetadataValueEEEEEEC2Ev',
                                          'Param' => {
                                                       '0' => {
                                                                'name' => 'this',
                                                                'type' => '157463'
                                                              }
                                                     },
                                          'ShortName' => 'allocator'
                                        },
                            '171742' => {
                                          'Artificial' => 1,
                                          'Class' => '127354',
                                          'Constructor' => 1,
                                          'Header' => 'allocator.h',
                                          'InLine' => 1,
                                          'Line' => '161',
                                          'MnglName' => '_ZNSaISt13_Rb_tree_nodeISt4pairIKNSt7__cxx1112basic_stringIcSt11char_traitsIcESaIcEEEN4zeno7reflect9UniquePtrINS9_14IMetadataValueEEEEEEC1Ev',
                                          'Param' => {
                                                       '0' => {
                                                                'name' => 'this',
                                                                'type' => '157463'
                                                              }
                                                     },
                                          'ShortName' => 'allocator'
                                        },
                            '171800' => {
                                          'Artificial' => 1,
                                          'Class' => '152050',
                                          'Constructor' => 1,
                                          'Header' => 'unique_ptr',
                                          'InLine' => 1,
                                          'Line' => '22',
                                          'MnglName' => '_ZN4zeno7reflect9UniquePtrINS0_14IMetadataValueEEC2EOS3_',
                                          'Param' => {
                                                       '0' => {
                                                                'name' => 'this',
                                                                'type' => '157328'
                                                              },
                                                       '1' => {
                                                                'name' => 'moving',
                                                                'type' => '157313'
                                                              }
                                                     },
                                          'ShortName' => 'UniquePtr'
                                        },
                            '171801' => {
                                          'Artificial' => 1,
                                          'Class' => '152050',
                                          'Constructor' => 1,
                                          'Header' => 'unique_ptr',
                                          'InLine' => 1,
                                          'Line' => '22',
                                          'MnglName' => '_ZN4zeno7reflect9UniquePtrINS0_14IMetadataValueEEC1EOS3_',
                                          'Param' => {
                                                       '0' => {
                                                                'name' => 'this',
                                                                'type' => '157328'
                                                              },
                                                       '1' => {
                                                                'name' => 'moving',
                                                                'type' => '157313'
                                                              }
                                                     },
                                          'ShortName' => 'UniquePtr'
                                        },
                            '172226' => {
                                          'Artificial' => 1,
                                          'Class' => '172067',
                                          'Constructor' => 1,
                                          'Header' => 'basic_string.tcc',
                                          'InLine' => 1,
                                          'Line' => '239',
                                          'MnglName' => '_ZZNSt7__cxx1112basic_stringIcSt11char_traitsIcESaIcEE12_M_constructIPKcEEvT_S8_St20forward_iterator_tagEN6_GuardC2EPS4_',
                                          'Param' => {
                                                       '0' => {
                                                                'name' => 'this',
                                                                'type' => '172198'
                                                              },
                                                       '1' => {
                                                                'name' => '__s',
                                                                'type' => '50100'
                                                              }
                                                     }
                                        },
                            '172227' => {
                                          'Artificial' => 1,
                                          'Class' => '172067',
                                          'Constructor' => 1,
                                          'Header' => 'basic_string.tcc',
                                          'InLine' => 1,
                                          'Line' => '239',
                                          'MnglName' => '_ZZNSt7__cxx1112basic_stringIcSt11char_traitsIcESaIcEE12_M_constructIPKcEEvT_S8_St20forward_iterator_tagEN6_GuardC1EPS4_',
                                          'Param' => {
                                                       '0' => {
                                                                'name' => 'this',
                                                                'type' => '172198'
                                                              },
                                                       '1' => {
                                                                'name' => '__s',
                                                                'type' => '50100'
                                                              }
                                                     }
                                        },
                            '172278' => {
                                          'Artificial' => 1,
                                          'Class' => '172067',
                                          'Destructor' => 1,
                                          'Header' => 'basic_string.tcc',
                                          'InLine' => 1,
                                          'Line' => '242',
                                          'MnglName' => '_ZZNSt7__cxx1112basic_stringIcSt11char_traitsIcESaIcEE12_M_constructIPKcEEvT_S8_St20forward_iterator_tagEN6_GuardD2Ev',
                                          'Param' => {
                                                       '0' => {
                                                                'name' => 'this',
                                                                'type' => '172198'
                                                              }
                                                     }
                                        },
                            '172279' => {
                                          'Artificial' => 1,
                                          'Class' => '172067',
                                          'Destructor' => 1,
                                          'Header' => 'basic_string.tcc',
                                          'InLine' => 1,
                                          'Line' => '242',
                                          'MnglName' => '_ZZNSt7__cxx1112basic_stringIcSt11char_traitsIcESaIcEE12_M_constructIPKcEEvT_S8_St20forward_iterator_tagEN6_GuardD0Ev',
                                          'Param' => {
                                                       '0' => {
                                                                'name' => 'this',
                                                                'type' => '172198'
                                                              }
                                                     }
                                        },
                            '173089' => {
                                          'Artificial' => 1,
                                          'Class' => '152050',
                                          'Constructor' => 1,
                                          'Header' => 'unique_ptr',
                                          'InLine' => 1,
                                          'Line' => '27',
                                          'MnglName' => '_ZN4zeno7reflect9UniquePtrINS0_14IMetadataValueEEC2I18FloatMetadataValueEEONS1_IT_EE',
                                          'Param' => {
                                                       '0' => {
                                                                'name' => 'this',
                                                                'type' => '157328'
                                                              },
                                                       '1' => {
                                                                'name' => 'other',
                                                                'type' => '159056'
                                                              }
                                                     },
                                          'ShortName' => 'UniquePtr<FloatMetadataValue>',
                                          'TParam' => {
                                                        '0' => {
                                                                 'key' => 'U',
                                                                 'type' => '159061'
                                                               }
                                                      }
                                        },
                            '173090' => {
                                          'Artificial' => 1,
                                          'Class' => '152050',
                                          'Constructor' => 1,
                                          'Header' => 'unique_ptr',
                                          'InLine' => 1,
                                          'Line' => '27',
                                          'MnglName' => '_ZN4zeno7reflect9UniquePtrINS0_14IMetadataValueEEC1I18FloatMetadataValueEEONS1_IT_EE',
                                          'Param' => {
                                                       '0' => {
                                                                'name' => 'this',
                                                                'type' => '157328'
                                                              },
                                                       '1' => {
                                                                'name' => 'other',
                                                                'type' => '159056'
                                                              }
                                                     },
                                          'ShortName' => 'UniquePtr<FloatMetadataValue>',
                                          'TParam' => {
                                                        '0' => {
                                                                 'key' => 'U',
                                                                 'type' => '159061'
                                                               }
                                                      }
                                        },
                            '173181' => {
                                          'Artificial' => 1,
                                          'Class' => '155780',
                                          'Destructor' => 1,
                                          'Header' => 'unique_ptr',
                                          'InLine' => 1,
                                          'Line' => '42',
                                          'MnglName' => '_ZN4zeno7reflect9UniquePtrI18FloatMetadataValueED2Ev',
                                          'Param' => {
                                                       '0' => {
                                                                'name' => 'this',
                                                                'type' => '159041'
                                                              }
                                                     },
                                          'ShortName' => 'UniquePtr'
                                        },
                            '173182' => {
                                          'Artificial' => 1,
                                          'Class' => '155780',
                                          'Destructor' => 1,
                                          'Header' => 'unique_ptr',
                                          'InLine' => 1,
                                          'Line' => '42',
                                          'MnglName' => '_ZN4zeno7reflect9UniquePtrI18FloatMetadataValueED0Ev',
                                          'Param' => {
                                                       '0' => {
                                                                'name' => 'this',
                                                                'type' => '159041'
                                                              }
                                                     },
                                          'ShortName' => 'UniquePtr'
                                        },
                            '173260' => {
                                          'Artificial' => 1,
                                          'Class' => '159061',
                                          'Destructor' => 1,
                                          'InLine' => 1,
                                          'Line' => '45',
                                          'MnglName' => '_ZN18FloatMetadataValueD0Ev',
                                          'Param' => {
                                                       '0' => {
                                                                'name' => 'this',
                                                                'type' => '159307'
                                                              }
                                                     },
                                          'ShortName' => 'FloatMetadataValue',
                                          'Source' => 'metadata.cpp',
                                          'Virt' => 1
                                        },
                            '173261' => {
                                          'Artificial' => 1,
                                          'Class' => '159061',
                                          'Destructor' => 1,
                                          'InLine' => 1,
                                          'Line' => '45',
                                          'MnglName' => '_ZN18FloatMetadataValueD1Ev',
                                          'Param' => {
                                                       '0' => {
                                                                'name' => 'this',
                                                                'type' => '159307'
                                                              }
                                                     },
                                          'ShortName' => 'FloatMetadataValue',
                                          'Source' => 'metadata.cpp',
                                          'Virt' => 1
                                        },
                            '173304' => {
                                          'Artificial' => 1,
                                          'Class' => '159061',
                                          'Destructor' => 1,
                                          'InLine' => 1,
                                          'Line' => '45',
                                          'MnglName' => '_ZN18FloatMetadataValueD2Ev',
                                          'Param' => {
                                                       '0' => {
                                                                'name' => 'this',
                                                                'type' => '159307'
                                                              }
                                                     },
                                          'ShortName' => 'FloatMetadataValue',
                                          'Source' => 'metadata.cpp',
                                          'Virt' => 1
                                        },
                            '173454' => {
                                          'Artificial' => 1,
                                          'Class' => '152050',
                                          'Constructor' => 1,
                                          'Header' => 'unique_ptr',
                                          'InLine' => 1,
                                          'Line' => '27',
                                          'MnglName' => '_ZN4zeno7reflect9UniquePtrINS0_14IMetadataValueEEC2I16IntMetadataValueEEONS1_IT_EE',
                                          'Param' => {
                                                       '0' => {
                                                                'name' => 'this',
                                                                'type' => '157328'
                                                              },
                                                       '1' => {
                                                                'name' => 'other',
                                                                'type' => '158780'
                                                              }
                                                     },
                                          'ShortName' => 'UniquePtr<IntMetadataValue>',
                                          'TParam' => {
                                                        '0' => {
                                                                 'key' => 'U',
                                                                 'type' => '158785'
                                                               }
                                                      }
                                        },
                            '173455' => {
                                          'Artificial' => 1,
                                          'Class' => '152050',
                                          'Constructor' => 1,
                                          'Header' => 'unique_ptr',
                                          'InLine' => 1,
                                          'Line' => '27',
                                          'MnglName' => '_ZN4zeno7reflect9UniquePtrINS0_14IMetadataValueEEC1I16IntMetadataValueEEONS1_IT_EE',
                                          'Param' => {
                                                       '0' => {
                                                                'name' => 'this',
                                                                'type' => '157328'
                                                              },
                                                       '1' => {
                                                                'name' => 'other',
                                                                'type' => '158780'
                                                              }
                                                     },
                                          'ShortName' => 'UniquePtr<IntMetadataValue>',
                                          'TParam' => {
                                                        '0' => {
                                                                 'key' => 'U',
                                                                 'type' => '158785'
                                                               }
                                                      }
                                        },
                            '173546' => {
                                          'Artificial' => 1,
                                          'Class' => '155320',
                                          'Destructor' => 1,
                                          'Header' => 'unique_ptr',
                                          'InLine' => 1,
                                          'Line' => '42',
                                          'MnglName' => '_ZN4zeno7reflect9UniquePtrI16IntMetadataValueED2Ev',
                                          'Param' => {
                                                       '0' => {
                                                                'name' => 'this',
                                                                'type' => '158765'
                                                              }
                                                     },
                                          'ShortName' => 'UniquePtr'
                                        },
                            '173547' => {
                                          'Artificial' => 1,
                                          'Class' => '155320',
                                          'Destructor' => 1,
                                          'Header' => 'unique_ptr',
                                          'InLine' => 1,
                                          'Line' => '42',
                                          'MnglName' => '_ZN4zeno7reflect9UniquePtrI16IntMetadataValueED0Ev',
                                          'Param' => {
                                                       '0' => {
                                                                'name' => 'this',
                                                                'type' => '158765'
                                                              }
                                                     },
                                          'ShortName' => 'UniquePtr'
                                        },
                            '173625' => {
                                          'Artificial' => 1,
                                          'Class' => '158785',
                                          'Destructor' => 1,
                                          'InLine' => 1,
                                          'Line' => '29',
                                          'MnglName' => '_ZN16IntMetadataValueD0Ev',
                                          'Param' => {
                                                       '0' => {
                                                                'name' => 'this',
                                                                'type' => '159031'
                                                              }
                                                     },
                                          'ShortName' => 'IntMetadataValue',
                                          'Source' => 'metadata.cpp',
                                          'Virt' => 1
                                        },
                            '173626' => {
                                          'Artificial' => 1,
                                          'Class' => '158785',
                                          'Destructor' => 1,
                                          'InLine' => 1,
                                          'Line' => '29',
                                          'MnglName' => '_ZN16IntMetadataValueD1Ev',
                                          'Param' => {
                                                       '0' => {
                                                                'name' => 'this',
                                                                'type' => '159031'
                                                              }
                                                     },
                                          'ShortName' => 'IntMetadataValue',
                                          'Source' => 'metadata.cpp',
                                          'Virt' => 1
                                        },
                            '173669' => {
                                          'Artificial' => 1,
                                          'Class' => '158785',
                                          'Destructor' => 1,
                                          'InLine' => 1,
                                          'Line' => '29',
                                          'MnglName' => '_ZN16IntMetadataValueD2Ev',
                                          'Param' => {
                                                       '0' => {
                                                                'name' => 'this',
                                                                'type' => '159031'
                                                              }
                                                     },
                                          'ShortName' => 'IntMetadataValue',
                                          'Source' => 'metadata.cpp',
                                          'Virt' => 1
                                        },
                            '173819' => {
                                          'Artificial' => 1,
                                          'Class' => '152050',
                                          'Constructor' => 1,
                                          'Header' => 'unique_ptr',
                                          'InLine' => 1,
                                          'Line' => '27',
                                          'MnglName' => '_ZN4zeno7reflect9UniquePtrINS0_14IMetadataValueEEC2I30HeterogeneousListMetadataValueEEONS1_IT_EE',
                                          'Param' => {
                                                       '0' => {
                                                                'name' => 'this',
                                                                'type' => '157328'
                                                              },
                                                       '1' => {
                                                                'name' => 'other',
                                                                'type' => '158421'
                                                              }
                                                     },
                                          'ShortName' => 'UniquePtr<HeterogeneousListMetadataValue>',
                                          'TParam' => {
                                                        '0' => {
                                                                 'key' => 'U',
                                                                 'type' => '158426'
                                                               }
                                                      }
                                        },
                            '173820' => {
                                          'Artificial' => 1,
                                          'Class' => '152050',
                                          'Constructor' => 1,
                                          'Header' => 'unique_ptr',
                                          'InLine' => 1,
                                          'Line' => '27',
                                          'MnglName' => '_ZN4zeno7reflect9UniquePtrINS0_14IMetadataValueEEC1I30HeterogeneousListMetadataValueEEONS1_IT_EE',
                                          'Param' => {
                                                       '0' => {
                                                                'name' => 'this',
                                                                'type' => '157328'
                                                              },
                                                       '1' => {
                                                                'name' => 'other',
                                                                'type' => '158421'
                                                              }
                                                     },
                                          'ShortName' => 'UniquePtr<HeterogeneousListMetadataValue>',
                                          'TParam' => {
                                                        '0' => {
                                                                 'key' => 'U',
                                                                 'type' => '158426'
                                                               }
                                                      }
                                        },
                            '173911' => {
                                          'Artificial' => 1,
                                          'Class' => '154860',
                                          'Destructor' => 1,
                                          'Header' => 'unique_ptr',
                                          'InLine' => 1,
                                          'Line' => '42',
                                          'MnglName' => '_ZN4zeno7reflect9UniquePtrI30HeterogeneousListMetadataValueED2Ev',
                                          'Param' => {
                                                       '0' => {
                                                                'name' => 'this',
                                                                'type' => '158406'
                                                              }
                                                     },
                                          'ShortName' => 'UniquePtr'
                                        },
                            '173912' => {
                                          'Artificial' => 1,
                                          'Class' => '154860',
                                          'Destructor' => 1,
                                          'Header' => 'unique_ptr',
                                          'InLine' => 1,
                                          'Line' => '42',
                                          'MnglName' => '_ZN4zeno7reflect9UniquePtrI30HeterogeneousListMetadataValueED0Ev',
                                          'Param' => {
                                                       '0' => {
                                                                'name' => 'this',
                                                                'type' => '158406'
                                                              }
                                                     },
                                          'ShortName' => 'UniquePtr'
                                        },
                            '173990' => {
                                          'Artificial' => 1,
                                          'Class' => '158426',
                                          'Destructor' => 1,
                                          'InLine' => 1,
                                          'Line' => '61',
                                          'MnglName' => '_ZN30HeterogeneousListMetadataValueD0Ev',
                                          'Param' => {
                                                       '0' => {
                                                                'name' => 'this',
                                                                'type' => '158755'
                                                              }
                                                     },
                                          'ShortName' => 'HeterogeneousListMetadataValue',
                                          'Source' => 'metadata.cpp',
                                          'Virt' => 1
                                        },
                            '173991' => {
                                          'Artificial' => 1,
                                          'Class' => '158426',
                                          'Destructor' => 1,
                                          'InLine' => 1,
                                          'Line' => '61',
                                          'MnglName' => '_ZN30HeterogeneousListMetadataValueD1Ev',
                                          'Param' => {
                                                       '0' => {
                                                                'name' => 'this',
                                                                'type' => '158755'
                                                              }
                                                     },
                                          'ShortName' => 'HeterogeneousListMetadataValue',
                                          'Source' => 'metadata.cpp',
                                          'Virt' => 1
                                        },
                            '174034' => {
                                          'Artificial' => 1,
                                          'Class' => '158426',
                                          'Destructor' => 1,
                                          'InLine' => 1,
                                          'Line' => '61',
                                          'MnglName' => '_ZN30HeterogeneousListMetadataValueD2Ev',
                                          'Param' => {
                                                       '0' => {
                                                                'name' => 'this',
                                                                'type' => '158755'
                                                              }
                                                     },
                                          'ShortName' => 'HeterogeneousListMetadataValue',
                                          'Source' => 'metadata.cpp',
                                          'Virt' => 1
                                        },
                            '174155' => {
                                          'Artificial' => 1,
                                          'Class' => '152050',
                                          'Destructor' => 1,
                                          'Header' => 'unique_ptr',
                                          'InLine' => 1,
                                          'Line' => '42',
                                          'MnglName' => '_ZN4zeno7reflect9UniquePtrINS0_14IMetadataValueEED2Ev',
                                          'Param' => {
                                                       '0' => {
                                                                'name' => 'this',
                                                                'type' => '157328'
                                                              }
                                                     },
                                          'ShortName' => 'UniquePtr'
                                        },
                            '174156' => {
                                          'Artificial' => 1,
                                          'Class' => '152050',
                                          'Destructor' => 1,
                                          'Header' => 'unique_ptr',
                                          'InLine' => 1,
                                          'Line' => '42',
                                          'MnglName' => '_ZN4zeno7reflect9UniquePtrINS0_14IMetadataValueEED0Ev',
                                          'Param' => {
                                                       '0' => {
                                                                'name' => 'this',
                                                                'type' => '157328'
                                                              }
                                                     },
                                          'ShortName' => 'UniquePtr'
                                        },
                            '174242' => {
                                          'Artificial' => 1,
                                          'Class' => '152050',
                                          'Constructor' => 1,
                                          'Header' => 'unique_ptr',
                                          'InLine' => 1,
                                          'Line' => '27',
                                          'MnglName' => '_ZN4zeno7reflect9UniquePtrINS0_14IMetadataValueEEC2I19StringMetadataValueEEONS1_IT_EE',
                                          'Param' => {
                                                       '0' => {
                                                                'name' => 'this',
                                                                'type' => '157328'
                                                              },
                                                       '1' => {
                                                                'name' => 'other',
                                                                'type' => '158145'
                                                              }
                                                     },
                                          'ShortName' => 'UniquePtr<StringMetadataValue>',
                                          'TParam' => {
                                                        '0' => {
                                                                 'key' => 'U',
                                                                 'type' => '158150'
                                                               }
                                                      }
                                        },
                            '174243' => {
                                          'Artificial' => 1,
                                          'Class' => '152050',
                                          'Constructor' => 1,
                                          'Header' => 'unique_ptr',
                                          'InLine' => 1,
                                          'Line' => '27',
                                          'MnglName' => '_ZN4zeno7reflect9UniquePtrINS0_14IMetadataValueEEC1I19StringMetadataValueEEONS1_IT_EE',
                                          'Param' => {
                                                       '0' => {
                                                                'name' => 'this',
                                                                'type' => '157328'
                                                              },
                                                       '1' => {
                                                                'name' => 'other',
                                                                'type' => '158145'
                                                              }
                                                     },
                                          'ShortName' => 'UniquePtr<StringMetadataValue>',
                                          'TParam' => {
                                                        '0' => {
                                                                 'key' => 'U',
                                                                 'type' => '158150'
                                                               }
                                                      }
                                        },
                            '174334' => {
                                          'Artificial' => 1,
                                          'Class' => '154400',
                                          'Destructor' => 1,
                                          'Header' => 'unique_ptr',
                                          'InLine' => 1,
                                          'Line' => '42',
                                          'MnglName' => '_ZN4zeno7reflect9UniquePtrI19StringMetadataValueED2Ev',
                                          'Param' => {
                                                       '0' => {
                                                                'name' => 'this',
                                                                'type' => '158130'
                                                              }
                                                     },
                                          'ShortName' => 'UniquePtr'
                                        },
                            '174335' => {
                                          'Artificial' => 1,
                                          'Class' => '154400',
                                          'Destructor' => 1,
                                          'Header' => 'unique_ptr',
                                          'InLine' => 1,
                                          'Line' => '42',
                                          'MnglName' => '_ZN4zeno7reflect9UniquePtrI19StringMetadataValueED0Ev',
                                          'Param' => {
                                                       '0' => {
                                                                'name' => 'this',
                                                                'type' => '158130'
                                                              }
                                                     },
                                          'ShortName' => 'UniquePtr'
                                        },
                            '174413' => {
                                          'Artificial' => 1,
                                          'Class' => '158150',
                                          'Destructor' => 1,
                                          'InLine' => 1,
                                          'Line' => '13',
                                          'MnglName' => '_ZN19StringMetadataValueD0Ev',
                                          'Param' => {
                                                       '0' => {
                                                                'name' => 'this',
                                                                'type' => '158396'
                                                              }
                                                     },
                                          'ShortName' => 'StringMetadataValue',
                                          'Source' => 'metadata.cpp',
                                          'Virt' => 1
                                        },
                            '174414' => {
                                          'Artificial' => 1,
                                          'Class' => '158150',
                                          'Destructor' => 1,
                                          'InLine' => 1,
                                          'Line' => '13',
                                          'MnglName' => '_ZN19StringMetadataValueD1Ev',
                                          'Param' => {
                                                       '0' => {
                                                                'name' => 'this',
                                                                'type' => '158396'
                                                              }
                                                     },
                                          'ShortName' => 'StringMetadataValue',
                                          'Source' => 'metadata.cpp',
                                          'Virt' => 1
                                        },
                            '174457' => {
                                          'Artificial' => 1,
                                          'Class' => '158150',
                                          'Destructor' => 1,
                                          'InLine' => 1,
                                          'Line' => '13',
                                          'MnglName' => '_ZN19StringMetadataValueD2Ev',
                                          'Param' => {
                                                       '0' => {
                                                                'name' => 'this',
                                                                'type' => '158396'
                                                              }
                                                     },
                                          'ShortName' => 'StringMetadataValue',
                                          'Source' => 'metadata.cpp',
                                          'Virt' => 1
                                        },
                            '174608' => {
                                          'Artificial' => 1,
                                          'Class' => '153260',
                                          'Constructor' => 1,
                                          'Header' => 'unique_ptr',
                                          'InLine' => 1,
                                          'Line' => '27',
                                          'MnglName' => '_ZN4zeno7reflect9UniquePtrINS0_12IRawMetadataEEC2I11RawMetadataEEONS1_IT_EE',
                                          'Param' => {
                                                       '0' => {
                                                                'name' => 'this',
                                                                'type' => '157803'
                                                              },
                                                       '1' => {
                                                                'name' => 'other',
                                                                'type' => '157863'
                                                              }
                                                     },
                                          'ShortName' => 'UniquePtr<RawMetadata>',
                                          'TParam' => {
                                                        '0' => {
                                                                 'key' => 'U',
                                                                 'type' => '157868'
                                                               }
                                                      }
                                        },
                            '174609' => {
                                          'Artificial' => 1,
                                          'Class' => '153260',
                                          'Constructor' => 1,
                                          'Header' => 'unique_ptr',
                                          'InLine' => 1,
                                          'Line' => '27',
                                          'MnglName' => '_ZN4zeno7reflect9UniquePtrINS0_12IRawMetadataEEC1I11RawMetadataEEONS1_IT_EE',
                                          'Param' => {
                                                       '0' => {
                                                                'name' => 'this',
                                                                'type' => '157803'
                                                              },
                                                       '1' => {
                                                                'name' => 'other',
                                                                'type' => '157863'
                                                              }
                                                     },
                                          'ShortName' => 'UniquePtr<RawMetadata>',
                                          'TParam' => {
                                                        '0' => {
                                                                 'key' => 'U',
                                                                 'type' => '157868'
                                                               }
                                                      }
                                        },
                            '174700' => {
                                          'Artificial' => 1,
                                          'Class' => '153940',
                                          'Destructor' => 1,
                                          'Header' => 'unique_ptr',
                                          'InLine' => 1,
                                          'Line' => '42',
                                          'MnglName' => '_ZN4zeno7reflect9UniquePtrI11RawMetadataED2Ev',
                                          'Param' => {
                                                       '0' => {
                                                                'name' => 'this',
                                                                'type' => '157848'
                                                              }
                                                     },
                                          'ShortName' => 'UniquePtr'
                                        },
                            '174701' => {
                                          'Artificial' => 1,
                                          'Class' => '153940',
                                          'Destructor' => 1,
                                          'Header' => 'unique_ptr',
                                          'InLine' => 1,
                                          'Line' => '42',
                                          'MnglName' => '_ZN4zeno7reflect9UniquePtrI11RawMetadataED0Ev',
                                          'Param' => {
                                                       '0' => {
                                                                'name' => 'this',
                                                                'type' => '157848'
                                                              }
                                                     },
                                          'ShortName' => 'UniquePtr'
                                        },
                            '174779' => {
                                          'Artificial' => 1,
                                          'Class' => '157868',
                                          'Destructor' => 1,
                                          'InLine' => 1,
                                          'Line' => '90',
                                          'MnglName' => '_ZN11RawMetadataD0Ev',
                                          'Param' => {
                                                       '0' => {
                                                                'name' => 'this',
                                                                'type' => '158120'
                                                              }
                                                     },
                                          'ShortName' => 'RawMetadata',
                                          'Source' => 'metadata.cpp',
                                          'Virt' => 1
                                        },
                            '174780' => {
                                          'Artificial' => 1,
                                          'Class' => '157868',
                                          'Destructor' => 1,
                                          'InLine' => 1,
                                          'Line' => '90',
                                          'MnglName' => '_ZN11RawMetadataD1Ev',
                                          'Param' => {
                                                       '0' => {
                                                                'name' => 'this',
                                                                'type' => '158120'
                                                              }
                                                     },
                                          'ShortName' => 'RawMetadata',
                                          'Source' => 'metadata.cpp',
                                          'Virt' => 1
                                        },
                            '174823' => {
                                          'Artificial' => 1,
                                          'Class' => '157868',
                                          'Destructor' => 1,
                                          'InLine' => 1,
                                          'Line' => '90',
                                          'MnglName' => '_ZN11RawMetadataD2Ev',
                                          'Param' => {
                                                       '0' => {
                                                                'name' => 'this',
                                                                'type' => '158120'
                                                              }
                                                     },
                                          'ShortName' => 'RawMetadata',
                                          'Source' => 'metadata.cpp',
                                          'Virt' => 1
                                        },
                            '175296' => {
                                          'Artificial' => 1,
                                          'Class' => '18465',
                                          'Constructor' => 1,
                                          'Header' => 'basic_string.h',
                                          'InLine' => 1,
                                          'Line' => '646',
                                          'MnglName' => '_ZNSt7__cxx1112basic_stringIcSt11char_traitsIcESaIcEEC2IS3_EEPKcRKS3_',
                                          'Param' => {
                                                       '0' => {
                                                                'name' => 'this',
                                                                'type' => '157053'
                                                              },
                                                       '1' => {
                                                                'name' => '__s',
                                                                'type' => '2344'
                                                              },
                                                       '2' => {
                                                                'name' => '__a',
                                                                'type' => '49491'
                                                              }
                                                     },
                                          'ShortName' => 'basic_string<>'
                                        },
                            '175297' => {
                                          'Artificial' => 1,
                                          'Class' => '18465',
                                          'Constructor' => 1,
                                          'Header' => 'basic_string.h',
                                          'InLine' => 1,
                                          'Line' => '646',
                                          'MnglName' => '_ZNSt7__cxx1112basic_stringIcSt11char_traitsIcESaIcEEC1IS3_EEPKcRKS3_',
                                          'Param' => {
                                                       '0' => {
                                                                'name' => 'this',
                                                                'type' => '157053'
                                                              },
                                                       '1' => {
                                                                'name' => '__s',
                                                                'type' => '2344'
                                                              },
                                                       '2' => {
                                                                'name' => '__a',
                                                                'type' => '49491'
                                                              }
                                                     },
                                          'ShortName' => 'basic_string<>'
                                        },
                            '175436' => {
                                          'Artificial' => 1,
                                          'Class' => '128193',
                                          'Destructor' => 1,
                                          'Header' => 'stl_tree.h',
                                          'InLine' => 1,
                                          'Line' => '981',
                                          'MnglName' => '_ZNSt8_Rb_treeINSt7__cxx1112basic_stringIcSt11char_traitsIcESaIcEEESt4pairIKS5_N4zeno7reflect9UniquePtrINS9_14IMetadataValueEEEESt10_Select1stISD_ESt4lessIS5_ESaISD_EED2Ev',
                                          'Param' => {
                                                       '0' => {
                                                                'name' => 'this',
                                                                'type' => '157548'
                                                              }
                                                     },
                                          'ShortName' => '_Rb_tree'
                                        },
                            '175437' => {
                                          'Artificial' => 1,
                                          'Class' => '128193',
                                          'Destructor' => 1,
                                          'Header' => 'stl_tree.h',
                                          'InLine' => 1,
                                          'Line' => '981',
                                          'MnglName' => '_ZNSt8_Rb_treeINSt7__cxx1112basic_stringIcSt11char_traitsIcESaIcEEESt4pairIKS5_N4zeno7reflect9UniquePtrINS9_14IMetadataValueEEEESt10_Select1stISD_ESt4lessIS5_ESaISD_EED0Ev',
                                          'Param' => {
                                                       '0' => {
                                                                'name' => 'this',
                                                                'type' => '157548'
                                                              }
                                                     },
                                          'ShortName' => '_Rb_tree'
                                        },
                            '175513' => {
                                          'Artificial' => 1,
                                          'Class' => '127354',
                                          'Destructor' => 1,
                                          'Header' => 'allocator.h',
                                          'InLine' => 1,
                                          'Line' => '182',
                                          'MnglName' => '_ZNSaISt13_Rb_tree_nodeISt4pairIKNSt7__cxx1112basic_stringIcSt11char_traitsIcESaIcEEEN4zeno7reflect9UniquePtrINS9_14IMetadataValueEEEEEED2Ev',
                                          'Param' => {
                                                       '0' => {
                                                                'name' => 'this',
                                                                'type' => '157463'
                                                              }
                                                     },
                                          'ShortName' => 'allocator'
                                        },
                            '175514' => {
                                          'Artificial' => 1,
                                          'Class' => '127354',
                                          'Destructor' => 1,
                                          'Header' => 'allocator.h',
                                          'InLine' => 1,
                                          'Line' => '182',
                                          'MnglName' => '_ZNSaISt13_Rb_tree_nodeISt4pairIKNSt7__cxx1112basic_stringIcSt11char_traitsIcESaIcEEEN4zeno7reflect9UniquePtrINS9_14IMetadataValueEEEEEED0Ev',
                                          'Param' => {
                                                       '0' => {
                                                                'name' => 'this',
                                                                'type' => '157463'
                                                              }
                                                     },
                                          'ShortName' => 'allocator'
                                        },
                            '175560' => {
                                          'Artificial' => 1,
                                          'Class' => '128207',
                                          'Constructor' => 1,
                                          'Header' => 'stl_tree.h',
                                          'InLine' => 1,
                                          'Line' => '665',
                                          'MnglName' => '_ZNSt8_Rb_treeINSt7__cxx1112basic_stringIcSt11char_traitsIcESaIcEEESt4pairIKS5_N4zeno7reflect9UniquePtrINS9_14IMetadataValueEEEESt10_Select1stISD_ESt4lessIS5_ESaISD_EE13_Rb_tree_implISH_Lb1EEC2Ev',
                                          'Param' => {
                                                       '0' => {
                                                                'name' => 'this',
                                                                'type' => '157518'
                                                              }
                                                     },
                                          'ShortName' => '_Rb_tree_impl'
                                        },
                            '175561' => {
                                          'Artificial' => 1,
                                          'Class' => '128207',
                                          'Constructor' => 1,
                                          'Header' => 'stl_tree.h',
                                          'InLine' => 1,
                                          'Line' => '665',
                                          'MnglName' => '_ZNSt8_Rb_treeINSt7__cxx1112basic_stringIcSt11char_traitsIcESaIcEEESt4pairIKS5_N4zeno7reflect9UniquePtrINS9_14IMetadataValueEEEESt10_Select1stISD_ESt4lessIS5_ESaISD_EE13_Rb_tree_implISH_Lb1EEC1Ev',
                                          'Param' => {
                                                       '0' => {
                                                                'name' => 'this',
                                                                'type' => '157518'
                                                              }
                                                     },
                                          'ShortName' => '_Rb_tree_impl'
                                        },
                            '176103' => {
                                          'Artificial' => 1,
                                          'Class' => '18478',
                                          'Constructor' => 1,
                                          'Header' => 'basic_string.h',
                                          'InLine' => 1,
                                          'Line' => '193',
                                          'MnglName' => '_ZNSt7__cxx1112basic_stringIcSt11char_traitsIcESaIcEE12_Alloc_hiderC2EPcRKS3_',
                                          'Param' => {
                                                       '0' => {
                                                                'name' => 'this',
                                                                'type' => '157033'
                                                              },
                                                       '1' => {
                                                                'name' => '__dat',
                                                                'type' => '18583'
                                                              },
                                                       '2' => {
                                                                'name' => '__a',
                                                                'type' => '49491'
                                                              }
                                                     },
                                          'ShortName' => '_Alloc_hider'
                                        },
                            '176104' => {
                                          'Artificial' => 1,
                                          'Class' => '18478',
                                          'Constructor' => 1,
                                          'Header' => 'basic_string.h',
                                          'InLine' => 1,
                                          'Line' => '193',
                                          'MnglName' => '_ZNSt7__cxx1112basic_stringIcSt11char_traitsIcESaIcEE12_Alloc_hiderC1EPcRKS3_',
                                          'Param' => {
                                                       '0' => {
                                                                'name' => 'this',
                                                                'type' => '157033'
                                                              },
                                                       '1' => {
                                                                'name' => '__dat',
                                                                'type' => '18583'
                                                              },
                                                       '2' => {
                                                                'name' => '__a',
                                                                'type' => '49491'
                                                              }
                                                     },
                                          'ShortName' => '_Alloc_hider'
                                        },
                            '176283' => {
                                          'Artificial' => 1,
                                          'Class' => '18465',
                                          'Constructor' => 1,
                                          'Header' => 'basic_string.h',
                                          'InLine' => 1,
                                          'Line' => '682',
                                          'MnglName' => '_ZNSt7__cxx1112basic_stringIcSt11char_traitsIcESaIcEEC2EOS4_',
                                          'Param' => {
                                                       '0' => {
                                                                'name' => 'this',
                                                                'type' => '157053'
                                                              },
                                                       '1' => {
                                                                'name' => '__str',
                                                                'type' => '50130'
                                                              }
                                                     },
                                          'ShortName' => 'basic_string'
                                        },
                            '176284' => {
                                          'Artificial' => 1,
                                          'Class' => '18465',
                                          'Constructor' => 1,
                                          'Header' => 'basic_string.h',
                                          'InLine' => 1,
                                          'Line' => '682',
                                          'MnglName' => '_ZNSt7__cxx1112basic_stringIcSt11char_traitsIcESaIcEEC1EOS4_',
                                          'Param' => {
                                                       '0' => {
                                                                'name' => 'this',
                                                                'type' => '157053'
                                                              },
                                                       '1' => {
                                                                'name' => '__str',
                                                                'type' => '50130'
                                                              }
                                                     },
                                          'ShortName' => 'basic_string'
                                        },
                            '176670' => {
                                          'Artificial' => 1,
                                          'Class' => '18465',
                                          'Destructor' => 1,
                                          'Header' => 'basic_string.h',
                                          'InLine' => 1,
                                          'Line' => '808',
                                          'MnglName' => '_ZNSt7__cxx1112basic_stringIcSt11char_traitsIcESaIcEED2Ev',
                                          'Param' => {
                                                       '0' => {
                                                                'name' => 'this',
                                                                'type' => '157053'
                                                              }
                                                     },
                                          'ShortName' => 'basic_string'
                                        },
                            '176671' => {
                                          'Artificial' => 1,
                                          'Class' => '18465',
                                          'Destructor' => 1,
                                          'Header' => 'basic_string.h',
                                          'InLine' => 1,
                                          'Line' => '808',
                                          'MnglName' => '_ZNSt7__cxx1112basic_stringIcSt11char_traitsIcESaIcEED0Ev',
                                          'Param' => {
                                                       '0' => {
                                                                'name' => 'this',
                                                                'type' => '157053'
                                                              }
                                                     },
                                          'ShortName' => 'basic_string'
                                        },
                            '177595' => {
                                          'Class' => '152669',
                                          'Destructor' => 1,
                                          'Header' => 'metadata.hpp',
                                          'MnglName' => '_ZN4zeno7reflect14IMetadataValueD0Ev',
                                          'Param' => {
                                                       '0' => {
                                                                'name' => 'this',
                                                                'type' => '157353'
                                                              }
                                                     },
                                          'ShortName' => 'IMetadataValue',
                                          'Source' => 'metadata.cpp',
                                          'SourceLine' => '143',
                                          'Virt' => 1
                                        },
                            '177596' => {
                                          'Class' => '152669',
                                          'Destructor' => 1,
                                          'Header' => 'metadata.hpp',
                                          'MnglName' => '_ZN4zeno7reflect14IMetadataValueD1Ev',
                                          'Param' => {
                                                       '0' => {
                                                                'name' => 'this',
                                                                'type' => '157353'
                                                              }
                                                     },
                                          'ShortName' => 'IMetadataValue',
                                          'Source' => 'metadata.cpp',
                                          'SourceLine' => '143',
                                          'Virt' => 1
                                        },
                            '177639' => {
                                          'Class' => '152669',
                                          'Destructor' => 1,
                                          'Header' => 'metadata.hpp',
                                          'MnglName' => '_ZN4zeno7reflect14IMetadataValueD2Ev',
                                          'Param' => {
                                                       '0' => {
                                                                'name' => 'this',
                                                                'type' => '157353'
                                                              }
                                                     },
                                          'ShortName' => 'IMetadataValue',
                                          'Source' => 'metadata.cpp',
                                          'SourceLine' => '143',
                                          'Virt' => 1
                                        },
                            '177869' => {
                                          'Class' => '86718',
                                          'Destructor' => 1,
                                          'Header' => 'metadata.hpp',
                                          'MnglName' => '_ZN4zeno7reflect12IRawMetadataD0Ev',
                                          'Param' => {
                                                       '0' => {
                                                                'name' => 'this',
                                                                'type' => '157838'
                                                              }
                                                     },
                                          'ShortName' => 'IRawMetadata',
                                          'Source' => 'metadata.cpp',
                                          'SourceLine' => '119',
                                          'Virt' => 1
                                        },
                            '177870' => {
                                          'Class' => '86718',
                                          'Destructor' => 1,
                                          'Header' => 'metadata.hpp',
                                          'MnglName' => '_ZN4zeno7reflect12IRawMetadataD1Ev',
                                          'Param' => {
                                                       '0' => {
                                                                'name' => 'this',
                                                                'type' => '157838'
                                                              }
                                                     },
                                          'ShortName' => 'IRawMetadata',
                                          'Source' => 'metadata.cpp',
                                          'SourceLine' => '119',
                                          'Virt' => 1
                                        },
                            '177913' => {
                                          'Class' => '86718',
                                          'Destructor' => 1,
                                          'Header' => 'metadata.hpp',
                                          'MnglName' => '_ZN4zeno7reflect12IRawMetadataD2Ev',
                                          'Param' => {
                                                       '0' => {
                                                                'name' => 'this',
                                                                'type' => '157838'
                                                              }
                                                     },
                                          'ShortName' => 'IRawMetadata',
                                          'Source' => 'metadata.cpp',
                                          'SourceLine' => '119',
                                          'Virt' => 1
                                        },
                            '178429' => {
                                          'Artificial' => 1,
                                          'Class' => '157868',
                                          'Constructor' => 1,
                                          'InLine' => 1,
                                          'Line' => '92',
                                          'MnglName' => '_ZN11RawMetadataC2Ev',
                                          'Param' => {
                                                       '0' => {
                                                                'name' => 'this',
                                                                'type' => '158120'
                                                              }
                                                     },
                                          'ShortName' => 'RawMetadata',
                                          'Source' => 'metadata.cpp'
                                        },
                            '178430' => {
                                          'Artificial' => 1,
                                          'Class' => '157868',
                                          'Constructor' => 1,
                                          'InLine' => 1,
                                          'Line' => '92',
                                          'MnglName' => '_ZN11RawMetadataC1Ev',
                                          'Param' => {
                                                       '0' => {
                                                                'name' => 'this',
                                                                'type' => '158120'
                                                              }
                                                     },
                                          'ShortName' => 'RawMetadata',
                                          'Source' => 'metadata.cpp'
                                        },
                            '178506' => {
                                          'Artificial' => 1,
                                          'Class' => '133374',
                                          'Destructor' => 1,
                                          'Header' => 'stl_map.h',
                                          'InLine' => 1,
                                          'Line' => '314',
                                          'MnglName' => '_ZNSt3mapINSt7__cxx1112basic_stringIcSt11char_traitsIcESaIcEEEN4zeno7reflect9UniquePtrINS7_14IMetadataValueEEESt4lessIS5_ESaISt4pairIKS5_SA_EEED2Ev',
                                          'Param' => {
                                                       '0' => {
                                                                'name' => 'this',
                                                                'type' => '157618'
                                                              }
                                                     },
                                          'ShortName' => 'map'
                                        },
                            '178507' => {
                                          'Artificial' => 1,
                                          'Class' => '133374',
                                          'Destructor' => 1,
                                          'Header' => 'stl_map.h',
                                          'InLine' => 1,
                                          'Line' => '314',
                                          'MnglName' => '_ZNSt3mapINSt7__cxx1112basic_stringIcSt11char_traitsIcESaIcEEEN4zeno7reflect9UniquePtrINS7_14IMetadataValueEEESt4lessIS5_ESaISt4pairIKS5_SA_EEED0Ev',
                                          'Param' => {
                                                       '0' => {
                                                                'name' => 'this',
                                                                'type' => '157618'
                                                              }
                                                     },
                                          'ShortName' => 'map'
                                        },
                            '178574' => {
                                          'Artificial' => 1,
                                          'Class' => '133374',
                                          'Constructor' => 1,
                                          'Header' => 'stl_map.h',
                                          'InLine' => 1,
                                          'Line' => '197',
                                          'MnglName' => '_ZNSt3mapINSt7__cxx1112basic_stringIcSt11char_traitsIcESaIcEEEN4zeno7reflect9UniquePtrINS7_14IMetadataValueEEESt4lessIS5_ESaISt4pairIKS5_SA_EEEC2Ev',
                                          'Param' => {
                                                       '0' => {
                                                                'name' => 'this',
                                                                'type' => '157618'
                                                              }
                                                     },
                                          'ShortName' => 'map'
                                        },
                            '178575' => {
                                          'Artificial' => 1,
                                          'Class' => '133374',
                                          'Constructor' => 1,
                                          'Header' => 'stl_map.h',
                                          'InLine' => 1,
                                          'Line' => '197',
                                          'MnglName' => '_ZNSt3mapINSt7__cxx1112basic_stringIcSt11char_traitsIcESaIcEEEN4zeno7reflect9UniquePtrINS7_14IMetadataValueEEESt4lessIS5_ESaISt4pairIKS5_SA_EEEC1Ev',
                                          'Param' => {
                                                       '0' => {
                                                                'name' => 'this',
                                                                'type' => '157618'
                                                              }
                                                     },
                                          'ShortName' => 'map'
                                        },
                            '178642' => {
                                          'Artificial' => 1,
                                          'Class' => '128193',
                                          'Constructor' => 1,
                                          'Header' => 'stl_tree.h',
                                          'InLine' => 1,
                                          'Line' => '926',
                                          'MnglName' => '_ZNSt8_Rb_treeINSt7__cxx1112basic_stringIcSt11char_traitsIcESaIcEEESt4pairIKS5_N4zeno7reflect9UniquePtrINS9_14IMetadataValueEEEESt10_Select1stISD_ESt4lessIS5_ESaISD_EEC2Ev',
                                          'Param' => {
                                                       '0' => {
                                                                'name' => 'this',
                                                                'type' => '157548'
                                                              }
                                                     },
                                          'ShortName' => '_Rb_tree'
                                        },
                            '178643' => {
                                          'Artificial' => 1,
                                          'Class' => '128193',
                                          'Constructor' => 1,
                                          'Header' => 'stl_tree.h',
                                          'InLine' => 1,
                                          'Line' => '926',
                                          'MnglName' => '_ZNSt8_Rb_treeINSt7__cxx1112basic_stringIcSt11char_traitsIcESaIcEEESt4pairIKS5_N4zeno7reflect9UniquePtrINS9_14IMetadataValueEEEESt10_Select1stISD_ESt4lessIS5_ESaISD_EEC1Ev',
                                          'Param' => {
                                                       '0' => {
                                                                'name' => 'this',
                                                                'type' => '157548'
                                                              }
                                                     },
                                          'ShortName' => '_Rb_tree'
                                        },
                            '178723' => {
                                          'Artificial' => 1,
                                          'Class' => '128207',
                                          'Destructor' => 1,
                                          'Header' => 'stl_tree.h',
                                          'InLine' => 1,
                                          'Line' => '658',
                                          'MnglName' => '_ZNSt8_Rb_treeINSt7__cxx1112basic_stringIcSt11char_traitsIcESaIcEEESt4pairIKS5_N4zeno7reflect9UniquePtrINS9_14IMetadataValueEEEESt10_Select1stISD_ESt4lessIS5_ESaISD_EE13_Rb_tree_implISH_Lb1EED2Ev',
                                          'Param' => {
                                                       '0' => {
                                                                'name' => 'this',
                                                                'type' => '157518'
                                                              }
                                                     },
                                          'ShortName' => '_Rb_tree_impl'
                                        },
                            '178724' => {
                                          'Artificial' => 1,
                                          'Class' => '128207',
                                          'Destructor' => 1,
                                          'Header' => 'stl_tree.h',
                                          'InLine' => 1,
                                          'Line' => '658',
                                          'MnglName' => '_ZNSt8_Rb_treeINSt7__cxx1112basic_stringIcSt11char_traitsIcESaIcEEESt4pairIKS5_N4zeno7reflect9UniquePtrINS9_14IMetadataValueEEEESt10_Select1stISD_ESt4lessIS5_ESaISD_EE13_Rb_tree_implISH_Lb1EED0Ev',
                                          'Param' => {
                                                       '0' => {
                                                                'name' => 'this',
                                                                'type' => '157518'
                                                              }
                                                     },
                                          'ShortName' => '_Rb_tree_impl'
                                        },
                            '178827' => {
                                          'Artificial' => 1,
                                          'Class' => '86718',
                                          'Constructor' => 1,
                                          'Header' => 'metadata.hpp',
                                          'InLine' => 1,
                                          'Line' => '34',
                                          'MnglName' => '_ZN4zeno7reflect12IRawMetadataC2Ev',
                                          'Param' => {
                                                       '0' => {
                                                                'name' => 'this',
                                                                'type' => '157838'
                                                              }
                                                     },
                                          'ShortName' => 'IRawMetadata'
                                        },
                            '178828' => {
                                          'Artificial' => 1,
                                          'Class' => '86718',
                                          'Constructor' => 1,
                                          'Header' => 'metadata.hpp',
                                          'InLine' => 1,
                                          'Line' => '34',
                                          'MnglName' => '_ZN4zeno7reflect12IRawMetadataC1Ev',
                                          'Param' => {
                                                       '0' => {
                                                                'name' => 'this',
                                                                'type' => '157838'
                                                              }
                                                     },
                                          'ShortName' => 'IRawMetadata'
                                        },
                            '179201' => {
                                          'Artificial' => 1,
                                          'Class' => '159061',
                                          'Constructor' => 1,
                                          'InLine' => 1,
                                          'Line' => '47',
                                          'MnglName' => '_ZN18FloatMetadataValueC2Ef',
                                          'Param' => {
                                                       '0' => {
                                                                'name' => 'this',
                                                                'type' => '159307'
                                                              },
                                                       '1' => {
                                                                'name' => 'value',
                                                                'type' => '4641'
                                                              }
                                                     },
                                          'ShortName' => 'FloatMetadataValue',
                                          'Source' => 'metadata.cpp'
                                        },
                            '179202' => {
                                          'Artificial' => 1,
                                          'Class' => '159061',
                                          'Constructor' => 1,
                                          'InLine' => 1,
                                          'Line' => '47',
                                          'MnglName' => '_ZN18FloatMetadataValueC1Ef',
                                          'Param' => {
                                                       '0' => {
                                                                'name' => 'this',
                                                                'type' => '159307'
                                                              },
                                                       '1' => {
                                                                'name' => 'value',
                                                                'type' => '4641'
                                                              }
                                                     },
                                          'ShortName' => 'FloatMetadataValue',
                                          'Source' => 'metadata.cpp'
                                        },
                            '179377' => {
                                          'Artificial' => 1,
                                          'Class' => '158785',
                                          'Constructor' => 1,
                                          'InLine' => 1,
                                          'Line' => '31',
                                          'MnglName' => '_ZN16IntMetadataValueC2Ei',
                                          'Param' => {
                                                       '0' => {
                                                                'name' => 'this',
                                                                'type' => '159031'
                                                              },
                                                       '1' => {
                                                                'name' => 'value',
                                                                'type' => '132'
                                                              }
                                                     },
                                          'ShortName' => 'IntMetadataValue',
                                          'Source' => 'metadata.cpp'
                                        },
                            '179378' => {
                                          'Artificial' => 1,
                                          'Class' => '158785',
                                          'Constructor' => 1,
                                          'InLine' => 1,
                                          'Line' => '31',
                                          'MnglName' => '_ZN16IntMetadataValueC1Ei',
                                          'Param' => {
                                                       '0' => {
                                                                'name' => 'this',
                                                                'type' => '159031'
                                                              },
                                                       '1' => {
                                                                'name' => 'value',
                                                                'type' => '132'
                                                              }
                                                     },
                                          'ShortName' => 'IntMetadataValue',
                                          'Source' => 'metadata.cpp'
                                        },
                            '179553' => {
                                          'Artificial' => 1,
                                          'Class' => '158150',
                                          'Constructor' => 1,
                                          'InLine' => 1,
                                          'Line' => '15',
                                          'MnglName' => '_ZN19StringMetadataValueC2EN4zeno7reflect13simple_stringE',
                                          'Param' => {
                                                       '0' => {
                                                                'name' => 'this',
                                                                'type' => '158396'
                                                              },
                                                       '1' => {
                                                                'name' => 'value',
                                                                'type' => '47969'
                                                              }
                                                     },
                                          'ShortName' => 'StringMetadataValue',
                                          'Source' => 'metadata.cpp'
                                        },
                            '179554' => {
                                          'Artificial' => 1,
                                          'Class' => '158150',
                                          'Constructor' => 1,
                                          'InLine' => 1,
                                          'Line' => '15',
                                          'MnglName' => '_ZN19StringMetadataValueC1EN4zeno7reflect13simple_stringE',
                                          'Param' => {
                                                       '0' => {
                                                                'name' => 'this',
                                                                'type' => '158396'
                                                              },
                                                       '1' => {
                                                                'name' => 'value',
                                                                'type' => '47969'
                                                              }
                                                     },
                                          'ShortName' => 'StringMetadataValue',
                                          'Source' => 'metadata.cpp'
                                        },
                            '179632' => {
                                          'Artificial' => 1,
                                          'Class' => '152669',
                                          'Constructor' => 1,
                                          'Header' => 'metadata.hpp',
                                          'InLine' => 1,
                                          'Line' => '12',
                                          'MnglName' => '_ZN4zeno7reflect14IMetadataValueC2Ev',
                                          'Param' => {
                                                       '0' => {
                                                                'name' => 'this',
                                                                'type' => '157353'
                                                              }
                                                     },
                                          'ShortName' => 'IMetadataValue'
                                        },
                            '179633' => {
                                          'Artificial' => 1,
                                          'Class' => '152669',
                                          'Constructor' => 1,
                                          'Header' => 'metadata.hpp',
                                          'InLine' => 1,
                                          'Line' => '12',
                                          'MnglName' => '_ZN4zeno7reflect14IMetadataValueC1Ev',
                                          'Param' => {
                                                       '0' => {
                                                                'name' => 'this',
                                                                'type' => '157353'
                                                              }
                                                     },
                                          'ShortName' => 'IMetadataValue'
                                        },
                            '179750' => {
                                          'Artificial' => 1,
                                          'Class' => '13805',
                                          'Destructor' => 1,
                                          'Header' => 'allocator.h',
                                          'InLine' => 1,
                                          'Line' => '182',
                                          'MnglName' => '_ZNSaIcED2Ev',
                                          'Param' => {
                                                       '0' => {
                                                                'name' => 'this',
                                                                'type' => '156547'
                                                              }
                                                     },
                                          'ShortName' => 'allocator'
                                        },
                            '179751' => {
                                          'Artificial' => 1,
                                          'Class' => '13805',
                                          'Destructor' => 1,
                                          'Header' => 'allocator.h',
                                          'InLine' => 1,
                                          'Line' => '182',
                                          'MnglName' => '_ZNSaIcED0Ev',
                                          'Param' => {
                                                       '0' => {
                                                                'name' => 'this',
                                                                'type' => '156547'
                                                              }
                                                     },
                                          'ShortName' => 'allocator'
                                        },
                            '179808' => {
                                          'Artificial' => 1,
                                          'Class' => '18478',
                                          'Destructor' => 1,
                                          'Header' => 'basic_string.h',
                                          'InLine' => 1,
                                          'Line' => '186',
                                          'MnglName' => '_ZNSt7__cxx1112basic_stringIcSt11char_traitsIcESaIcEE12_Alloc_hiderD2Ev',
                                          'Param' => {
                                                       '0' => {
                                                                'name' => 'this',
                                                                'type' => '157033'
                                                              }
                                                     },
                                          'ShortName' => '_Alloc_hider'
                                        },
                            '179809' => {
                                          'Artificial' => 1,
                                          'Class' => '18478',
                                          'Destructor' => 1,
                                          'Header' => 'basic_string.h',
                                          'InLine' => 1,
                                          'Line' => '186',
                                          'MnglName' => '_ZNSt7__cxx1112basic_stringIcSt11char_traitsIcESaIcEE12_Alloc_hiderD0Ev',
                                          'Param' => {
                                                       '0' => {
                                                                'name' => 'this',
                                                                'type' => '157033'
                                                              }
                                                     },
                                          'ShortName' => '_Alloc_hider'
                                        },
                            '179914' => {
                                          'Artificial' => 1,
                                          'Class' => '13566',
                                          'Constructor' => 1,
                                          'Header' => 'new_allocator.h',
                                          'InLine' => 1,
                                          'Line' => '92',
                                          'MnglName' => '_ZNSt15__new_allocatorIcEC2ERKS0_',
                                          'Param' => {
                                                       '0' => {
                                                                'name' => 'this',
                                                                'type' => '156517'
                                                              },
                                                       '1' => {
                                                                'name' => 'p1',
                                                                'type' => '49471'
                                                              }
                                                     },
                                          'ShortName' => '__new_allocator'
                                        },
                            '179915' => {
                                          'Artificial' => 1,
                                          'Class' => '13566',
                                          'Constructor' => 1,
                                          'Header' => 'new_allocator.h',
                                          'InLine' => 1,
                                          'Line' => '92',
                                          'MnglName' => '_ZNSt15__new_allocatorIcEC1ERKS0_',
                                          'Param' => {
                                                       '0' => {
                                                                'name' => 'this',
                                                                'type' => '156517'
                                                              },
                                                       '1' => {
                                                                'name' => 'p1',
                                                                'type' => '49471'
                                                              }
                                                     },
                                          'ShortName' => '__new_allocator'
                                        },
                            '179978' => {
                                          'Artificial' => 1,
                                          'Class' => '13805',
                                          'Constructor' => 1,
                                          'Header' => 'allocator.h',
                                          'InLine' => 1,
                                          'Line' => '165',
                                          'MnglName' => '_ZNSaIcEC2ERKS_',
                                          'Param' => {
                                                       '0' => {
                                                                'name' => 'this',
                                                                'type' => '156547'
                                                              },
                                                       '1' => {
                                                                'name' => '__a',
                                                                'type' => '49491'
                                                              }
                                                     },
                                          'ShortName' => 'allocator'
                                        },
                            '179979' => {
                                          'Artificial' => 1,
                                          'Class' => '13805',
                                          'Constructor' => 1,
                                          'Header' => 'allocator.h',
                                          'InLine' => 1,
                                          'Line' => '165',
                                          'MnglName' => '_ZNSaIcEC1ERKS_',
                                          'Param' => {
                                                       '0' => {
                                                                'name' => 'this',
                                                                'type' => '156547'
                                                              },
                                                       '1' => {
                                                                'name' => '__a',
                                                                'type' => '49491'
                                                              }
                                                     },
                                          'ShortName' => 'allocator'
                                        },
                            '180111' => {
                                          'Artificial' => 1,
                                          'Class' => '18478',
                                          'Constructor' => 1,
                                          'Header' => 'basic_string.h',
                                          'InLine' => 1,
                                          'Line' => '197',
                                          'MnglName' => '_ZNSt7__cxx1112basic_stringIcSt11char_traitsIcESaIcEE12_Alloc_hiderC2EPcOS3_',
                                          'Param' => {
                                                       '0' => {
                                                                'name' => 'this',
                                                                'type' => '157033'
                                                              },
                                                       '1' => {
                                                                'name' => '__dat',
                                                                'type' => '18583'
                                                              },
                                                       '2' => {
                                                                'name' => '__a',
                                                                'type' => '50090'
                                                              }
                                                     },
                                          'ShortName' => '_Alloc_hider'
                                        },
                            '180112' => {
                                          'Artificial' => 1,
                                          'Class' => '18478',
                                          'Constructor' => 1,
                                          'Header' => 'basic_string.h',
                                          'InLine' => 1,
                                          'Line' => '197',
                                          'MnglName' => '_ZNSt7__cxx1112basic_stringIcSt11char_traitsIcESaIcEE12_Alloc_hiderC1EPcOS3_',
                                          'Param' => {
                                                       '0' => {
                                                                'name' => 'this',
                                                                'type' => '157033'
                                                              },
                                                       '1' => {
                                                                'name' => '__dat',
                                                                'type' => '18583'
                                                              },
                                                       '2' => {
                                                                'name' => '__a',
                                                                'type' => '50090'
                                                              }
                                                     },
                                          'ShortName' => '_Alloc_hider'
                                        },
                            '180278' => {
                                          'Artificial' => 1,
                                          'Class' => '13566',
                                          'Constructor' => 1,
                                          'Header' => 'new_allocator.h',
                                          'InLine' => 1,
                                          'Line' => '88',
                                          'MnglName' => '_ZNSt15__new_allocatorIcEC2Ev',
                                          'Param' => {
                                                       '0' => {
                                                                'name' => 'this',
                                                                'type' => '156517'
                                                              }
                                                     },
                                          'ShortName' => '__new_allocator'
                                        },
                            '180279' => {
                                          'Artificial' => 1,
                                          'Class' => '13566',
                                          'Constructor' => 1,
                                          'Header' => 'new_allocator.h',
                                          'InLine' => 1,
                                          'Line' => '88',
                                          'MnglName' => '_ZNSt15__new_allocatorIcEC1Ev',
                                          'Param' => {
                                                       '0' => {
                                                                'name' => 'this',
                                                                'type' => '156517'
                                                              }
                                                     },
                                          'ShortName' => '__new_allocator'
                                        },
                            '180325' => {
                                          'Artificial' => 1,
                                          'Class' => '13805',
                                          'Constructor' => 1,
                                          'Header' => 'allocator.h',
                                          'InLine' => 1,
                                          'Line' => '161',
                                          'MnglName' => '_ZNSaIcEC2Ev',
                                          'Param' => {
                                                       '0' => {
                                                                'name' => 'this',
                                                                'type' => '156547'
                                                              }
                                                     },
                                          'ShortName' => 'allocator'
                                        },
                            '180326' => {
                                          'Artificial' => 1,
                                          'Class' => '13805',
                                          'Constructor' => 1,
                                          'Header' => 'allocator.h',
                                          'InLine' => 1,
                                          'Line' => '161',
                                          'MnglName' => '_ZNSaIcEC1Ev',
                                          'Param' => {
                                                       '0' => {
                                                                'name' => 'this',
                                                                'type' => '156547'
                                                              }
                                                     },
                                          'ShortName' => 'allocator'
                                        },
                            '18666' => {
                                         'Class' => '18465',
                                         'Header' => 'basic_string.h',
                                         'InLine' => 2,
                                         'Line' => '129',
                                         'MnglName' => '_ZNSt7__cxx1112basic_stringIcSt11char_traitsIcESaIcEE11_S_allocateERS3_m',
                                         'Param' => {
                                                      '0' => {
                                                               'name' => '__a',
                                                               'type' => '50095'
                                                             },
                                                      '1' => {
                                                               'name' => '__n',
                                                               'type' => '18653'
                                                             }
                                                    },
                                         'Private' => 1,
                                         'Return' => '18583',
                                         'ShortName' => '_S_allocate',
                                         'Static' => 1
                                       },
                            '18874' => {
                                         'Class' => '18465',
                                         'Header' => 'basic_string.h',
                                         'InLine' => 2,
                                         'Line' => '217',
                                         'MnglName' => '_ZNSt7__cxx1112basic_stringIcSt11char_traitsIcESaIcEE7_M_dataEPc',
                                         'Param' => {
                                                      '0' => {
                                                               'name' => 'this',
                                                               'type' => '157053'
                                                             },
                                                      '1' => {
                                                               'name' => '__p',
                                                               'type' => '18583'
                                                             }
                                                    },
                                         'Private' => 1,
                                         'Return' => '1',
                                         'ShortName' => '_M_data'
                                       },
                            '18905' => {
                                         'Class' => '18465',
                                         'Header' => 'basic_string.h',
                                         'InLine' => 2,
                                         'Line' => '222',
                                         'MnglName' => '_ZNSt7__cxx1112basic_stringIcSt11char_traitsIcESaIcEE9_M_lengthEm',
                                         'Param' => {
                                                      '0' => {
                                                               'name' => 'this',
                                                               'type' => '157053'
                                                             },
                                                      '1' => {
                                                               'name' => '__length',
                                                               'type' => '18653'
                                                             }
                                                    },
                                         'Private' => 1,
                                         'Return' => '1',
                                         'ShortName' => '_M_length'
                                       },
                            '18936' => {
                                         'Class' => '18465',
                                         'Const' => 1,
                                         'Header' => 'basic_string.h',
                                         'InLine' => 2,
                                         'Line' => '227',
                                         'MnglName' => '_ZNKSt7__cxx1112basic_stringIcSt11char_traitsIcESaIcEE7_M_dataEv',
                                         'Param' => {
                                                      '0' => {
                                                               'name' => 'this',
                                                               'type' => '157063'
                                                             }
                                                    },
                                         'Private' => 1,
                                         'Return' => '18583',
                                         'ShortName' => '_M_data'
                                       },
                            '18966' => {
                                         'Class' => '18465',
                                         'Header' => 'basic_string.h',
                                         'InLine' => 2,
                                         'Line' => '232',
                                         'MnglName' => '_ZNSt7__cxx1112basic_stringIcSt11char_traitsIcESaIcEE13_M_local_dataEv',
                                         'Param' => {
                                                      '0' => {
                                                               'name' => 'this',
                                                               'type' => '157053'
                                                             }
                                                    },
                                         'Private' => 1,
                                         'Return' => '18583',
                                         'ShortName' => '_M_local_data'
                                       },
                            '19009' => {
                                         'Class' => '18465',
                                         'Const' => 1,
                                         'Header' => 'basic_string.h',
                                         'InLine' => 2,
                                         'Line' => '243',
                                         'MnglName' => '_ZNKSt7__cxx1112basic_stringIcSt11char_traitsIcESaIcEE13_M_local_dataEv',
                                         'Param' => {
                                                      '0' => {
                                                               'name' => 'this',
                                                               'type' => '157063'
                                                             }
                                                    },
                                         'Private' => 1,
                                         'Return' => '18996',
                                         'ShortName' => '_M_local_data'
                                       },
                            '19039' => {
                                         'Class' => '18465',
                                         'Header' => 'basic_string.h',
                                         'InLine' => 2,
                                         'Line' => '254',
                                         'MnglName' => '_ZNSt7__cxx1112basic_stringIcSt11char_traitsIcESaIcEE11_M_capacityEm',
                                         'Param' => {
                                                      '0' => {
                                                               'name' => 'this',
                                                               'type' => '157053'
                                                             },
                                                      '1' => {
                                                               'name' => '__capacity',
                                                               'type' => '18653'
                                                             }
                                                    },
                                         'Private' => 1,
                                         'Return' => '1',
                                         'ShortName' => '_M_capacity'
                                       },
                            '19070' => {
                                         'Class' => '18465',
                                         'Header' => 'basic_string.h',
                                         'InLine' => 2,
                                         'Line' => '259',
                                         'MnglName' => '_ZNSt7__cxx1112basic_stringIcSt11char_traitsIcESaIcEE13_M_set_lengthEm',
                                         'Param' => {
                                                      '0' => {
                                                               'name' => 'this',
                                                               'type' => '157053'
                                                             },
                                                      '1' => {
                                                               'name' => '__n',
                                                               'type' => '18653'
                                                             }
                                                    },
                                         'Private' => 1,
                                         'Return' => '1',
                                         'ShortName' => '_M_set_length'
                                       },
                            '19102' => {
                                         'Class' => '18465',
                                         'Const' => 1,
                                         'Header' => 'basic_string.h',
                                         'InLine' => 2,
                                         'Line' => '267',
                                         'MnglName' => '_ZNKSt7__cxx1112basic_stringIcSt11char_traitsIcESaIcEE11_M_is_localEv',
                                         'Param' => {
                                                      '0' => {
                                                               'name' => 'this',
                                                               'type' => '157063'
                                                             }
                                                    },
                                         'Private' => 1,
                                         'Return' => '2273',
                                         'ShortName' => '_M_is_local'
                                       },
                            '19133' => {
                                         'Class' => '18465',
                                         'Header' => 'basic_string.tcc',
                                         'InLine' => 2,
                                         'Line' => '138',
                                         'MnglName' => '_ZNSt7__cxx1112basic_stringIcSt11char_traitsIcESaIcEE9_M_createERmm',
                                         'Param' => {
                                                      '0' => {
                                                               'name' => 'this',
                                                               'type' => '157053'
                                                             },
                                                      '1' => {
                                                               'name' => '__capacity',
                                                               'type' => '50110'
                                                             },
                                                      '2' => {
                                                               'name' => '__old_capacity',
                                                               'type' => '18653'
                                                             }
                                                    },
                                         'Private' => 1,
                                         'Return' => '18583',
                                         'ShortName' => '_M_create'
                                       },
                            '19174' => {
                                         'Class' => '18465',
                                         'Header' => 'basic_string.h',
                                         'InLine' => 2,
                                         'Line' => '285',
                                         'MnglName' => '_ZNSt7__cxx1112basic_stringIcSt11char_traitsIcESaIcEE10_M_disposeEv',
                                         'Param' => {
                                                      '0' => {
                                                               'name' => 'this',
                                                               'type' => '157053'
                                                             }
                                                    },
                                         'Private' => 1,
                                         'Return' => '1',
                                         'ShortName' => '_M_dispose'
                                       },
                            '19201' => {
                                         'Class' => '18465',
                                         'Header' => 'basic_string.h',
                                         'InLine' => 2,
                                         'Line' => '293',
                                         'MnglName' => '_ZNSt7__cxx1112basic_stringIcSt11char_traitsIcESaIcEE10_M_destroyEm',
                                         'Param' => {
                                                      '0' => {
                                                               'name' => 'this',
                                                               'type' => '157053'
                                                             },
                                                      '1' => {
                                                               'name' => '__size',
                                                               'type' => '18653'
                                                             }
                                                    },
                                         'Private' => 1,
                                         'Return' => '1',
                                         'ShortName' => '_M_destroy'
                                       },
                            '19288' => {
                                         'Class' => '18465',
                                         'Header' => 'basic_string.h',
                                         'InLine' => 2,
                                         'Line' => '341',
                                         'MnglName' => '_ZNSt7__cxx1112basic_stringIcSt11char_traitsIcESaIcEE16_M_get_allocatorEv',
                                         'Param' => {
                                                      '0' => {
                                                               'name' => 'this',
                                                               'type' => '157053'
                                                             }
                                                    },
                                         'Private' => 1,
                                         'Return' => '50115',
                                         'ShortName' => '_M_get_allocator'
                                       },
                            '19319' => {
                                         'Class' => '18465',
                                         'Const' => 1,
                                         'Header' => 'basic_string.h',
                                         'InLine' => 2,
                                         'Line' => '346',
                                         'MnglName' => '_ZNKSt7__cxx1112basic_stringIcSt11char_traitsIcESaIcEE16_M_get_allocatorEv',
                                         'Param' => {
                                                      '0' => {
                                                               'name' => 'this',
                                                               'type' => '157063'
                                                             }
                                                    },
                                         'Private' => 1,
                                         'Return' => '50120',
                                         'ShortName' => '_M_get_allocator'
                                       },
                            '19568' => {
                                         'Class' => '18465',
                                         'Header' => 'basic_string.h',
                                         'InLine' => 2,
                                         'Line' => '430',
                                         'MnglName' => '_ZNSt7__cxx1112basic_stringIcSt11char_traitsIcESaIcEE7_S_copyEPcPKcm',
                                         'Param' => {
                                                      '0' => {
                                                               'name' => '__d',
                                                               'type' => '328'
                                                             },
                                                      '1' => {
                                                               'name' => '__s',
                                                               'type' => '2344'
                                                             },
                                                      '2' => {
                                                               'name' => '__n',
                                                               'type' => '18653'
                                                             }
                                                    },
                                         'Private' => 1,
                                         'Return' => '1',
                                         'ShortName' => '_S_copy',
                                         'Static' => 1
                                       },
                            '196183' => {
                                          'Header' => 'move.h',
                                          'InLine' => 2,
                                          'Line' => '126',
                                          'MnglName' => '_ZSt4moveIRcEONSt16remove_referenceIT_E4typeEOS2_',
                                          'NameSpace' => 'std',
                                          'Param' => {
                                                       '0' => {
                                                                'name' => '__t',
                                                                'type' => '50786'
                                                              }
                                                     },
                                          'Return' => '206444',
                                          'ShortName' => 'move<char&>',
                                          'TParam' => {
                                                        '0' => {
                                                                 'key' => '_Tp',
                                                                 'type' => '50786'
                                                               }
                                                      }
                                        },
                            '196253' => {
                                          'Header' => 'move.h',
                                          'InLine' => 2,
                                          'Line' => '213',
                                          'MnglName' => '_ZSt4swapIcENSt9enable_ifIXsrSt6__and_IJSt6__not_ISt15__is_tuple_likeIT_EESt21is_move_constructibleIS4_ESt18is_move_assignableIS4_EEE5valueEvE4typeERS4_SE_',
                                          'NameSpace' => 'std',
                                          'Param' => {
                                                       '0' => {
                                                                'name' => '__a',
                                                                'type' => '50786'
                                                              },
                                                       '1' => {
                                                                'name' => '__b',
                                                                'type' => '50786'
                                                              }
                                                     },
                                          'Return' => '1',
                                          'ShortName' => 'swap<char>',
                                          'TParam' => {
                                                        '0' => {
                                                                 'key' => '_Tp',
                                                                 'type' => '333'
                                                               }
                                                      }
                                        },
                            '196289' => {
                                          'Header' => 'move.h',
                                          'InLine' => 2,
                                          'Line' => '70',
                                          'MnglName' => '_ZSt7forwardIRKN6__pstl9execution2v118unsequenced_policyEEOT_RNSt16remove_referenceIS6_E4typeE',
                                          'NameSpace' => 'std',
                                          'Param' => {
                                                       '0' => {
                                                                'name' => '__t',
                                                                'type' => '206799'
                                                              }
                                                     },
                                          'Return' => '206558',
                                          'ShortName' => 'forward<__pstl::execution::v1::unsequenced_policy const&>',
                                          'TParam' => {
                                                        '0' => {
                                                                 'key' => '_Tp',
                                                                 'type' => '206558'
                                                               }
                                                      }
                                        },
                            '196324' => {
                                          'Header' => 'move.h',
                                          'InLine' => 2,
                                          'Line' => '126',
                                          'MnglName' => '_ZSt4moveIRbEONSt16remove_referenceIT_E4typeEOS2_',
                                          'NameSpace' => 'std',
                                          'Param' => {
                                                       '0' => {
                                                                'name' => '__t',
                                                                'type' => '205645'
                                                              }
                                                     },
                                          'Return' => '206934',
                                          'ShortName' => 'move<bool&>',
                                          'TParam' => {
                                                        '0' => {
                                                                 'key' => '_Tp',
                                                                 'type' => '205645'
                                                               }
                                                      }
                                        },
                            '196359' => {
                                          'Header' => 'move.h',
                                          'InLine' => 2,
                                          'Line' => '126',
                                          'MnglName' => '_ZSt4moveIRPcEONSt16remove_referenceIT_E4typeEOS3_',
                                          'NameSpace' => 'std',
                                          'Param' => {
                                                       '0' => {
                                                                'name' => '__t',
                                                                'type' => '205820'
                                                              }
                                                     },
                                          'Return' => '206991',
                                          'ShortName' => 'move<char*&>',
                                          'TParam' => {
                                                        '0' => {
                                                                 'key' => '_Tp',
                                                                 'type' => '205820'
                                                               }
                                                      }
                                        },
                            '196394' => {
                                          'Header' => 'move.h',
                                          'InLine' => 2,
                                          'Line' => '213',
                                          'MnglName' => '_ZSt4swapImENSt9enable_ifIXsrSt6__and_IJSt6__not_ISt15__is_tuple_likeIT_EESt21is_move_constructibleIS4_ESt18is_move_assignableIS4_EEE5valueEvE4typeERS4_SE_',
                                          'NameSpace' => 'std',
                                          'Param' => {
                                                       '0' => {
                                                                'name' => '__a',
                                                                'type' => '50821'
                                                              },
                                                       '1' => {
                                                                'name' => '__b',
                                                                'type' => '50821'
                                                              }
                                                     },
                                          'Return' => '1',
                                          'ShortName' => 'swap<unsigned long>',
                                          'TParam' => {
                                                        '0' => {
                                                                 'key' => '_Tp',
                                                                 'type' => '51'
                                                               }
                                                      }
                                        },
                            '196430' => {
                                          'Header' => 'glue_algorithm_impl.h',
                                          'InLine' => 2,
                                          'Line' => '277',
                                          'MnglName' => '_ZSt11swap_rangesIRKN6__pstl9execution2v118unsequenced_policyEPcS6_ENSt9enable_ifIXsrNS2_19is_execution_policyINSt9remove_cvINSt16remove_referenceIT_E4typeEE4typeEEE5valueET1_E4typeEOSB_T0_SL_SH_',
                                          'NameSpace' => 'std',
                                          'Param' => {
                                                       '0' => {
                                                                'name' => '__exec',
                                                                'type' => '206558'
                                                              },
                                                       '1' => {
                                                                'name' => '__first1',
                                                                'type' => '328'
                                                              },
                                                       '2' => {
                                                                'name' => '__last1',
                                                                'type' => '328'
                                                              },
                                                       '3' => {
                                                                'name' => '__first2',
                                                                'type' => '328'
                                                              }
                                                     },
                                          'Return' => '204951',
                                          'ShortName' => 'swap_ranges<__pstl::execution::v1::unsequenced_policy const&, char*, char*>',
                                          'TParam' => {
                                                        '0' => {
                                                                 'key' => '_ExecutionPolicy',
                                                                 'type' => '206558'
                                                               },
                                                        '1' => {
                                                                 'key' => '_ForwardIterator1',
                                                                 'type' => '328'
                                                               },
                                                        '2' => {
                                                                 'key' => '_ForwardIterator2',
                                                                 'type' => '328'
                                                               }
                                                      }
                                        },
                            '196499' => {
                                          'Header' => 'move.h',
                                          'InLine' => 2,
                                          'Line' => '213',
                                          'MnglName' => '_ZSt4swapIbENSt9enable_ifIXsrSt6__and_IJSt6__not_ISt15__is_tuple_likeIT_EESt21is_move_constructibleIS4_ESt18is_move_assignableIS4_EEE5valueEvE4typeERS4_SE_',
                                          'NameSpace' => 'std',
                                          'Param' => {
                                                       '0' => {
                                                                'name' => '__a',
                                                                'type' => '205645'
                                                              },
                                                       '1' => {
                                                                'name' => '__b',
                                                                'type' => '205645'
                                                              }
                                                     },
                                          'Return' => '1',
                                          'ShortName' => 'swap<bool>',
                                          'TParam' => {
                                                        '0' => {
                                                                 'key' => '_Tp',
                                                                 'type' => '2273'
                                                               }
                                                      }
                                        },
                            '196535' => {
                                          'Header' => 'move.h',
                                          'InLine' => 2,
                                          'Line' => '213',
                                          'MnglName' => '_ZSt4swapIPcENSt9enable_ifIXsrSt6__and_IJSt6__not_ISt15__is_tuple_likeIT_EESt21is_move_constructibleIS5_ESt18is_move_assignableIS5_EEE5valueEvE4typeERS5_SF_',
                                          'NameSpace' => 'std',
                                          'Param' => {
                                                       '0' => {
                                                                'name' => '__a',
                                                                'type' => '205820'
                                                              },
                                                       '1' => {
                                                                'name' => '__b',
                                                                'type' => '205820'
                                                              }
                                                     },
                                          'Return' => '1',
                                          'ShortName' => 'swap<char*>',
                                          'TParam' => {
                                                        '0' => {
                                                                 'key' => '_Tp',
                                                                 'type' => '328'
                                                               }
                                                      }
                                        },
                            '19792' => {
                                         'Class' => '18465',
                                         'Header' => 'basic_string.h',
                                         'InLine' => 2,
                                         'Line' => '487',
                                         'MnglName' => '_ZNSt7__cxx1112basic_stringIcSt11char_traitsIcESaIcEE13_S_copy_charsEPcPKcS7_',
                                         'Param' => {
                                                      '0' => {
                                                               'name' => '__p',
                                                               'type' => '328'
                                                             },
                                                      '1' => {
                                                               'name' => '__k1',
                                                               'type' => '2344'
                                                             },
                                                      '2' => {
                                                               'name' => '__k2',
                                                               'type' => '2344'
                                                             }
                                                    },
                                         'Private' => 1,
                                         'Return' => '1',
                                         'ShortName' => '_S_copy_chars',
                                         'Static' => 1
                                       },
                            '19825' => {
                                         'Class' => '18465',
                                         'Header' => 'basic_string.h',
                                         'InLine' => 2,
                                         'Line' => '493',
                                         'MnglName' => '_ZNSt7__cxx1112basic_stringIcSt11char_traitsIcESaIcEE10_S_compareEmm',
                                         'Param' => {
                                                      '0' => {
                                                               'name' => '__n1',
                                                               'type' => '18653'
                                                             },
                                                      '1' => {
                                                               'name' => '__n2',
                                                               'type' => '18653'
                                                             }
                                                    },
                                         'Private' => 1,
                                         'Return' => '132',
                                         'ShortName' => '_S_compare',
                                         'Static' => 1
                                       },
                            '203696' => {
                                          'Class' => '47862',
                                          'Header' => 'string',
                                          'MnglName' => '_ZN4zeno7reflect13simple_stringaSERKS1_',
                                          'Param' => {
                                                       '0' => {
                                                                'name' => 'this',
                                                                'type' => '89175'
                                                              },
                                                       '1' => {
                                                                'name' => 'other',
                                                                'type' => '51162'
                                                              }
                                                     },
                                          'Return' => '175998',
                                          'ShortName' => 'operator=',
                                          'Source' => 'string.cpp',
                                          'SourceLine' => '54'
                                        },
                            '203731' => {
                                          'Class' => '47862',
                                          'Header' => 'string',
                                          'MnglName' => '_ZN4zeno7reflect13simple_stringaSEOS1_',
                                          'Param' => {
                                                       '0' => {
                                                                'name' => 'this',
                                                                'type' => '89175'
                                                              },
                                                       '1' => {
                                                                'name' => 'other',
                                                                'type' => '159964'
                                                              }
                                                     },
                                          'Return' => '175998',
                                          'ShortName' => 'operator=',
                                          'Source' => 'string.cpp',
                                          'SourceLine' => '62'
                                        },
                            '203801' => {
                                          'Class' => '47862',
                                          'Const' => 1,
                                          'Header' => 'string',
                                          'MnglName' => '_ZNK4zeno7reflect13simple_stringneERKS1_',
                                          'Param' => {
                                                       '0' => {
                                                                'name' => 'this',
                                                                'type' => '205932'
                                                              },
                                                       '1' => {
                                                                'name' => 'other',
                                                                'type' => '51162'
                                                              }
                                                     },
                                          'Return' => '2273',
                                          'ShortName' => 'operator!=',
                                          'Source' => 'string.cpp',
                                          'SourceLine' => '93'
                                        },
                            '203836' => {
                                          'Class' => '47862',
                                          'Const' => 1,
                                          'Header' => 'string',
                                          'MnglName' => '_ZNK4zeno7reflect13simple_stringeqEPKc',
                                          'Param' => {
                                                       '0' => {
                                                                'name' => 'this',
                                                                'type' => '205932'
                                                              },
                                                       '1' => {
                                                                'name' => 'other',
                                                                'type' => '2344'
                                                              }
                                                     },
                                          'Return' => '2273',
                                          'ShortName' => 'operator==',
                                          'Source' => 'string.cpp',
                                          'SourceLine' => '97'
                                        },
                            '203871' => {
                                          'Class' => '47862',
                                          'Const' => 1,
                                          'Header' => 'string',
                                          'MnglName' => '_ZNK4zeno7reflect13simple_stringneEPKc',
                                          'Param' => {
                                                       '0' => {
                                                                'name' => 'this',
                                                                'type' => '205932'
                                                              },
                                                       '1' => {
                                                                'name' => 'other',
                                                                'type' => '2344'
                                                              }
                                                     },
                                          'Return' => '2273',
                                          'ShortName' => 'operator!=',
                                          'Source' => 'string.cpp',
                                          'SourceLine' => '108'
                                        },
                            '203944' => {
                                          'Class' => '47862',
                                          'Const' => 1,
                                          'Header' => 'string',
                                          'MnglName' => '_ZNK4zeno7reflect13simple_string8is_emptyEv',
                                          'Param' => {
                                                       '0' => {
                                                                'name' => 'this',
                                                                'type' => '205932'
                                                              }
                                                     },
                                          'Return' => '2273',
                                          'ShortName' => 'is_empty',
                                          'Source' => 'string.cpp',
                                          'SourceLine' => '119'
                                        },
                            '203974' => {
                                          'Class' => '47862',
                                          'Header' => 'string',
                                          'MnglName' => '_ZN4zeno7reflect13simple_string4swapERS1_',
                                          'Param' => {
                                                       '0' => {
                                                                'name' => 'this',
                                                                'type' => '89175'
                                                              },
                                                       '1' => {
                                                                'name' => 'other',
                                                                'type' => '175998'
                                                              }
                                                     },
                                          'Return' => '1',
                                          'ShortName' => 'swap',
                                          'Source' => 'string.cpp',
                                          'SourceLine' => '124'
                                        },
                            '204005' => {
                                          'Class' => '47862',
                                          'Header' => 'string',
                                          'MnglName' => '_ZN4zeno7reflect13simple_stringcvSt17basic_string_viewIcSt11char_traitsIcEEEv',
                                          'Param' => {
                                                       '0' => {
                                                                'name' => 'this',
                                                                'type' => '89175'
                                                              }
                                                     },
                                          'Return' => '186478',
                                          'ShortName' => 'operator std::string_view',
                                          'Source' => 'string.cpp',
                                          'SourceLine' => '152'
                                        },
                            '204035' => {
                                          'Class' => '47862',
                                          'Const' => 1,
                                          'Header' => 'string',
                                          'MnglName' => '_ZNK4zeno7reflect13simple_stringcvPKcEv',
                                          'Param' => {
                                                       '0' => {
                                                                'name' => 'this',
                                                                'type' => '205932'
                                                              }
                                                     },
                                          'Return' => '2344',
                                          'ShortName' => 'operator char const*',
                                          'Source' => 'string.cpp',
                                          'SourceLine' => '157'
                                        },
                            '204065' => {
