$VAR1 = {
          'ABI_DUMPER_VERSION' => '1.3',
          'ABI_DUMP_VERSION' => '3.5',
          'Arch' => 'x86_64',
          'ClangVersion' => '18.1.8',
          'Headers' => {
                         '__stddef_size_t.h' => 1,
                         'algorithm_impl.h' => 1,
                         'aligned_buffer.h' => 1,
                         'alloc_traits.h' => 1,
                         'allocator.h' => 1,
                         'any' => 1,
                         'arraylist' => 1,
                         'basic_string.h' => 1,
                         'basic_string.tcc' => 1,
                         'c++allocator.h' => 1,
                         'c++config.h' => 1,
                         'char_traits.h' => 1,
                         'compare' => 1,
                         'execution_defs.h' => 1,
                         'execution_impl.h' => 1,
                         'exit.hpp' => 1,
                         'glue_algorithm_impl.h' => 1,
                         'initializer_list' => 1,
                         'metadata.hpp' => 1,
                         'move.h' => 1,
                         'new_allocator.h' => 1,
                         'ptr_traits.h' => 1,
                         'registry.hpp' => 1,
                         'stdint-intn.h' => 1,
                         'stdint-uintn.h' => 1,
                         'stl_algobase.h' => 1,
                         'stl_construct.h' => 1,
                         'stl_function.h' => 1,
                         'stl_iterator_base_types.h' => 1,
                         'stl_map.h' => 1,
                         'stl_pair.h' => 1,
                         'stl_tree.h' => 1,
                         'string' => 1,
                         'string_view' => 1,
                         'tuple' => 1,
                         'type.hpp' => 1,
                         'type_traits' => 1,
                         'typeinfo.hpp' => 1,
                         'types.h' => 1,
                         'unique_ptr' => 1,
                         'unseq_backend_simd.h' => 1,
                         'utility.h' => 1
                       },
          'Language' => 'C++',
          'LibraryName' => 'liblibreflect.so',
          'LibraryVersion' => '1',
          'MissedOffsets' => '1',
          'MissedRegs' => '1',
          'NameSpaces' => {
                            '__gnu_cxx' => 1,
                            '__pstl::__internal' => 1,
                            '__pstl::__unseq_backend' => 1,
                            '__pstl::execution::v1' => 1,
                            'std' => 1,
                            'std::__cmp_cat' => 1,
                            'std::__cxx11' => 1,
                            'std::__detail' => 1,
                            'std::__exception_ptr' => 1,
                            'zeno::reflect' => 1,
                            'zeno::reflect::any' => 1
                          },
          'Needed' => {
                        'libc.so.6' => 1,
                        'libgcc_s.so.1' => 1,
                        'libm.so.6' => 1,
                        'libstdc++.so.6' => 1
                      },
          'Sources' => {
                         'exit.cpp' => 1,
                         'memory.cpp' => 1,
                         'metadata.cpp' => 1,
                         'registry.cpp' => 1,
                         'string.cpp' => 1,
                         'type.cpp' => 1,
                         'typeinfo.cpp' => 1
                       },
          'SymbolInfo' => {
                            '102516' => {
                                          'Destructor' => 1,
                                          'Line' => '112',
                                          'MnglName' => '_ZN4zeno7reflect13simple_stringD2Ev',
                                          'Param' => {
                                                       '0' => {
                                                                'name' => 'this',
                                                                'type' => '97675'
                                                              }
                                                     },
                                          'Source' => 'string.cpp'
                                        },
                            '102518' => {
                                          'Class' => '6077',
                                          'Destructor' => 1,
                                          'Header' => 'registry.hpp',
                                          'Line' => '39',
                                          'MnglName' => '_ZN4zeno7reflect14ReflectTypeMapD1Ev',
                                          'Param' => {
                                                       '0' => {
                                                                'name' => 'this',
                                                                'type' => '19516'
                                                              }
                                                     },
                                          'ShortName' => '~ReflectTypeMap',
                                          'Source' => 'registry.cpp',
                                          'SourceLine' => '35'
                                        },
                            '102524' => {
                                          'Class' => '39980',
                                          'Destructor' => 1,
                                          'Header' => 'type.hpp',
                                          'Line' => '53',
                                          'MnglName' => '_ZN4zeno7reflect17ReflectedTypeInfoD1Ev',
                                          'Param' => {
                                                       '0' => {
                                                                'name' => 'this',
                                                                'type' => '42318'
                                                              }
                                                     },
                                          'ShortName' => '~ReflectedTypeInfo',
                                          'Source' => 'type.cpp',
                                          'SourceLine' => '13'
                                        },
                            '10317' => {
                                         'Class' => '10119',
                                         'Constructor' => 1,
                                         'Header' => 'tuple',
                                         'Line' => '2873',
                                         'MnglName' => '_ZNSt4pairIKmPN4zeno7reflect8TypeBaseEEC2IJOmEJRS4_EEESt21piecewise_construct_tSt5tupleIJDpT_EESA_IJDpT0_EE',
                                         'Param' => {
                                                      '0' => {
                                                               'name' => 'this',
                                                               'type' => '19688'
                                                             },
                                                      '1' => {
                                                               'name' => 'p1',
                                                               'type' => '8347'
                                                             },
                                                      '2' => {
                                                               'name' => '__first',
                                                               'type' => '15445'
                                                             },
                                                      '3' => {
                                                               'name' => '__second',
                                                               'type' => '16101'
                                                             }
                                                    },
                                         'ShortName' => 'pair<unsigned long&&, zeno::reflect::TypeBase*&>',
                                         'TParam' => {
                                                       '0' => {
                                                                'key' => undef,
                                                                'type' => '20802'
                                                              },
                                                       '1' => {
                                                                'key' => undef,
                                                                'type' => '19588'
                                                              }
                                                     }
                                       },
                            '10362' => {
                                         'Class' => '10119',
                                         'Constructor' => 1,
                                         'Header' => 'tuple',
                                         'Line' => '2885',
                                         'MnglName' => '_ZNSt4pairIKmPN4zeno7reflect8TypeBaseEEC2IJOmEJLm0EEJRS4_EJLm0EEEERSt5tupleIJDpT_EERS9_IJDpT1_EESt12_Index_tupleIJXspT0_EEESI_IJXspT2_EEE',
                                         'Param' => {
                                                      '0' => {
                                                               'name' => 'this',
                                                               'type' => '19688'
                                                             },
                                                      '1' => {
                                                               'name' => '__tuple1',
                                                               'type' => '20892'
                                                             },
                                                      '2' => {
                                                               'name' => '__tuple2',
                                                               'type' => '20967'
                                                             },
                                                      '3' => {
                                                               'name' => 'p3',
                                                               'type' => '17307'
                                                             },
                                                      '4' => {
                                                               'name' => 'p4',
                                                               'type' => '17307'
                                                             }
                                                    },
                                         'Private' => 1,
                                         'ShortName' => 'pair<unsigned long&&, 0ul, zeno::reflect::TypeBase*&, 0ul>',
                                         'TParam' => {
                                                       '0' => {
                                                                'key' => undef,
                                                                'type' => '20802'
                                                              },
                                                       '1' => {
                                                                'key' => undef,
                                                                'type' => '1802',
                                                                'val' => '0'
                                                              },
                                                       '2' => {
                                                                'key' => undef,
                                                                'type' => '19588'
                                                              },
                                                       '3' => {
                                                                'key' => undef,
                                                                'type' => '1802',
                                                                'val' => '0'
                                                              }
                                                     }
                                       },
                            '10682' => {
                                         'Class' => '10644',
                                         'Constructor' => 1,
                                         'Header' => 'stl_tree.h',
                                         'Line' => '665',
                                         'MnglName' => '_ZNSt8_Rb_treeImSt4pairIKmPN4zeno7reflect8TypeBaseEESt10_Select1stIS6_ESt4lessImESaIS6_EE13_Rb_tree_implISA_Lb1EEC2Ev',
                                         'Param' => {
                                                      '0' => {
                                                               'name' => 'this',
                                                               'type' => '20405'
                                                             }
                                                    },
                                         'ShortName' => '_Rb_tree_impl'
                                       },
                            '10789' => {
                                         'Artificial' => 1,
                                         'Class' => '10644',
                                         'Destructor' => 1,
                                         'Header' => 'stl_tree.h',
                                         'Line' => '658',
                                         'MnglName' => '_ZNSt8_Rb_treeImSt4pairIKmPN4zeno7reflect8TypeBaseEESt10_Select1stIS6_ESt4lessImESaIS6_EE13_Rb_tree_implISA_Lb1EED2Ev',
                                         'Param' => {
                                                      '0' => {
                                                               'name' => 'this',
                                                               'type' => '20405'
                                                             }
                                                    },
                                         'ShortName' => '~_Rb_tree_impl'
                                       },
                            '10809' => {
                                         'Class' => '10595',
                                         'Header' => 'stl_tree.h',
                                         'InLine' => 2,
                                         'Line' => '545',
                                         'MnglName' => '_ZNSt8_Rb_treeImSt4pairIKmPN4zeno7reflect8TypeBaseEESt10_Select1stIS6_ESt4lessImESaIS6_EE21_M_get_Node_allocatorEv',
                                         'Param' => {
                                                      '0' => {
                                                               'name' => 'this',
                                                               'type' => '20435'
                                                             }
                                                    },
                                         'Return' => '20430',
                                         'ShortName' => '_M_get_Node_allocator'
                                       },
                            '10876' => {
                                         'Class' => '10595',
                                         'Header' => 'stl_tree.h',
                                         'InLine' => 2,
                                         'Line' => '558',
                                         'MnglName' => '_ZNSt8_Rb_treeImSt4pairIKmPN4zeno7reflect8TypeBaseEESt10_Select1stIS6_ESt4lessImESaIS6_EE11_M_get_nodeEv',
                                         'Param' => {
                                                      '0' => {
                                                               'name' => 'this',
                                                               'type' => '20435'
                                                             }
                                                    },
                                         'Protected' => 1,
                                         'Return' => '10895',
                                         'ShortName' => '_M_get_node'
                                       },
                            '10906' => {
                                         'Class' => '10595',
                                         'Header' => 'stl_tree.h',
                                         'InLine' => 2,
                                         'Line' => '562',
                                         'MnglName' => '_ZNSt8_Rb_treeImSt4pairIKmPN4zeno7reflect8TypeBaseEESt10_Select1stIS6_ESt4lessImESaIS6_EE11_M_put_nodeEPSt13_Rb_tree_nodeIS6_E',
                                         'Param' => {
                                                      '0' => {
                                                               'name' => 'this',
                                                               'type' => '20435'
                                                             },
                                                      '1' => {
                                                               'name' => '__p',
                                                               'type' => '10895'
                                                             }
                                                    },
                                         'Protected' => 1,
                                         'Return' => '1',
                                         'ShortName' => '_M_put_node'
                                       },
                            '10926' => {
                                         'Class' => '10595',
                                         'Header' => 'stl_tree.h',
                                         'InLine' => 2,
                                         'Line' => '616',
                                         'MnglName' => '_ZNSt8_Rb_treeImSt4pairIKmPN4zeno7reflect8TypeBaseEESt10_Select1stIS6_ESt4lessImESaIS6_EE15_M_destroy_nodeEPSt13_Rb_tree_nodeIS6_E',
                                         'Param' => {
                                                      '0' => {
                                                               'name' => 'this',
                                                               'type' => '20435'
                                                             },
                                                      '1' => {
                                                               'name' => '__p',
                                                               'type' => '10895'
                                                             }
                                                    },
                                         'Protected' => 1,
                                         'Return' => '1',
                                         'ShortName' => '_M_destroy_node'
                                       },
                            '10946' => {
                                         'Class' => '10595',
                                         'Header' => 'stl_tree.h',
                                         'InLine' => 2,
                                         'Line' => '627',
                                         'MnglName' => '_ZNSt8_Rb_treeImSt4pairIKmPN4zeno7reflect8TypeBaseEESt10_Select1stIS6_ESt4lessImESaIS6_EE12_M_drop_nodeEPSt13_Rb_tree_nodeIS6_E',
                                         'Param' => {
                                                      '0' => {
                                                               'name' => 'this',
                                                               'type' => '20435'
                                                             },
                                                      '1' => {
                                                               'name' => '__p',
                                                               'type' => '10895'
                                                             }
                                                    },
                                         'Protected' => 1,
                                         'Return' => '1',
                                         'ShortName' => '_M_drop_node'
                                       },
                            '11004' => {
                                         'Class' => '10595',
                                         'Header' => 'stl_tree.h',
                                         'InLine' => 2,
                                         'Line' => '716',
                                         'MnglName' => '_ZNSt8_Rb_treeImSt4pairIKmPN4zeno7reflect8TypeBaseEESt10_Select1stIS6_ESt4lessImESaIS6_EE11_M_leftmostEv',
                                         'Param' => {
                                                      '0' => {
                                                               'name' => 'this',
                                                               'type' => '20435'
                                                             }
                                                    },
                                         'Protected' => 1,
                                         'Return' => '20460',
                                         'ShortName' => '_M_leftmost'
                                       },
                            '11042' => {
                                         'Class' => '10595',
                                         'Header' => 'stl_tree.h',
                                         'InLine' => 2,
                                         'Line' => '724',
                                         'MnglName' => '_ZNSt8_Rb_treeImSt4pairIKmPN4zeno7reflect8TypeBaseEESt10_Select1stIS6_ESt4lessImESaIS6_EE12_M_rightmostEv',
                                         'Param' => {
                                                      '0' => {
                                                               'name' => 'this',
                                                               'type' => '20435'
                                                             }
                                                    },
                                         'Protected' => 1,
                                         'Return' => '20460',
                                         'ShortName' => '_M_rightmost'
                                       },
                            '11080' => {
                                         'Class' => '10595',
                                         'Const' => 1,
                                         'Header' => 'stl_tree.h',
                                         'InLine' => 2,
                                         'Line' => '732',
                                         'MnglName' => '_ZNKSt8_Rb_treeImSt4pairIKmPN4zeno7reflect8TypeBaseEESt10_Select1stIS6_ESt4lessImESaIS6_EE9_M_mbeginEv',
                                         'Param' => {
                                                      '0' => {
                                                               'name' => 'this',
                                                               'type' => '20450'
                                                             }
                                                    },
                                         'Protected' => 1,
                                         'Return' => '10895',
                                         'ShortName' => '_M_mbegin'
                                       },
                            '11099' => {
                                         'Class' => '10595',
                                         'Header' => 'stl_tree.h',
                                         'InLine' => 2,
                                         'Line' => '736',
                                         'MnglName' => '_ZNSt8_Rb_treeImSt4pairIKmPN4zeno7reflect8TypeBaseEESt10_Select1stIS6_ESt4lessImESaIS6_EE8_M_beginEv',
                                         'Param' => {
                                                      '0' => {
                                                               'name' => 'this',
                                                               'type' => '20435'
                                                             }
                                                    },
                                         'Protected' => 1,
                                         'Return' => '10895',
                                         'ShortName' => '_M_begin'
                                       },
                            '11148' => {
                                         'Class' => '10595',
                                         'Header' => 'stl_tree.h',
                                         'InLine' => 2,
                                         'Line' => '747',
                                         'MnglName' => '_ZNSt8_Rb_treeImSt4pairIKmPN4zeno7reflect8TypeBaseEESt10_Select1stIS6_ESt4lessImESaIS6_EE6_M_endEv',
                                         'Param' => {
                                                      '0' => {
                                                               'name' => 'this',
                                                               'type' => '20435'
                                                             }
                                                    },
                                         'Protected' => 1,
                                         'Return' => '20465',
                                         'ShortName' => '_M_end'
                                       },
                            '11186' => {
                                         'Class' => '10595',
                                         'Header' => 'stl_tree.h',
                                         'InLine' => 2,
                                         'Line' => '755',
                                         'MnglName' => '_ZNSt8_Rb_treeImSt4pairIKmPN4zeno7reflect8TypeBaseEESt10_Select1stIS6_ESt4lessImESaIS6_EE6_S_keyEPKSt13_Rb_tree_nodeIS6_E',
                                         'Param' => {
                                                      '0' => {
                                                               'name' => '__x',
                                                               'type' => '11137'
                                                             }
                                                    },
                                         'Protected' => 1,
                                         'Return' => '19678',
                                         'ShortName' => '_S_key',
                                         'Static' => 1
                                       },
                            '11205' => {
                                         'Class' => '10595',
                                         'Header' => 'stl_tree.h',
                                         'InLine' => 2,
                                         'Line' => '777',
                                         'MnglName' => '_ZNSt8_Rb_treeImSt4pairIKmPN4zeno7reflect8TypeBaseEESt10_Select1stIS6_ESt4lessImESaIS6_EE7_S_leftEPSt18_Rb_tree_node_base',
                                         'Param' => {
                                                      '0' => {
                                                               'name' => '__x',
                                                               'type' => '20465'
                                                             }
                                                    },
                                         'Protected' => 1,
                                         'Return' => '10895',
                                         'ShortName' => '_S_left',
                                         'Static' => 1
                                       },
                            '11243' => {
                                         'Class' => '10595',
                                         'Header' => 'stl_tree.h',
                                         'InLine' => 2,
                                         'Line' => '785',
                                         'MnglName' => '_ZNSt8_Rb_treeImSt4pairIKmPN4zeno7reflect8TypeBaseEESt10_Select1stIS6_ESt4lessImESaIS6_EE8_S_rightEPSt18_Rb_tree_node_base',
                                         'Param' => {
                                                      '0' => {
                                                               'name' => '__x',
                                                               'type' => '20465'
                                                             }
                                                    },
                                         'Protected' => 1,
                                         'Return' => '10895',
                                         'ShortName' => '_S_right',
                                         'Static' => 1
                                       },
                            '11281' => {
                                         'Class' => '10595',
                                         'Header' => 'stl_tree.h',
                                         'InLine' => 2,
                                         'Line' => '793',
                                         'MnglName' => '_ZNSt8_Rb_treeImSt4pairIKmPN4zeno7reflect8TypeBaseEESt10_Select1stIS6_ESt4lessImESaIS6_EE6_S_keyEPKSt18_Rb_tree_node_base',
                                         'Param' => {
                                                      '0' => {
                                                               'name' => '__x',
                                                               'type' => '20476'
                                                             }
                                                    },
                                         'Protected' => 1,
                                         'Return' => '19678',
                                         'ShortName' => '_S_key',
                                         'Static' => 1
                                       },
                            '11398' => {
                                         'Class' => '10595',
                                         'Header' => 'stl_tree.h',
                                         'InLine' => 2,
                                         'Line' => '2105',
                                         'MnglName' => '_ZNSt8_Rb_treeImSt4pairIKmPN4zeno7reflect8TypeBaseEESt10_Select1stIS6_ESt4lessImESaIS6_EE24_M_get_insert_unique_posERS1_',
                                         'Param' => {
                                                      '0' => {
                                                               'name' => 'this',
                                                               'type' => '20435'
                                                             },
                                                      '1' => {
                                                               'name' => '__k',
                                                               'type' => '20527'
                                                             }
                                                    },
                                         'Return' => '14216',
                                         'ShortName' => '_M_get_insert_unique_pos'
                                       },
                            '11457' => {
                                         'Class' => '10595',
                                         'Header' => 'stl_tree.h',
                                         'InLine' => 2,
                                         'Line' => '2207',
                                         'MnglName' => '_ZNSt8_Rb_treeImSt4pairIKmPN4zeno7reflect8TypeBaseEESt10_Select1stIS6_ESt4lessImESaIS6_EE29_M_get_insert_hint_unique_posESt23_Rb_tree_const_iteratorIS6_ERS1_',
                                         'Param' => {
                                                      '0' => {
                                                               'name' => 'this',
                                                               'type' => '20435'
                                                             },
                                                      '1' => {
                                                               'name' => '__position',
                                                               'type' => '11486'
                                                             },
                                                      '2' => {
                                                               'name' => '__k',
                                                               'type' => '20527'
                                                             }
                                                    },
                                         'Return' => '14216',
                                         'ShortName' => '_M_get_insert_hint_unique_pos'
                                       },
                            '11526' => {
                                         'Class' => '10595',
                                         'Header' => 'stl_tree.h',
                                         'InLine' => 2,
                                         'Line' => '2374',
                                         'MnglName' => '_ZNSt8_Rb_treeImSt4pairIKmPN4zeno7reflect8TypeBaseEESt10_Select1stIS6_ESt4lessImESaIS6_EE14_M_insert_nodeEPSt18_Rb_tree_node_baseSE_PSt13_Rb_tree_nodeIS6_E',
                                         'Param' => {
                                                      '0' => {
                                                               'name' => 'this',
                                                               'type' => '20435'
                                                             },
                                                      '1' => {
                                                               'name' => '__x',
                                                               'type' => '20465'
                                                             },
                                                      '2' => {
                                                               'name' => '__p',
                                                               'type' => '20465'
                                                             },
                                                      '3' => {
                                                               'name' => '__z',
                                                               'type' => '10895'
                                                             }
                                                    },
                                         'Private' => 1,
                                         'Return' => '11559',
                                         'ShortName' => '_M_insert_node'
                                       },
                            '11644' => {
                                         'Class' => '10595',
                                         'Header' => 'stl_tree.h',
                                         'InLine' => 2,
                                         'Line' => '1927',
                                         'MnglName' => '_ZNSt8_Rb_treeImSt4pairIKmPN4zeno7reflect8TypeBaseEESt10_Select1stIS6_ESt4lessImESaIS6_EE8_M_eraseEPSt13_Rb_tree_nodeIS6_E',
                                         'Param' => {
                                                      '0' => {
                                                               'name' => 'this',
                                                               'type' => '20435'
                                                             },
                                                      '1' => {
                                                               'name' => '__x',
                                                               'type' => '10895'
                                                             }
                                                    },
                                         'Private' => 1,
                                         'Return' => '1',
                                         'ShortName' => '_M_erase'
                                       },
                            '11663' => {
                                         'Class' => '10595',
                                         'Header' => 'stl_tree.h',
                                         'InLine' => 2,
                                         'Line' => '1944',
                                         'MnglName' => '_ZNSt8_Rb_treeImSt4pairIKmPN4zeno7reflect8TypeBaseEESt10_Select1stIS6_ESt4lessImESaIS6_EE14_M_lower_boundEPSt13_Rb_tree_nodeIS6_EPSt18_Rb_tree_node_baseRS1_',
                                         'Param' => {
                                                      '0' => {
                                                               'name' => 'this',
                                                               'type' => '20435'
                                                             },
                                                      '1' => {
                                                               'name' => '__x',
                                                               'type' => '10895'
                                                             },
                                                      '2' => {
                                                               'name' => '__y',
                                                               'type' => '20465'
                                                             },
                                                      '3' => {
                                                               'name' => '__k',
                                                               'type' => '19678'
                                                             }
                                                    },
                                         'Private' => 1,
                                         'Return' => '11559',
                                         'ShortName' => '_M_lower_bound'
                                       },
                            '11795' => {
                                         'Class' => '10595',
                                         'Constructor' => 1,
                                         'Header' => 'stl_tree.h',
                                         'Line' => '926',
                                         'MnglName' => '_ZNSt8_Rb_treeImSt4pairIKmPN4zeno7reflect8TypeBaseEESt10_Select1stIS6_ESt4lessImESaIS6_EEC2Ev',
                                         'Param' => {
                                                      '0' => {
                                                               'name' => 'this',
                                                               'type' => '20435'
                                                             }
                                                    },
                                         'ShortName' => '_Rb_tree'
                                       },
                            '12008' => {
                                         'Class' => '10595',
                                         'Destructor' => 1,
                                         'Header' => 'stl_tree.h',
                                         'Line' => '981',
                                         'MnglName' => '_ZNSt8_Rb_treeImSt4pairIKmPN4zeno7reflect8TypeBaseEESt10_Select1stIS6_ESt4lessImESaIS6_EED2Ev',
                                         'Param' => {
                                                      '0' => {
                                                               'name' => 'this',
                                                               'type' => '20435'
                                                             }
                                                    },
                                         'ShortName' => '~_Rb_tree'
                                       },
                            '12044' => {
                                         'Class' => '10595',
                                         'Const' => 1,
                                         'Header' => 'stl_tree.h',
                                         'InLine' => 2,
                                         'Line' => '989',
                                         'MnglName' => '_ZNKSt8_Rb_treeImSt4pairIKmPN4zeno7reflect8TypeBaseEESt10_Select1stIS6_ESt4lessImESaIS6_EE8key_compEv',
                                         'Param' => {
                                                      '0' => {
                                                               'name' => 'this',
                                                               'type' => '20450'
                                                             }
                                                    },
                                         'Return' => '9926',
                                         'ShortName' => 'key_comp'
                                       },
                            '12063' => {
                                         'Class' => '10595',
                                         'Header' => 'stl_tree.h',
                                         'InLine' => 2,
                                         'Line' => '993',
                                         'MnglName' => '_ZNSt8_Rb_treeImSt4pairIKmPN4zeno7reflect8TypeBaseEESt10_Select1stIS6_ESt4lessImESaIS6_EE5beginEv',
                                         'Param' => {
                                                      '0' => {
                                                               'name' => 'this',
                                                               'type' => '20435'
                                                             }
                                                    },
                                         'Return' => '11559',
                                         'ShortName' => 'begin'
                                       },
                            '12099' => {
                                         'Class' => '10595',
                                         'Header' => 'stl_tree.h',
                                         'InLine' => 2,
                                         'Line' => '1001',
                                         'MnglName' => '_ZNSt8_Rb_treeImSt4pairIKmPN4zeno7reflect8TypeBaseEESt10_Select1stIS6_ESt4lessImESaIS6_EE3endEv',
                                         'Param' => {
                                                      '0' => {
                                                               'name' => 'this',
                                                               'type' => '20435'
                                                             }
                                                    },
                                         'Return' => '11559',
                                         'ShortName' => 'end'
                                       },
                            '12252' => {
                                         'Class' => '10595',
                                         'Const' => 1,
                                         'Header' => 'stl_tree.h',
                                         'InLine' => 2,
                                         'Line' => '1029',
                                         'MnglName' => '_ZNKSt8_Rb_treeImSt4pairIKmPN4zeno7reflect8TypeBaseEESt10_Select1stIS6_ESt4lessImESaIS6_EE4sizeEv',
                                         'Param' => {
                                                      '0' => {
                                                               'name' => 'this',
                                                               'type' => '20450'
                                                             }
                                                    },
                                         'Return' => '19738',
                                         'ShortName' => 'size'
                                       },
                            '12473' => {
                                         'Class' => '10595',
                                         'Header' => 'stl_tree.h',
                                         'InLine' => 2,
                                         'Line' => '2526',
                                         'MnglName' => '_ZNSt8_Rb_treeImSt4pairIKmPN4zeno7reflect8TypeBaseEESt10_Select1stIS6_ESt4lessImESaIS6_EE4findERS1_',
                                         'Param' => {
                                                      '0' => {
                                                               'name' => 'this',
                                                               'type' => '20435'
                                                             },
                                                      '1' => {
                                                               'name' => '__k',
                                                               'type' => '20527'
                                                             }
                                                    },
                                         'Return' => '11559',
                                         'ShortName' => 'find'
                                       },
                            '12543' => {
                                         'Class' => '10595',
                                         'Header' => 'stl_tree.h',
                                         'InLine' => 2,
                                         'Line' => '1266',
                                         'MnglName' => '_ZNSt8_Rb_treeImSt4pairIKmPN4zeno7reflect8TypeBaseEESt10_Select1stIS6_ESt4lessImESaIS6_EE11lower_boundERS1_',
                                         'Param' => {
                                                      '0' => {
                                                               'name' => 'this',
                                                               'type' => '20435'
                                                             },
                                                      '1' => {
                                                               'name' => '__k',
                                                               'type' => '20527'
                                                             }
                                                    },
                                         'Return' => '11559',
                                         'ShortName' => 'lower_bound'
                                       },
                            '13030' => {
                                         'Class' => '13001',
                                         'Destructor' => 1,
                                         'Header' => 'stl_tree.h',
                                         'Line' => '1636',
                                         'MnglName' => '_ZNSt8_Rb_treeImSt4pairIKmPN4zeno7reflect8TypeBaseEESt10_Select1stIS6_ESt4lessImESaIS6_EE10_Auto_nodeD2Ev',
                                         'Param' => {
                                                      '0' => {
                                                               'name' => 'this',
                                                               'type' => '20972'
                                                             }
                                                    },
                                         'ShortName' => '~_Auto_node'
                                       },
                            '13059' => {
                                         'Class' => '13001',
                                         'Const' => 1,
                                         'Header' => 'stl_tree.h',
                                         'InLine' => 2,
                                         'Line' => '1647',
                                         'MnglName' => '_ZNKSt8_Rb_treeImSt4pairIKmPN4zeno7reflect8TypeBaseEESt10_Select1stIS6_ESt4lessImESaIS6_EE10_Auto_node6_M_keyEv',
                                         'Param' => {
                                                      '0' => {
                                                               'name' => 'this',
                                                               'type' => '20982'
                                                             }
                                                    },
                                         'Return' => '19678',
                                         'ShortName' => '_M_key'
                                       },
                            '13077' => {
                                         'Class' => '13001',
                                         'Header' => 'stl_tree.h',
                                         'InLine' => 2,
                                         'Line' => '1651',
                                         'MnglName' => '_ZNSt8_Rb_treeImSt4pairIKmPN4zeno7reflect8TypeBaseEESt10_Select1stIS6_ESt4lessImESaIS6_EE10_Auto_node9_M_insertES0_IPSt18_Rb_tree_node_baseSF_E',
                                         'Param' => {
                                                      '0' => {
                                                               'name' => 'this',
                                                               'type' => '20972'
                                                             },
                                                      '1' => {
                                                               'name' => '__p',
                                                               'type' => '14216'
                                                             }
                                                    },
                                         'Return' => '11559',
                                         'ShortName' => '_M_insert'
                                       },
                            '13118' => {
                                         'Class' => '13001',
                                         'Constructor' => 1,
                                         'Header' => 'stl_tree.h',
                                         'Line' => '1631',
                                         'MnglName' => '_ZNSt8_Rb_treeImSt4pairIKmPN4zeno7reflect8TypeBaseEESt10_Select1stIS6_ESt4lessImESaIS6_EE10_Auto_nodeC2IJRKSt21piecewise_construct_tSt5tupleIJOmEESI_IJRS5_EEEEERSC_DpOT_',
                                         'Param' => {
                                                      '0' => {
                                                               'name' => 'this',
                                                               'type' => '20972'
                                                             },
                                                      '1' => {
                                                               'name' => '__t',
                                                               'type' => '20647'
                                                             },
                                                      '2' => {
                                                               'name' => '__args',
                                                               'type' => '23644'
                                                             },
                                                      '3' => {
                                                               'name' => '__args',
                                                               'type' => '20887'
                                                             },
                                                      '4' => {
                                                               'name' => '__args',
                                                               'type' => '20962'
                                                             }
                                                    },
                                         'ShortName' => '_Auto_node<std::piecewise_construct_t const&>',
                                         'TParam' => {
                                                       '0' => {
                                                                'key' => undef,
                                                                'type' => '23644'
                                                              }
                                                     }
                                       },
                            '13170' => {
                                         'Class' => '10595',
                                         'Header' => 'stl_tree.h',
                                         'InLine' => 2,
                                         'Line' => '2455',
                                         'MnglName' => '_ZNSt8_Rb_treeImSt4pairIKmPN4zeno7reflect8TypeBaseEESt10_Select1stIS6_ESt4lessImESaIS6_EE22_M_emplace_hint_uniqueIJRKSt21piecewise_construct_tSt5tupleIJOmEESH_IJRS5_EEEEESt17_Rb_tree_iteratorIS6_ESt23_Rb_tree_const_iteratorIS6_EDpOT_',
                                         'Param' => {
                                                      '0' => {
                                                               'name' => 'this',
                                                               'type' => '20435'
                                                             },
                                                      '1' => {
                                                               'name' => '__pos',
                                                               'type' => '11486'
                                                             },
                                                      '2' => {
                                                               'name' => '__args',
                                                               'type' => '23644'
                                                             },
                                                      '3' => {
                                                               'name' => '__args',
                                                               'type' => '20887'
                                                             },
                                                      '4' => {
                                                               'name' => '__args',
                                                               'type' => '20962'
                                                             }
                                                    },
                                         'Return' => '11559',
                                         'ShortName' => '_M_emplace_hint_unique<std::piecewise_construct_t const&>',
                                         'TParam' => {
                                                       '0' => {
                                                                'key' => undef,
                                                                'type' => '23644'
                                                              }
                                                     }
                                       },
                            '13228' => {
                                         'Class' => '10595',
                                         'Header' => 'stl_tree.h',
                                         'InLine' => 2,
                                         'Line' => '607',
                                         'MnglName' => '_ZNSt8_Rb_treeImSt4pairIKmPN4zeno7reflect8TypeBaseEESt10_Select1stIS6_ESt4lessImESaIS6_EE14_M_create_nodeIJRKSt21piecewise_construct_tSt5tupleIJOmEESH_IJRS5_EEEEEPSt13_Rb_tree_nodeIS6_EDpOT_',
                                         'Param' => {
                                                      '0' => {
                                                               'name' => 'this',
                                                               'type' => '20435'
                                                             },
                                                      '1' => {
                                                               'name' => '__args',
                                                               'type' => '23644'
                                                             },
                                                      '2' => {
                                                               'name' => '__args',
                                                               'type' => '20887'
                                                             },
                                                      '3' => {
                                                               'name' => '__args',
                                                               'type' => '20962'
                                                             }
                                                    },
                                         'Protected' => 1,
                                         'Return' => '10895',
                                         'ShortName' => '_M_create_node<std::piecewise_construct_t const&>',
                                         'TParam' => {
                                                       '0' => {
                                                                'key' => undef,
                                                                'type' => '23644'
                                                              }
                                                     }
                                       },
                            '13281' => {
                                         'Class' => '10595',
                                         'Header' => 'stl_tree.h',
                                         'InLine' => 2,
                                         'Line' => '588',
                                         'MnglName' => '_ZNSt8_Rb_treeImSt4pairIKmPN4zeno7reflect8TypeBaseEESt10_Select1stIS6_ESt4lessImESaIS6_EE17_M_construct_nodeIJRKSt21piecewise_construct_tSt5tupleIJOmEESH_IJRS5_EEEEEvPSt13_Rb_tree_nodeIS6_EDpOT_',
                                         'Param' => {
                                                      '0' => {
                                                               'name' => 'this',
                                                               'type' => '20435'
                                                             },
                                                      '1' => {
                                                               'name' => '__node',
                                                               'type' => '10895'
                                                             },
                                                      '2' => {
                                                               'name' => '__args',
                                                               'type' => '23644'
                                                             },
                                                      '3' => {
                                                               'name' => '__args',
                                                               'type' => '20887'
                                                             },
                                                      '4' => {
                                                               'name' => '__args',
                                                               'type' => '20962'
                                                             }
                                                    },
                                         'Protected' => 1,
                                         'Return' => '1',
                                         'ShortName' => '_M_construct_node<std::piecewise_construct_t const&>',
                                         'TParam' => {
                                                       '0' => {
                                                                'key' => undef,
                                                                'type' => '23644'
                                                              }
                                                     }
                                       },
                            '13376' => {
                                         'Class' => '13336',
                                         'Const' => 1,
                                         'Header' => 'stl_function.h',
                                         'InLine' => 2,
                                         'Line' => '1179',
                                         'MnglName' => '_ZNKSt10_Select1stISt4pairIKmPN4zeno7reflect8TypeBaseEEEclERKS6_',
                                         'Param' => {
                                                      '0' => {
                                                               'name' => 'this',
                                                               'type' => '19783'
                                                             },
                                                      '1' => {
                                                               'name' => '__x',
                                                               'type' => '19693'
                                                             }
                                                    },
                                         'Return' => '19793',
                                         'ShortName' => 'operator()'
                                       },
                            '13604' => {
                                         'Class' => '13575',
                                         'Header' => 'stl_tree.h',
                                         'InLine' => 2,
                                         'Line' => '230',
                                         'MnglName' => '_ZNSt13_Rb_tree_nodeISt4pairIKmPN4zeno7reflect8TypeBaseEEE9_M_valptrEv',
                                         'Param' => {
                                                      '0' => {
                                                               'name' => 'this',
                                                               'type' => '20300'
                                                             }
                                                    },
                                         'Return' => '19688',
                                         'ShortName' => '_M_valptr'
                                       },
                            '13621' => {
                                         'Class' => '13575',
                                         'Const' => 1,
                                         'Header' => 'stl_tree.h',
                                         'InLine' => 2,
                                         'Line' => '234',
                                         'MnglName' => '_ZNKSt13_Rb_tree_nodeISt4pairIKmPN4zeno7reflect8TypeBaseEEE9_M_valptrEv',
                                         'Param' => {
                                                      '0' => {
                                                               'name' => 'this',
                                                               'type' => '20305'
                                                             }
                                                    },
                                         'Return' => '20295',
                                         'ShortName' => '_M_valptr'
                                       },
                            '13980' => {
                                         'Class' => '13918',
                                         'Header' => 'new_allocator.h',
                                         'InLine' => 2,
                                         'Line' => '126',
                                         'MnglName' => '_ZNSt15__new_allocatorISt13_Rb_tree_nodeISt4pairIKmPN4zeno7reflect8TypeBaseEEEE8allocateEmPKv',
                                         'Param' => {
                                                      '0' => {
                                                               'name' => 'this',
                                                               'type' => '20315'
                                                             },
                                                      '1' => {
                                                               'name' => '__n',
                                                               'type' => '19738'
                                                             },
                                                      '2' => {
                                                               'name' => 'p2',
                                                               'type' => '1950'
                                                             }
                                                    },
                                         'Return' => '20300',
                                         'ShortName' => 'allocate'
                                       },
                            '14007' => {
                                         'Class' => '13918',
                                         'Header' => 'new_allocator.h',
                                         'InLine' => 2,
                                         'Line' => '156',
                                         'MnglName' => '_ZNSt15__new_allocatorISt13_Rb_tree_nodeISt4pairIKmPN4zeno7reflect8TypeBaseEEEE10deallocateEPS8_m',
                                         'Param' => {
                                                      '0' => {
                                                               'name' => 'this',
                                                               'type' => '20315'
                                                             },
                                                      '1' => {
                                                               'name' => '__p',
                                                               'type' => '20300'
                                                             },
                                                      '2' => {
                                                               'name' => '__n',
                                                               'type' => '19738'
                                                             }
                                                    },
                                         'Return' => '1',
                                         'ShortName' => 'deallocate'
                                       },
                            '14070' => {
                                         'Class' => '14047',
                                         'Constructor' => 1,
                                         'Header' => 'stl_tree.h',
                                         'Line' => '142',
                                         'MnglName' => '_ZNSt20_Rb_tree_key_compareISt4lessImEEC2Ev',
                                         'Param' => {
                                                      '0' => {
                                                               'name' => 'this',
                                                               'type' => '20365'
                                                             }
                                                    },
                                         'ShortName' => '_Rb_tree_key_compare'
                                       },
                            '14157' => {
                                         'Class' => '14130',
                                         'Constructor' => 1,
                                         'Header' => 'stl_tree.h',
                                         'Line' => '169',
                                         'MnglName' => '_ZNSt15_Rb_tree_headerC2Ev',
                                         'Param' => {
                                                      '0' => {
                                                               'name' => 'this',
                                                               'type' => '20390'
                                                             }
                                                    },
                                         'ShortName' => '_Rb_tree_header'
                                       },
                            '14202' => {
                                         'Class' => '14130',
                                         'Header' => 'stl_tree.h',
                                         'InLine' => 2,
                                         'Line' => '202',
                                         'MnglName' => '_ZNSt15_Rb_tree_header8_M_resetEv',
                                         'Param' => {
                                                      '0' => {
                                                               'name' => 'this',
                                                               'type' => '20390'
                                                             }
                                                    },
                                         'Return' => '1',
                                         'ShortName' => '_M_reset'
                                       },
                            '14323' => {
                                         'Class' => '14216',
                                         'Constructor' => 1,
                                         'Header' => 'stl_pair.h',
                                         'Line' => '428',
                                         'MnglName' => '_ZNSt4pairIPSt18_Rb_tree_node_baseS1_EC2ERKS1_S4_Qcl16_S_constructibleIRKT_RKT0_EE',
                                         'Param' => {
                                                      '0' => {
                                                               'name' => 'this',
                                                               'type' => '20492'
                                                             },
                                                      '1' => {
                                                               'name' => '__x',
                                                               'type' => '20517'
                                                             },
                                                      '2' => {
                                                               'name' => '__y',
                                                               'type' => '20517'
                                                             }
                                                    },
                                         'ShortName' => 'pair'
                                       },
                            '14410' => {
                                         'Class' => '14216',
                                         'Constructor' => 1,
                                         'Header' => 'stl_pair.h',
                                         'Line' => '442',
                                         'MnglName' => '_ZNSt4pairIPSt18_Rb_tree_node_baseS1_EC2IRS1_S4_Qaacl16_S_constructibleITL0__TL0_0_EEntcl10_S_danglesIS5_S6_EEEEOT_OT0_',
                                         'Param' => {
                                                      '0' => {
                                                               'name' => 'this',
                                                               'type' => '20492'
                                                             },
                                                      '1' => {
                                                               'name' => '__x',
                                                               'type' => '25701'
                                                             },
                                                      '2' => {
                                                               'name' => '__y',
                                                               'type' => '25701'
                                                             }
                                                    },
                                         'ShortName' => 'pair<std::_Rb_tree_node_base*&, std::_Rb_tree_node_base*&>',
                                         'TParam' => {
                                                       '0' => {
                                                                'key' => '_U1',
                                                                'type' => '25701'
                                                              },
                                                       '1' => {
                                                                'key' => '_U2',
                                                                'type' => '25701'
                                                              }
                                                     }
                                       },
                            '14444' => {
                                         'Class' => '14216',
                                         'Constructor' => 1,
                                         'Header' => 'stl_pair.h',
                                         'Line' => '442',
                                         'MnglName' => '_ZNSt4pairIPSt18_Rb_tree_node_baseS1_EC2IRPSt13_Rb_tree_nodeIS_IKmPN4zeno7reflect8TypeBaseEEERS1_Qaacl16_S_constructibleITL0__TL0_0_EEntcl10_S_danglesISF_SG_EEEEOT_OT0_',
                                         'Param' => {
                                                      '0' => {
                                                               'name' => 'this',
                                                               'type' => '20492'
                                                             },
                                                      '1' => {
                                                               'name' => '__x',
                                                               'type' => '25832'
                                                             },
                                                      '2' => {
                                                               'name' => '__y',
                                                               'type' => '25701'
                                                             }
                                                    },
                                         'ShortName' => 'pair<std::_Rb_tree_node<std::pair<unsigned long const, zeno::reflect::TypeBase*> >*&, std::_Rb_tree_node_base*&>',
                                         'TParam' => {
                                                       '0' => {
                                                                'key' => '_U1',
                                                                'type' => '25832'
                                                              },
                                                       '1' => {
                                                                'key' => '_U2',
                                                                'type' => '25701'
                                                              }
                                                     }
                                       },
                            '14554' => {
                                         'Class' => '14500',
                                         'Constructor' => 1,
                                         'Header' => 'stl_tree.h',
                                         'Line' => '346',
                                         'MnglName' => '_ZNSt23_Rb_tree_const_iteratorISt4pairIKmPN4zeno7reflect8TypeBaseEEEC2ERKSt17_Rb_tree_iteratorIS6_E',
                                         'Param' => {
                                                      '0' => {
                                                               'name' => 'this',
                                                               'type' => '20547'
                                                             },
                                                      '1' => {
                                                               'name' => '__it',
                                                               'type' => '20552'
                                                             }
                                                    },
                                         'ShortName' => '_Rb_tree_const_iterator'
                                       },
                            '14581' => {
                                         'Class' => '14500',
                                         'Const' => 1,
                                         'Header' => 'stl_tree.h',
                                         'InLine' => 2,
                                         'Line' => '350',
                                         'MnglName' => '_ZNKSt23_Rb_tree_const_iteratorISt4pairIKmPN4zeno7reflect8TypeBaseEEE13_M_const_castEv',
                                         'Param' => {
                                                      '0' => {
                                                               'name' => 'this',
                                                               'type' => '20592'
                                                             }
                                                    },
                                         'Return' => '14571',
                                         'ShortName' => '_M_const_cast'
                                       },
                            '14778' => {
                                         'Class' => '14742',
                                         'Constructor' => 1,
                                         'Header' => 'stl_tree.h',
                                         'Line' => '269',
                                         'MnglName' => '_ZNSt17_Rb_tree_iteratorISt4pairIKmPN4zeno7reflect8TypeBaseEEEC2EPSt18_Rb_tree_node_base',
                                         'Param' => {
                                                      '0' => {
                                                               'name' => 'this',
                                                               'type' => '20572'
                                                             },
                                                      '1' => {
                                                               'name' => '__x',
                                                               'type' => '20465'
                                                             }
                                                    },
                                         'ShortName' => '_Rb_tree_iterator'
                                       },
                            '14795' => {
                                         'Class' => '14742',
                                         'Const' => 1,
                                         'Header' => 'stl_tree.h',
                                         'InLine' => 2,
                                         'Line' => '273',
                                         'MnglName' => '_ZNKSt17_Rb_tree_iteratorISt4pairIKmPN4zeno7reflect8TypeBaseEEEdeEv',
                                         'Param' => {
                                                      '0' => {
                                                               'name' => 'this',
                                                               'type' => '20577'
                                                             }
                                                    },
                                         'Return' => '14813',
                                         'ShortName' => 'operator*'
                                       },
                            '14822' => {
                                         'Class' => '14742',
                                         'Const' => 1,
                                         'Header' => 'stl_tree.h',
                                         'InLine' => 2,
                                         'Line' => '277',
                                         'MnglName' => '_ZNKSt17_Rb_tree_iteratorISt4pairIKmPN4zeno7reflect8TypeBaseEEEptEv',
                                         'Param' => {
                                                      '0' => {
                                                               'name' => 'this',
                                                               'type' => '20577'
                                                             }
                                                    },
                                         'Return' => '14839',
                                         'ShortName' => 'operator->'
                                       },
                            '14848' => {
                                         'Class' => '14742',
                                         'Header' => 'stl_tree.h',
                                         'InLine' => 2,
                                         'Line' => '281',
                                         'MnglName' => '_ZNSt17_Rb_tree_iteratorISt4pairIKmPN4zeno7reflect8TypeBaseEEEppEv',
                                         'Param' => {
                                                      '0' => {
                                                               'name' => 'this',
                                                               'type' => '20572'
                                                             }
                                                    },
                                         'Return' => '20587',
                                         'ShortName' => 'operator++'
                                       },
                            '14897' => {
                                         'Class' => '14742',
                                         'Header' => 'stl_tree.h',
                                         'InLine' => 2,
                                         'Line' => '296',
                                         'MnglName' => '_ZNSt17_Rb_tree_iteratorISt4pairIKmPN4zeno7reflect8TypeBaseEEEmmEv',
                                         'Param' => {
                                                      '0' => {
                                                               'name' => 'this',
                                                               'type' => '20572'
                                                             }
                                                    },
                                         'Return' => '20587',
                                         'ShortName' => 'operator--'
                                       },
                            '15389' => {
                                         'Class' => '15195',
                                         'Constructor' => 1,
                                         'Header' => 'stl_pair.h',
                                         'Line' => '442',
                                         'MnglName' => '_ZNSt4pairISt17_Rb_tree_iteratorIS_IKmPN4zeno7reflect8TypeBaseEEEbEC2IRS7_bQaacl16_S_constructibleITL0__TL0_0_EEntcl10_S_danglesISB_SC_EEEEOT_OT0_',
                                         'Param' => {
                                                      '0' => {
                                                               'name' => 'this',
                                                               'type' => '20752'
                                                             },
                                                      '1' => {
                                                               'name' => '__x',
                                                               'type' => '23792'
                                                             },
                                                      '2' => {
                                                               'name' => '__y',
                                                               'type' => '23797'
                                                             }
                                                    },
                                         'ShortName' => 'pair<std::_Rb_tree_iterator<std::pair<unsigned long const, zeno::reflect::TypeBase*> >&, bool>',
                                         'TParam' => {
                                                       '0' => {
                                                                'key' => '_U1',
                                                                'type' => '23792'
                                                              },
                                                       '1' => {
                                                                'key' => '_U2',
                                                                'type' => '19466'
                                                              }
                                                     }
                                       },
                            '15518' => {
                                         'Class' => '15445',
                                         'Constructor' => 1,
                                         'Header' => 'tuple',
                                         'Line' => '995',
                                         'MnglName' => '_ZNSt5tupleIJOmEEC2EOS1_',
                                         'Param' => {
                                                      '0' => {
                                                               'name' => 'this',
                                                               'type' => '20872'
                                                             },
                                                      '1' => {
                                                               'name' => 'p1',
                                                               'type' => '20887'
                                                             }
                                                    },
                                         'ShortName' => 'tuple'
                                       },
                            '15624' => {
                                         'Class' => '15445',
                                         'Constructor' => 1,
                                         'Header' => 'tuple',
                                         'Line' => '982',
                                         'MnglName' => '_ZNSt5tupleIJOmEEC2IJmEQaaaacl27__disambiguating_constraintIDpTL0__EEcl15__constructibleIS4_EEntcl9__danglesIS4_EEEEDpOT_',
                                         'Param' => {
                                                      '0' => {
                                                               'name' => 'this',
                                                               'type' => '20872'
                                                             },
                                                      '1' => {
                                                               'name' => '__u',
                                                               'type' => '20802'
                                                             }
                                                    },
                                         'ShortName' => 'tuple<unsigned long>',
                                         'TParam' => {
                                                       '0' => {
                                                                'key' => undef,
                                                                'type' => '1802'
                                                              }
                                                     }
                                       },
                            '15684' => {
                                         'Class' => '15652',
                                         'Header' => 'tuple',
                                         'InLine' => 2,
                                         'Line' => '556',
                                         'MnglName' => '_ZNSt11_Tuple_implILm0EJOmEE7_M_headERS1_',
                                         'Param' => {
                                                      '0' => {
                                                               'name' => '__t',
                                                               'type' => '20847'
                                                             }
                                                    },
                                         'Return' => '20812',
                                         'ShortName' => '_M_head',
                                         'Static' => 1
                                       },
                            '15788' => {
                                         'Class' => '15652',
                                         'Constructor' => 1,
                                         'Header' => 'tuple',
                                         'Line' => '586',
                                         'MnglName' => '_ZNSt11_Tuple_implILm0EJOmEEC2EOS1_',
                                         'Param' => {
                                                      '0' => {
                                                               'name' => 'this',
                                                               'type' => '20862'
                                                             },
                                                      '1' => {
                                                               'name' => '__in',
                                                               'type' => '20867'
                                                             }
                                                    },
                                         'ShortName' => '_Tuple_impl'
                                       },
                            '15825' => {
                                         'Class' => '15652',
                                         'Constructor' => 1,
                                         'Header' => 'tuple',
                                         'Line' => '572',
                                         'MnglName' => '_ZNSt11_Tuple_implILm0EJOmEEC2ImEEOT_',
                                         'Param' => {
                                                      '0' => {
                                                               'name' => 'this',
                                                               'type' => '20862'
                                                             },
                                                      '1' => {
                                                               'name' => '__head',
                                                               'type' => '20802'
                                                             }
                                                    },
                                         'ShortName' => '_Tuple_impl<unsigned long>',
                                         'TParam' => {
                                                       '0' => {
                                                                'key' => '_UHead',
                                                                'type' => '1802'
                                                              }
                                                     }
                                       },
                            '15968' => {
                                         'Class' => '15850',
                                         'Header' => 'tuple',
                                         'InLine' => 2,
                                         'Line' => '242',
                                         'MnglName' => '_ZNSt10_Head_baseILm0EOmLb0EE7_M_headERS1_',
                                         'Param' => {
                                                      '0' => {
                                                               'name' => '__b',
                                                               'type' => '20842'
                                                             }
                                                    },
                                         'Return' => '20812',
                                         'ShortName' => '_M_head',
                                         'Static' => 1
                                       },
                            '16002' => {
                                         'Class' => '15850',
                                         'Constructor' => 1,
                                         'Header' => 'tuple',
                                         'Line' => '208',
                                         'MnglName' => '_ZNSt10_Head_baseILm0EOmLb0EEC2ImEEOT_',
                                         'Param' => {
                                                      '0' => {
                                                               'name' => 'this',
                                                               'type' => '20807'
                                                             },
                                                      '1' => {
                                                               'name' => '__h',
                                                               'type' => '20802'
                                                             }
                                                    },
                                         'ShortName' => '_Head_base<unsigned long>',
                                         'TParam' => {
                                                       '0' => {
                                                                'key' => '_UHead',
                                                                'type' => '1802'
                                                              }
                                                     }
                                       },
                            '16138' => {
                                         'Class' => '16101',
                                         'Constructor' => 1,
                                         'Header' => 'tuple',
                                         'Line' => '971',
                                         'MnglName' => '_ZNSt5tupleIJRPN4zeno7reflect8TypeBaseEEEC2ES4_Qcl15__constructibleIDpRKT_EE',
                                         'Param' => {
                                                      '0' => {
                                                               'name' => 'this',
                                                               'type' => '20947'
                                                             },
                                                      '1' => {
                                                               'name' => '__elements',
                                                               'type' => '19588'
                                                             }
                                                    },
                                         'ShortName' => 'tuple'
                                       },
                            '16174' => {
                                         'Class' => '16101',
                                         'Constructor' => 1,
                                         'Header' => 'tuple',
                                         'Line' => '995',
                                         'MnglName' => '_ZNSt5tupleIJRPN4zeno7reflect8TypeBaseEEEC2EOS5_',
                                         'Param' => {
                                                      '0' => {
                                                               'name' => 'this',
                                                               'type' => '20947'
                                                             },
                                                      '1' => {
                                                               'name' => 'p1',
                                                               'type' => '20962'
                                                             }
                                                    },
                                         'ShortName' => 'tuple'
                                       },
                            '16313' => {
                                         'Class' => '16281',
                                         'Header' => 'tuple',
                                         'InLine' => 2,
                                         'Line' => '556',
                                         'MnglName' => '_ZNSt11_Tuple_implILm0EJRPN4zeno7reflect8TypeBaseEEE7_M_headERS5_',
                                         'Param' => {
                                                      '0' => {
                                                               'name' => '__t',
                                                               'type' => '20922'
                                                             }
                                                    },
                                         'Return' => '19588',
                                         'ShortName' => '_M_head',
                                         'Static' => 1
                                       },
                            '16361' => {
                                         'Class' => '16281',
                                         'Constructor' => 1,
                                         'Header' => 'tuple',
                                         'Line' => '566',
                                         'MnglName' => '_ZNSt11_Tuple_implILm0EJRPN4zeno7reflect8TypeBaseEEEC2ES4_',
                                         'Param' => {
                                                      '0' => {
                                                               'name' => 'this',
                                                               'type' => '20937'
                                                             },
                                                      '1' => {
                                                               'name' => '__head',
                                                               'type' => '19588'
                                                             }
                                                    },
                                         'ShortName' => '_Tuple_impl'
                                       },
                            '16417' => {
                                         'Class' => '16281',
                                         'Constructor' => 1,
                                         'Header' => 'tuple',
                                         'Line' => '586',
                                         'MnglName' => '_ZNSt11_Tuple_implILm0EJRPN4zeno7reflect8TypeBaseEEEC2EOS5_',
                                         'Param' => {
                                                      '0' => {
                                                               'name' => 'this',
                                                               'type' => '20937'
                                                             },
                                                      '1' => {
                                                               'name' => '__in',
                                                               'type' => '20942'
                                                             }
                                                    },
                                         'ShortName' => '_Tuple_impl'
                                       },
                            '16504' => {
                                         'Class' => '16455',
                                         'Constructor' => 1,
                                         'Header' => 'tuple',
                                         'Line' => '201',
                                         'MnglName' => '_ZNSt10_Head_baseILm0ERPN4zeno7reflect8TypeBaseELb0EEC2ES4_',
                                         'Param' => {
                                                      '0' => {
                                                               'name' => 'this',
                                                               'type' => '20897'
                                                             },
                                                      '1' => {
                                                               'name' => '__h',
                                                               'type' => '19588'
                                                             }
                                                    },
                                         'ShortName' => '_Head_base'
                                       },
                            '16573' => {
                                         'Class' => '16455',
                                         'Header' => 'tuple',
                                         'InLine' => 2,
                                         'Line' => '242',
                                         'MnglName' => '_ZNSt10_Head_baseILm0ERPN4zeno7reflect8TypeBaseELb0EE7_M_headERS5_',
                                         'Param' => {
                                                      '0' => {
                                                               'name' => '__b',
                                                               'type' => '20917'
                                                             }
                                                    },
                                         'Return' => '19588',
                                         'ShortName' => '_M_head',
                                         'Static' => 1
                                       },
                            '16608' => {
                                         'Header' => 'stl_tree.h',
                                         'InLine' => 2,
                                         'Line' => '311',
                                         'MnglName' => '_ZSteqRKSt17_Rb_tree_iteratorISt4pairIKmPN4zeno7reflect8TypeBaseEEES9_',
                                         'NameSpace' => 'std',
                                         'Param' => {
                                                      '0' => {
                                                               'name' => '__x',
                                                               'type' => '31735'
                                                             },
                                                      '1' => {
                                                               'name' => '__y',
                                                               'type' => '31735'
                                                             }
                                                    },
                                         'Return' => '19466',
                                         'ShortName' => 'operator=='
                                       },
                            '16654' => {
                                         'Header' => 'stl_pair.h',
                                         'InLine' => 2,
                                         'Line' => '1250',
                                         'MnglName' => '_ZSt3getILm0EKmPN4zeno7reflect8TypeBaseEERNSt13tuple_elementIXT_ESt4pairIT0_T1_EE4typeERS9_',
                                         'NameSpace' => 'std',
                                         'Param' => {
                                                      '0' => {
                                                               'name' => '__in',
                                                               'type' => '19708'
                                                             }
                                                    },
                                         'Return' => '31720',
                                         'ShortName' => 'get<0ul, unsigned long const, zeno::reflect::TypeBase*>',
                                         'TParam' => {
                                                       '0' => {
                                                                'key' => '_Int',
                                                                'type' => '1802',
                                                                'val' => '0'
                                                              },
                                                       '1' => {
                                                                'key' => '_Tp1',
                                                                'type' => '19683'
                                                              },
                                                       '2' => {
                                                                'key' => '_Tp2',
                                                                'type' => '19521'
                                                              }
                                                     }
                                       },
                            '16709' => {
                                         'Header' => 'stl_pair.h',
                                         'InLine' => 2,
                                         'Line' => '1250',
                                         'MnglName' => '_ZSt3getILm1EKmPN4zeno7reflect8TypeBaseEERNSt13tuple_elementIXT_ESt4pairIT0_T1_EE4typeERS9_',
                                         'NameSpace' => 'std',
                                         'Param' => {
                                                      '0' => {
                                                               'name' => '__in',
                                                               'type' => '19708'
                                                             }
                                                    },
                                         'Return' => '31725',
                                         'ShortName' => 'get<1ul, unsigned long const, zeno::reflect::TypeBase*>',
                                         'TParam' => {
                                                       '0' => {
                                                                'key' => '_Int',
                                                                'type' => '1802',
                                                                'val' => '1'
                                                              },
                                                       '1' => {
                                                                'key' => '_Tp1',
                                                                'type' => '19683'
                                                              },
                                                       '2' => {
                                                                'key' => '_Tp2',
                                                                'type' => '19521'
                                                              }
                                                     }
                                       },
                            '17000' => {
                                         'Header' => 'stl_construct.h',
                                         'InLine' => 2,
                                         'Line' => '80',
                                         'MnglName' => '_ZSt10destroy_atISt4pairIKmPN4zeno7reflect8TypeBaseEEEvPT_',
                                         'NameSpace' => 'std',
                                         'Param' => {
                                                      '0' => {
                                                               'name' => '__location',
                                                               'type' => '19688'
                                                             }
                                                    },
                                         'Return' => '1',
                                         'ShortName' => 'destroy_at<std::pair<unsigned long const, zeno::reflect::TypeBase*> >',
                                         'TParam' => {
                                                       '0' => {
                                                                'key' => '_Tp',
                                                                'type' => '10119'
                                                              }
                                                     }
                                       },
                            '17049' => {
                                         'Class' => '17033',
                                         'Header' => 'stl_pair.h',
                                         'InLine' => 2,
                                         'Line' => '1200',
                                         'MnglName' => '_ZNSt10__pair_getILm0EE5__getIKmPN4zeno7reflect8TypeBaseEEERT_RSt4pairIS7_T0_E',
                                         'Param' => {
                                                      '0' => {
                                                               'name' => '__pair',
                                                               'type' => '19708'
                                                             }
                                                    },
                                         'Return' => '19678',
                                         'ShortName' => '__get<unsigned long const, zeno::reflect::TypeBase*>',
                                         'Static' => 1,
                                         'TParam' => {
                                                       '0' => {
                                                                'key' => '_Tp1',
                                                                'type' => '19683'
                                                              },
                                                       '1' => {
                                                                'key' => '_Tp2',
                                                                'type' => '19521'
                                                              }
                                                     }
                                       },
                            '17098' => {
                                         'Class' => '17082',
                                         'Header' => 'stl_pair.h',
                                         'InLine' => 2,
                                         'Line' => '1224',
                                         'MnglName' => '_ZNSt10__pair_getILm1EE5__getIKmPN4zeno7reflect8TypeBaseEEERT0_RSt4pairIT_S7_E',
                                         'Param' => {
                                                      '0' => {
                                                               'name' => '__pair',
                                                               'type' => '19708'
                                                             }
                                                    },
                                         'Return' => '19588',
                                         'ShortName' => '__get<unsigned long const, zeno::reflect::TypeBase*>',
                                         'Static' => 1,
                                         'TParam' => {
                                                       '0' => {
                                                                'key' => '_Tp1',
                                                                'type' => '19683'
                                                              },
                                                       '1' => {
                                                                'key' => '_Tp2',
                                                                'type' => '19521'
                                                              }
                                                     }
                                       },
                            '17131' => {
                                         'Header' => 'tuple',
                                         'InLine' => 2,
                                         'Line' => '2650',
                                         'MnglName' => '_ZSt16forward_as_tupleIJmEESt5tupleIJDpOT_EES3_',
                                         'NameSpace' => 'std',
                                         'Param' => {
                                                      '0' => {
                                                               'name' => '__args',
                                                               'type' => '20802'
                                                             }
                                                    },
                                         'Return' => '15445',
                                         'ShortName' => 'forward_as_tuple<unsigned long>',
                                         'TParam' => {
                                                       '0' => {
                                                                'key' => undef,
                                                                'type' => '1802'
                                                              }
                                                     }
                                       },
                            '17173' => {
                                         'Header' => 'tuple',
                                         'InLine' => 2,
                                         'Line' => '2650',
                                         'MnglName' => '_ZSt16forward_as_tupleIJRPN4zeno7reflect8TypeBaseEEESt5tupleIJDpOT_EES8_',
                                         'NameSpace' => 'std',
                                         'Param' => {
                                                      '0' => {
                                                               'name' => '__args',
                                                               'type' => '19588'
                                                             }
                                                    },
                                         'Return' => '16101',
                                         'ShortName' => 'forward_as_tuple<zeno::reflect::TypeBase*&>',
                                         'TParam' => {
                                                       '0' => {
                                                                'key' => undef,
                                                                'type' => '19588'
                                                              }
                                                     }
                                       },
                            '17215' => {
                                         'Header' => 'stl_construct.h',
                                         'InLine' => 2,
                                         'Line' => '94',
                                         'MnglName' => '_ZSt12construct_atISt4pairIKmPN4zeno7reflect8TypeBaseEEJRKSt21piecewise_construct_tSt5tupleIJOmEESA_IJRS5_EEEEDTgsnwcvPvLi0E_T_pispclsr3stdE7declvalIT0_EEEEPSG_DpOSH_',
                                         'NameSpace' => 'std',
                                         'Param' => {
                                                      '0' => {
                                                               'name' => '__location',
                                                               'type' => '19688'
                                                             },
                                                      '1' => {
                                                               'name' => '__args',
                                                               'type' => '23644'
                                                             },
                                                      '2' => {
                                                               'name' => '__args',
                                                               'type' => '20887'
                                                             },
                                                      '3' => {
                                                               'name' => '__args',
                                                               'type' => '20962'
                                                             }
                                                    },
                                         'Return' => '19688',
                                         'ShortName' => 'construct_at<std::pair<unsigned long const, zeno::reflect::TypeBase*>, std::piecewise_construct_t const&>',
                                         'TParam' => {
                                                       '0' => {
                                                                'key' => '_Tp',
                                                                'type' => '10119'
                                                              },
                                                       '1' => {
                                                                'key' => undef,
                                                                'type' => '23644'
                                                              }
                                                     }
                                       },
                            '17325' => {
                                         'Header' => 'tuple',
                                         'InLine' => 2,
                                         'Line' => '2443',
                                         'MnglName' => '_ZSt3getILm0EJOmEERNSt13tuple_elementIXT_ESt5tupleIJDpT0_EEE4typeERS5_',
                                         'NameSpace' => 'std',
                                         'Param' => {
                                                      '0' => {
                                                               'name' => '__t',
                                                               'type' => '20892'
                                                             }
                                                    },
                                         'Return' => '20812',
                                         'ShortName' => 'get<0ul, unsigned long&&>',
                                         'TParam' => {
                                                       '0' => {
                                                                'key' => '__i',
                                                                'type' => '1802',
                                                                'val' => '0'
                                                              },
                                                       '1' => {
                                                                'key' => undef,
                                                                'type' => '20802'
                                                              }
                                                     }
                                       },
                            '17375' => {
                                         'Header' => 'tuple',
                                         'InLine' => 2,
                                         'Line' => '2443',
                                         'MnglName' => '_ZSt3getILm0EJRPN4zeno7reflect8TypeBaseEEERNSt13tuple_elementIXT_ESt5tupleIJDpT0_EEE4typeERS9_',
                                         'NameSpace' => 'std',
                                         'Param' => {
                                                      '0' => {
                                                               'name' => '__t',
                                                               'type' => '20967'
                                                             }
                                                    },
                                         'Return' => '19588',
                                         'ShortName' => 'get<0ul, zeno::reflect::TypeBase*&>',
                                         'TParam' => {
                                                       '0' => {
                                                                'key' => '__i',
                                                                'type' => '1802',
                                                                'val' => '0'
                                                              },
                                                       '1' => {
                                                                'key' => undef,
                                                                'type' => '19588'
                                                              }
                                                     }
                                       },
                            '17425' => {
                                         'Header' => 'tuple',
                                         'InLine' => 2,
                                         'Line' => '2427',
                                         'MnglName' => '_ZSt12__get_helperILm0EOmJEERT0_RSt11_Tuple_implIXT_EJS1_DpT1_EE',
                                         'NameSpace' => 'std',
                                         'Param' => {
                                                      '0' => {
                                                               'name' => '__t',
                                                               'type' => '20847'
                                                             }
                                                    },
                                         'Return' => '20812',
                                         'ShortName' => '__get_helper<0ul, unsigned long&&>',
                                         'TParam' => {
                                                       '0' => {
                                                                'key' => '__i',
                                                                'type' => '1802',
                                                                'val' => '0'
                                                              },
                                                       '1' => {
                                                                'key' => '_Head',
                                                                'type' => '20802'
                                                              }
                                                     }
                                       },
                            '17476' => {
                                         'Header' => 'tuple',
                                         'InLine' => 2,
                                         'Line' => '2427',
                                         'MnglName' => '_ZSt12__get_helperILm0ERPN4zeno7reflect8TypeBaseEJEERT0_RSt11_Tuple_implIXT_EJS5_DpT1_EE',
                                         'NameSpace' => 'std',
                                         'Param' => {
                                                      '0' => {
                                                               'name' => '__t',
                                                               'type' => '20922'
                                                             }
                                                    },
                                         'Return' => '19588',
                                         'ShortName' => '__get_helper<0ul, zeno::reflect::TypeBase*&>',
                                         'TParam' => {
                                                       '0' => {
                                                                'key' => '__i',
                                                                'type' => '1802',
                                                                'val' => '0'
                                                              },
                                                       '1' => {
                                                                'key' => '_Head',
                                                                'type' => '19588'
                                                              }
                                                     }
                                       },
                            '19994' => {
                                         'Class' => '19943',
                                         'Header' => 'aligned_buffer.h',
                                         'InLine' => 2,
                                         'Line' => '64',
                                         'MnglName' => '_ZN9__gnu_cxx16__aligned_membufISt4pairIKmPN4zeno7reflect8TypeBaseEEE7_M_addrEv',
                                         'Param' => {
                                                      '0' => {
                                                               'name' => 'this',
                                                               'type' => '20277'
                                                             }
                                                    },
                                         'Return' => '2012',
                                         'ShortName' => '_M_addr'
                                       },
                            '20011' => {
                                         'Class' => '19943',
                                         'Const' => 1,
                                         'Header' => 'aligned_buffer.h',
                                         'InLine' => 2,
                                         'Line' => '68',
                                         'MnglName' => '_ZNK9__gnu_cxx16__aligned_membufISt4pairIKmPN4zeno7reflect8TypeBaseEEE7_M_addrEv',
                                         'Param' => {
                                                      '0' => {
                                                               'name' => 'this',
                                                               'type' => '20285'
                                                             }
                                                    },
                                         'Return' => '1950',
                                         'ShortName' => '_M_addr'
                                       },
                            '20028' => {
                                         'Class' => '19943',
                                         'Header' => 'aligned_buffer.h',
                                         'InLine' => 2,
                                         'Line' => '72',
                                         'MnglName' => '_ZN9__gnu_cxx16__aligned_membufISt4pairIKmPN4zeno7reflect8TypeBaseEEE6_M_ptrEv',
                                         'Param' => {
                                                      '0' => {
                                                               'name' => 'this',
                                                               'type' => '20277'
                                                             }
                                                    },
                                         'Return' => '19688',
                                         'ShortName' => '_M_ptr'
                                       },
                            '20045' => {
                                         'Class' => '19943',
                                         'Const' => 1,
                                         'Header' => 'aligned_buffer.h',
                                         'InLine' => 2,
                                         'Line' => '76',
                                         'MnglName' => '_ZNK9__gnu_cxx16__aligned_membufISt4pairIKmPN4zeno7reflect8TypeBaseEEE6_M_ptrEv',
                                         'Param' => {
                                                      '0' => {
                                                               'name' => 'this',
                                                               'type' => '20285'
                                                             }
                                                    },
                                         'Return' => '20295',
                                         'ShortName' => '_M_ptr'
                                       },
                            '32026' => {
                                         'Class' => '31953',
                                         'Constructor' => 1,
                                         'Header' => 'typeinfo.hpp',
                                         'Line' => '32',
                                         'MnglName' => '_ZN4zeno7reflect12RTTITypeInfoC2ERKS1_',
                                         'Param' => {
                                                      '0' => {
                                                               'name' => 'this',
                                                               'type' => '32381'
                                                             },
                                                      '1' => {
                                                               'name' => 'other',
                                                               'type' => '33896'
                                                             }
                                                    },
                                         'ShortName' => 'RTTITypeInfo',
                                         'Source' => 'typeinfo.cpp',
                                         'SourceLine' => '5'
                                       },
                            '32027' => {
                                         'Class' => '31953',
                                         'Constructor' => 1,
                                         'Header' => 'typeinfo.hpp',
                                         'Line' => '32',
                                         'MnglName' => '_ZN4zeno7reflect12RTTITypeInfoC1ERKS1_',
                                         'Param' => {
                                                      '0' => {
                                                               'name' => 'this',
                                                               'type' => '32381'
                                                             },
                                                      '1' => {
                                                               'name' => 'other',
                                                               'type' => '33896'
                                                             }
                                                    },
                                         'ShortName' => 'RTTITypeInfo',
                                         'Source' => 'typeinfo.cpp',
                                         'SourceLine' => '5'
                                       },
                            '32042' => {
                                         'Class' => '31953',
                                         'Constructor' => 1,
                                         'Header' => 'typeinfo.hpp',
                                         'Line' => '33',
                                         'MnglName' => '_ZN4zeno7reflect12RTTITypeInfoC2EOS1_',
                                         'Param' => {
                                                      '0' => {
                                                               'name' => 'this',
                                                               'type' => '32381'
                                                             },
                                                      '1' => {
                                                               'name' => 'other',
                                                               'type' => '33906'
                                                             }
                                                    },
                                         'ShortName' => 'RTTITypeInfo',
                                         'Source' => 'typeinfo.cpp',
                                         'SourceLine' => '12'
                                       },
                            '32043' => {
                                         'Class' => '31953',
                                         'Constructor' => 1,
                                         'Header' => 'typeinfo.hpp',
                                         'Line' => '33',
                                         'MnglName' => '_ZN4zeno7reflect12RTTITypeInfoC1EOS1_',
                                         'Param' => {
                                                      '0' => {
                                                               'name' => 'this',
                                                               'type' => '32381'
                                                             },
                                                      '1' => {
                                                               'name' => 'other',
                                                               'type' => '33906'
                                                             }
                                                    },
                                         'ShortName' => 'RTTITypeInfo',
                                         'Source' => 'typeinfo.cpp',
                                         'SourceLine' => '12'
                                       },
                            '32058' => {
                                         'Class' => '31953',
                                         'Header' => 'typeinfo.hpp',
                                         'Line' => '34',
                                         'MnglName' => '_ZN4zeno7reflect12RTTITypeInfoaSERKS1_',
                                         'Param' => {
                                                      '0' => {
                                                               'name' => 'this',
                                                               'type' => '32381'
                                                             },
                                                      '1' => {
                                                               'name' => 'other',
                                                               'type' => '33896'
                                                             }
                                                    },
                                         'Return' => '33911',
                                         'ShortName' => 'operator=',
                                         'Source' => 'typeinfo.cpp',
                                         'SourceLine' => '24'
                                       },
                            '32079' => {
                                         'Class' => '31953',
                                         'Header' => 'typeinfo.hpp',
                                         'Line' => '35',
                                         'MnglName' => '_ZN4zeno7reflect12RTTITypeInfoaSEOS1_',
                                         'Param' => {
                                                      '0' => {
                                                               'name' => 'this',
                                                               'type' => '32381'
                                                             },
                                                      '1' => {
                                                               'name' => 'other',
                                                               'type' => '33906'
                                                             }
                                                    },
                                         'Return' => '33911',
                                         'ShortName' => 'operator=',
                                         'Source' => 'typeinfo.cpp',
                                         'SourceLine' => '33'
                                       },
                            '32100' => {
                                         'Class' => '31953',
                                         'Const' => 1,
                                         'Header' => 'typeinfo.hpp',
                                         'Line' => '37',
                                         'MnglName' => '_ZNK4zeno7reflect12RTTITypeInfo4nameEv',
                                         'Param' => {
                                                      '0' => {
                                                               'name' => 'this',
                                                               'type' => '33916'
                                                             }
                                                    },
                                         'Return' => '2109',
                                         'ShortName' => 'name',
                                         'Source' => 'typeinfo.cpp',
                                         'SourceLine' => '48'
                                       },
                            '32116' => {
                                         'Class' => '31953',
                                         'Const' => 1,
                                         'Header' => 'typeinfo.hpp',
                                         'Line' => '38',
                                         'MnglName' => '_ZNK4zeno7reflect12RTTITypeInfo9hash_codeEv',
                                         'Param' => {
                                                      '0' => {
                                                               'name' => 'this',
                                                               'type' => '33916'
                                                             }
                                                    },
                                         'Return' => '1956',
                                         'ShortName' => 'hash_code',
                                         'Source' => 'typeinfo.cpp',
                                         'SourceLine' => '53'
                                       },
                            '32132' => {
                                         'Class' => '31953',
                                         'Const' => 1,
                                         'Header' => 'typeinfo.hpp',
                                         'Line' => '39',
                                         'MnglName' => '_ZNK4zeno7reflect12RTTITypeInfo5flagsEv',
                                         'Param' => {
                                                      '0' => {
                                                               'name' => 'this',
                                                               'type' => '33916'
                                                             }
                                                    },
                                         'Return' => '1956',
                                         'ShortName' => 'flags',
                                         'Source' => 'typeinfo.cpp',
                                         'SourceLine' => '58'
                                       },
                            '32148' => {
                                         'Class' => '31953',
                                         'Const' => 1,
                                         'Header' => 'typeinfo.hpp',
                                         'Line' => '40',
                                         'MnglName' => '_ZNK4zeno7reflect12RTTITypeInfo9has_flagsEm',
                                         'Param' => {
                                                      '0' => {
                                                               'name' => 'this',
                                                               'type' => '33916'
                                                             },
                                                      '1' => {
                                                               'name' => 'in_flags',
                                                               'type' => '1956'
                                                             }
                                                    },
                                         'Return' => '19466',
                                         'ShortName' => 'has_flags',
                                         'Source' => 'typeinfo.cpp',
                                         'SourceLine' => '63'
                                       },
                            '32169' => {
                                         'Class' => '31953',
                                         'Const' => 1,
                                         'Header' => 'typeinfo.hpp',
                                         'Line' => '42',
                                         'MnglName' => '_ZNK4zeno7reflect12RTTITypeInfo16get_decayed_hashEv',
                                         'Param' => {
                                                      '0' => {
                                                               'name' => 'this',
                                                               'type' => '33916'
                                                             }
                                                    },
                                         'Return' => '33925',
                                         'ShortName' => 'get_decayed_hash',
                                         'Source' => 'typeinfo.cpp',
                                         'SourceLine' => '68'
                                       },
                            '32185' => {
                                         'Class' => '31953',
                                         'Const' => 1,
                                         'Header' => 'typeinfo.hpp',
                                         'Line' => '47',
                                         'MnglName' => '_ZNK4zeno7reflect12RTTITypeInfo10equal_fastERKS1_',
                                         'Param' => {
                                                      '0' => {
                                                               'name' => 'this',
                                                               'type' => '33916'
                                                             },
                                                      '1' => {
                                                               'name' => 'other',
                                                               'type' => '33896'
                                                             }
                                                    },
                                         'Return' => '19466',
                                         'ShortName' => 'equal_fast',
                                         'Source' => 'typeinfo.cpp',
                                         'SourceLine' => '73'
                                       },
                            '32206' => {
                                         'Class' => '31953',
                                         'Const' => 1,
                                         'Header' => 'typeinfo.hpp',
                                         'Line' => '53',
                                         'MnglName' => '_ZNK4zeno7reflect12RTTITypeInfo17equal_fast_unsafeERKS1_',
                                         'Param' => {
                                                      '0' => {
                                                               'name' => 'this',
                                                               'type' => '33916'
                                                             },
                                                      '1' => {
                                                               'name' => 'other',
                                                               'type' => '33896'
                                                             }
                                                    },
                                         'Return' => '19466',
                                         'ShortName' => 'equal_fast_unsafe',
                                         'Source' => 'typeinfo.cpp',
                                         'SourceLine' => '78'
                                       },
                            '32227' => {
                                         'Class' => '31953',
                                         'Const' => 1,
                                         'Header' => 'typeinfo.hpp',
                                         'Line' => '54',
                                         'MnglName' => '_ZNK4zeno7reflect12RTTITypeInfoeqERKS1_',
                                         'Param' => {
                                                      '0' => {
                                                               'name' => 'this',
                                                               'type' => '33916'
                                                             },
                                                      '1' => {
                                                               'name' => 'other',
                                                               'type' => '33896'
                                                             }
                                                    },
                                         'Return' => '19466',
                                         'ShortName' => 'operator==',
                                         'Source' => 'typeinfo.cpp',
                                         'SourceLine' => '83'
                                       },
                            '32248' => {
                                         'Class' => '31953',
                                         'Const' => 1,
                                         'Header' => 'typeinfo.hpp',
                                         'Line' => '55',
                                         'MnglName' => '_ZNK4zeno7reflect12RTTITypeInfoneERKS1_',
                                         'Param' => {
                                                      '0' => {
                                                               'name' => 'this',
                                                               'type' => '33916'
                                                             },
                                                      '1' => {
                                                               'name' => 'other',
                                                               'type' => '33896'
                                                             }
                                                    },
                                         'Return' => '19466',
                                         'ShortName' => 'operator!=',
                                         'Source' => 'typeinfo.cpp',
                                         'SourceLine' => '88'
                                       },
                            '32323' => {
                                         'Class' => '32270',
                                         'Header' => 'string',
                                         'InLine' => 2,
                                         'Line' => '44',
                                         'MnglName' => '_ZN4zeno7reflect11CStringUtilIcE6strcmpEPKcS4_',
                                         'Param' => {
                                                      '0' => {
                                                               'name' => 'lhs',
                                                               'type' => '34378'
                                                             },
                                                      '1' => {
                                                               'name' => 'rhs',
                                                               'type' => '34378'
                                                             }
                                                    },
                                         'Return' => '1582',
                                         'ShortName' => 'strcmp',
                                         'Static' => 1
                                       },
                            '39136' => {
                                         'Class' => '39112',
                                         'Destructor' => 1,
                                         'Header' => 'type.hpp',
                                         'Line' => '180',
                                         'MnglName' => '_ZN4zeno7reflect16ITypeConstructorD0Ev',
                                         'Param' => {
                                                      '0' => {
                                                               'name' => 'this',
                                                               'type' => '42251'
                                                             }
                                                    },
                                         'ShortName' => '~ITypeConstructor',
                                         'Source' => 'type.cpp',
                                         'SourceLine' => '122',
                                         'Virt' => 1,
                                         'VirtPos' => '0'
                                       },
                            '39137' => {
                                         'Class' => '39112',
                                         'Destructor' => 1,
                                         'Header' => 'type.hpp',
                                         'Line' => '180',
                                         'MnglName' => '_ZN4zeno7reflect16ITypeConstructorD1Ev',
                                         'Param' => {
                                                      '0' => {
                                                               'name' => 'this',
                                                               'type' => '42251'
                                                             }
                                                    },
                                         'ShortName' => '~ITypeConstructor',
                                         'Source' => 'type.cpp',
                                         'SourceLine' => '122',
                                         'Virt' => 1,
                                         'VirtPos' => '0'
                                       },
                            '39155' => {
                                         'Class' => '39112',
                                         'Const' => 1,
                                         'Header' => 'type.hpp',
                                         'Line' => '192',
                                         'MnglName' => '_ZNK4zeno7reflect16ITypeConstructor12new_instanceERKNS0_9ArrayListINS0_3AnyEEE',
                                         'Param' => {
                                                      '0' => {
                                                               'name' => 'this',
                                                               'type' => '44138'
                                                             },
                                                      '1' => {
                                                               'name' => 'p1',
                                                               'type' => '44068'
                                                             }
                                                    },
                                         'PureVirt' => 1,
                                         'Return' => '2012',
                                         'ShortName' => 'new_instance',
                                         'VirtPos' => '3'
                                       },
                            '39184' => {
                                         'Class' => '39112',
                                         'Const' => 1,
                                         'Header' => 'type.hpp',
                                         'Line' => '194',
                                         'MnglName' => '_ZNK4zeno7reflect16ITypeConstructor15create_instanceERKNS0_9ArrayListINS0_3AnyEEE',
                                         'Param' => {
                                                      '0' => {
                                                               'name' => 'this',
                                                               'type' => '44138'
                                                             },
                                                      '1' => {
                                                               'name' => 'p1',
                                                               'type' => '44068'
                                                             }
                                                    },
                                         'PureVirt' => 1,
                                         'Return' => '41321',
                                         'ShortName' => 'create_instance',
                                         'VirtPos' => '4'
                                       },
                            '39213' => {
                                         'Class' => '39112',
                                         'Constructor' => 1,
                                         'Header' => 'type.hpp',
                                         'Line' => '196',
                                         'MnglName' => '_ZN4zeno7reflect16ITypeConstructorC2ERKNS0_10TypeHandleE',
                                         'Param' => {
                                                      '0' => {
                                                               'name' => 'this',
                                                               'type' => '42251'
                                                             },
                                                      '1' => {
                                                               'name' => 'in_type',
                                                               'type' => '44023'
                                                             }
                                                    },
                                         'Protected' => 1,
                                         'ShortName' => 'ITypeConstructor',
                                         'Source' => 'type.cpp',
                                         'SourceLine' => '124'
                                       },
                            '39257' => {
                                         'Class' => '39230',
                                         'Const' => 1,
                                         'Header' => 'type.hpp',
                                         'Line' => '159',
                                         'MnglName' => '_ZNK4zeno7reflect19IBelongToParentType15get_parent_typeEv',
                                         'Param' => {
                                                      '0' => {
                                                               'name' => 'this',
                                                               'type' => '44038'
                                                             }
                                                    },
                                         'Return' => '39317',
                                         'ShortName' => 'get_parent_type',
                                         'Source' => 'type.cpp',
                                         'SourceLine' => '180',
                                         'Virt' => 1,
                                         'VirtPos' => '0'
                                       },
                            '39281' => {
                                         'Class' => '39230',
                                         'Destructor' => 1,
                                         'Header' => 'type.hpp',
                                         'Line' => '160',
                                         'MnglName' => '_ZN4zeno7reflect19IBelongToParentTypeD0Ev',
                                         'Param' => {
                                                      '0' => {
                                                               'name' => 'this',
                                                               'type' => '44048'
                                                             }
                                                    },
                                         'ShortName' => '~IBelongToParentType',
                                         'Source' => 'type.cpp',
                                         'SourceLine' => '185',
                                         'Virt' => 1,
                                         'VirtPos' => '0'
                                       },
                            '39282' => {
                                         'Class' => '39230',
                                         'Destructor' => 1,
                                         'Header' => 'type.hpp',
                                         'Line' => '160',
                                         'MnglName' => '_ZN4zeno7reflect19IBelongToParentTypeD1Ev',
                                         'Param' => {
                                                      '0' => {
                                                               'name' => 'this',
                                                               'type' => '44048'
                                                             }
                                                    },
                                         'ShortName' => '~IBelongToParentType',
                                         'Source' => 'type.cpp',
                                         'SourceLine' => '185',
                                         'Virt' => 1,
                                         'VirtPos' => '0'
                                       },
                            '39300' => {
                                         'Class' => '39230',
                                         'Constructor' => 1,
                                         'Header' => 'type.hpp',
                                         'Line' => '162',
                                         'MnglName' => '_ZN4zeno7reflect19IBelongToParentTypeC2ERKNS0_10TypeHandleE',
                                         'Param' => {
                                                      '0' => {
                                                               'name' => 'this',
                                                               'type' => '44048'
                                                             },
                                                      '1' => {
                                                               'name' => 'in_type',
                                                               'type' => '44023'
                                                             }
                                                    },
                                         'Protected' => 1,
                                         'ShortName' => 'IBelongToParentType',
                                         'Source' => 'type.cpp',
                                         'SourceLine' => '189'
                                       },
                            '39301' => {
                                         'Class' => '39230',
                                         'Constructor' => 1,
                                         'Header' => 'type.hpp',
                                         'Line' => '162',
                                         'MnglName' => '_ZN4zeno7reflect19IBelongToParentTypeC1ERKNS0_10TypeHandleE',
                                         'Param' => {
                                                      '0' => {
                                                               'name' => 'this',
                                                               'type' => '44048'
                                                             },
                                                      '1' => {
                                                               'name' => 'in_type',
                                                               'type' => '44023'
                                                             }
                                                    },
                                         'Protected' => 1,
                                         'ShortName' => 'IBelongToParentType',
                                         'Source' => 'type.cpp',
                                         'SourceLine' => '189'
                                       },
                            '39355' => {
                                         'Artificial' => 1,
                                         'Class' => '39332',
                                         'Constructor' => 1,
                                         'Header' => 'type.hpp',
                                         'Line' => '59',
                                         'MnglName' => '_ZN4zeno7reflect10TypeHandleUt_C2Ev',
                                         'Param' => {
                                                      '0' => {
                                                               'name' => 'this',
                                                               'type' => '44329'
                                                             }
                                                    },
                                         'ShortName' => '(unnamed union at /home/darc/codes/clang_reflection_test/crates/libreflect/include/reflect/type.hpp:59:17)'
                                       },
                            '39373' => {
                                         'Class' => '39317',
                                         'Constructor' => 1,
                                         'Header' => 'type.hpp',
                                         'Line' => '66',
                                         'MnglName' => '_ZN4zeno7reflect10TypeHandleC2EPNS0_8TypeBaseE',
                                         'Param' => {
                                                      '0' => {
                                                               'name' => 'this',
                                                               'type' => '44008'
                                                             },
                                                      '1' => {
                                                               'name' => 'type_info',
                                                               'type' => '19521'
                                                             }
                                                    },
                                         'ShortName' => 'TypeHandle',
                                         'Source' => 'type.cpp',
                                         'SourceLine' => '16'
                                       },
                            '39374' => {
                                         'Class' => '39317',
                                         'Constructor' => 1,
                                         'Header' => 'type.hpp',
                                         'Line' => '66',
                                         'MnglName' => '_ZN4zeno7reflect10TypeHandleC1EPNS0_8TypeBaseE',
                                         'Param' => {
                                                      '0' => {
                                                               'name' => 'this',
                                                               'type' => '44008'
                                                             },
                                                      '1' => {
                                                               'name' => 'type_info',
                                                               'type' => '19521'
                                                             }
                                                    },
                                         'ShortName' => 'TypeHandle',
                                         'Source' => 'type.cpp',
                                         'SourceLine' => '16'
                                       },
                            '39389' => {
                                         'Class' => '39317',
                                         'Constructor' => 1,
                                         'Header' => 'type.hpp',
                                         'Line' => '67',
                                         'MnglName' => '_ZN4zeno7reflect10TypeHandleC2ERKNS0_12RTTITypeInfoE',
                                         'Param' => {
                                                      '0' => {
                                                               'name' => 'this',
                                                               'type' => '44008'
                                                             },
                                                      '1' => {
                                                               'name' => 'rtti_info',
                                                               'type' => '33896'
                                                             }
                                                    },
                                         'ShortName' => 'TypeHandle',
                                         'Source' => 'type.cpp',
                                         'SourceLine' => '22'
                                       },
                            '39390' => {
                                         'Class' => '39317',
                                         'Constructor' => 1,
                                         'Header' => 'type.hpp',
                                         'Line' => '67',
                                         'MnglName' => '_ZN4zeno7reflect10TypeHandleC1ERKNS0_12RTTITypeInfoE',
                                         'Param' => {
                                                      '0' => {
                                                               'name' => 'this',
                                                               'type' => '44008'
                                                             },
                                                      '1' => {
                                                               'name' => 'rtti_info',
                                                               'type' => '33896'
                                                             }
                                                    },
                                         'ShortName' => 'TypeHandle',
                                         'Source' => 'type.cpp',
                                         'SourceLine' => '22'
                                       },
                            '39405' => {
                                         'Class' => '39317',
                                         'Const' => 1,
                                         'Header' => 'type.hpp',
                                         'Line' => '69',
                                         'MnglName' => '_ZNK4zeno7reflect10TypeHandleeqERKS1_',
                                         'Param' => {
                                                      '0' => {
                                                               'name' => 'this',
                                                               'type' => '44013'
                                                             },
                                                      '1' => {
                                                               'name' => 'other',
                                                               'type' => '44023'
                                                             }
                                                    },
                                         'Return' => '19466',
                                         'ShortName' => 'operator==',
                                         'Source' => 'type.cpp',
                                         'SourceLine' => '28'
                                       },
                            '39426' => {
                                         'Class' => '39317',
                                         'Const' => 1,
                                         'Header' => 'type.hpp',
                                         'Line' => '70',
                                         'MnglName' => '_ZNK4zeno7reflect10TypeHandleneERKS1_',
                                         'Param' => {
                                                      '0' => {
                                                               'name' => 'this',
                                                               'type' => '44013'
                                                             },
                                                      '1' => {
                                                               'name' => 'other',
                                                               'type' => '44023'
                                                             }
                                                    },
                                         'Return' => '19466',
                                         'ShortName' => 'operator!=',
                                         'Source' => 'type.cpp',
                                         'SourceLine' => '32'
                                       },
                            '39447' => {
                                         'Class' => '39317',
                                         'Const' => 1,
                                         'Header' => 'type.hpp',
                                         'Line' => '72',
                                         'MnglName' => '_ZNK4zeno7reflect10TypeHandle26get_reflected_type_or_nullEv',
                                         'Param' => {
                                                      '0' => {
                                                               'name' => 'this',
                                                               'type' => '44013'
                                                             }
                                                    },
                                         'Return' => '19521',
                                         'ShortName' => 'get_reflected_type_or_null',
                                         'Source' => 'type.cpp',
                                         'SourceLine' => '53'
                                       },
                            '39463' => {
                                         'Class' => '39317',
                                         'Const' => 1,
                                         'Header' => 'type.hpp',
                                         'Line' => '73',
                                         'MnglName' => '_ZNK4zeno7reflect10TypeHandleptEv',
                                         'Param' => {
                                                      '0' => {
                                                               'name' => 'this',
                                                               'type' => '44013'
                                                             }
                                                    },
                                         'Return' => '19521',
                                         'ShortName' => 'operator->',
                                         'Source' => 'type.cpp',
                                         'SourceLine' => '36'
                                       },
                            '39479' => {
                                         'Class' => '39317',
                                         'Const' => 1,
                                         'Header' => 'type.hpp',
                                         'Line' => '75',
                                         'MnglName' => '_ZNK4zeno7reflect10TypeHandle9type_hashEv',
                                         'Param' => {
                                                      '0' => {
                                                               'name' => 'this',
                                                               'type' => '44013'
                                                             }
                                                    },
                                         'Return' => '1956',
                                         'ShortName' => 'type_hash',
                                         'Source' => 'type.cpp',
                                         'SourceLine' => '41'
                                       },
                            '39505' => {
                                         'Class' => '39317',
                                         'Constructor' => 1,
                                         'Header' => 'type.hpp',
                                         'Line' => '86',
                                         'MnglName' => '_ZN4zeno7reflect10TypeHandleC2ERKNS0_13T_NullTypeArgE',
                                         'Param' => {
                                                      '0' => {
                                                               'name' => 'this',
                                                               'type' => '44008'
                                                             },
                                                      '1' => {
                                                               'name' => 'p1',
                                                               'type' => '44028'
                                                             }
                                                    },
                                         'Private' => 1,
                                         'ShortName' => 'TypeHandle',
                                         'Source' => 'type.cpp',
                                         'SourceLine' => '67'
                                       },
                            '39506' => {
                                         'Class' => '39317',
                                         'Constructor' => 1,
                                         'Header' => 'type.hpp',
                                         'Line' => '86',
                                         'MnglName' => '_ZN4zeno7reflect10TypeHandleC1ERKNS0_13T_NullTypeArgE',
                                         'Param' => {
                                                      '0' => {
                                                               'name' => 'this',
                                                               'type' => '44008'
                                                             },
                                                      '1' => {
                                                               'name' => 'p1',
                                                               'type' => '44028'
                                                             }
                                                    },
                                         'Private' => 1,
                                         'ShortName' => 'TypeHandle',
                                         'Source' => 'type.cpp',
                                         'SourceLine' => '67'
                                       },
                            '39548' => {
                                         'Class' => '6226',
                                         'Constructor' => 1,
                                         'Header' => 'type.hpp',
                                         'Line' => '98',
                                         'MnglName' => '_ZN4zeno7reflect8TypeBaseC2ERKNS0_17ReflectedTypeInfoE',
                                         'Param' => {
                                                      '0' => {
                                                               'name' => 'this',
                                                               'type' => '19521'
                                                             },
                                                      '1' => {
                                                               'name' => 'type_info',
                                                               'type' => '42328'
                                                             }
                                                    },
                                         'Protected' => 1,
                                         'ShortName' => 'TypeBase',
                                         'Source' => 'type.cpp',
                                         'SourceLine' => '72'
                                       },
                            '39575' => {
                                         'Class' => '6226',
                                         'Destructor' => 1,
                                         'Header' => 'type.hpp',
                                         'Line' => '103',
                                         'MnglName' => '_ZN4zeno7reflect8TypeBaseD0Ev',
                                         'Param' => {
                                                      '0' => {
                                                               'name' => 'this',
                                                               'type' => '19521'
                                                             }
                                                    },
                                         'ShortName' => '~TypeBase',
                                         'Source' => 'type.cpp',
                                         'SourceLine' => '10',
                                         'Virt' => 1,
                                         'VirtPos' => '0'
                                       },
                            '39576' => {
                                         'Class' => '6226',
                                         'Destructor' => 1,
                                         'Header' => 'type.hpp',
                                         'Line' => '103',
                                         'MnglName' => '_ZN4zeno7reflect8TypeBaseD1Ev',
                                         'Param' => {
                                                      '0' => {
                                                               'name' => 'this',
                                                               'type' => '19521'
                                                             }
                                                    },
                                         'ShortName' => '~TypeBase',
                                         'Source' => 'type.cpp',
                                         'SourceLine' => '10',
                                         'Virt' => 1,
                                         'VirtPos' => '0'
                                       },
                            '39594' => {
                                         'Class' => '6226',
                                         'Const' => 1,
                                         'Header' => 'type.hpp',
                                         'Line' => '105',
                                         'MnglName' => '_ZNK4zeno7reflect8TypeBaseeqERKS1_',
                                         'Param' => {
                                                      '0' => {
                                                               'name' => 'this',
                                                               'type' => '42338'
                                                             },
                                                      '1' => {
                                                               'name' => 'other',
                                                               'type' => '42348'
                                                             }
                                                    },
                                         'Return' => '19466',
                                         'ShortName' => 'operator==',
                                         'Source' => 'type.cpp',
                                         'SourceLine' => '77',
                                         'Virt' => 1,
                                         'VirtPos' => '3'
                                       },
                            '39623' => {
                                         'Class' => '6226',
                                         'Const' => 1,
                                         'Header' => 'type.hpp',
                                         'Line' => '106',
                                         'MnglName' => '_ZNK4zeno7reflect8TypeBaseneERKS1_',
                                         'Param' => {
                                                      '0' => {
                                                               'name' => 'this',
                                                               'type' => '42338'
                                                             },
                                                      '1' => {
                                                               'name' => 'other',
                                                               'type' => '42348'
                                                             }
                                                    },
                                         'Return' => '19466',
                                         'ShortName' => 'operator!=',
                                         'Source' => 'type.cpp',
                                         'SourceLine' => '82',
                                         'Virt' => 1,
                                         'VirtPos' => '4'
                                       },
                            '39652' => {
                                         'Class' => '6226',
                                         'Const' => 1,
                                         'Header' => 'type.hpp',
                                         'Line' => '108',
                                         'MnglName' => '_ZNK4zeno7reflect8TypeBase9type_hashEv',
                                         'Param' => {
                                                      '0' => {
                                                               'name' => 'this',
                                                               'type' => '42338'
                                                             }
                                                    },
                                         'PureVirt' => 1,
                                         'Return' => '10586',
                                         'ShortName' => 'type_hash',
                                         'VirtPos' => '5'
                                       },
                            '39676' => {
                                         'Class' => '6226',
                                         'Const' => 1,
                                         'Header' => 'type.hpp',
                                         'Line' => '109',
                                         'MnglName' => '_ZNK4zeno7reflect8TypeBase13get_rtti_infoEv',
                                         'Param' => {
                                                      '0' => {
                                                               'name' => 'this',
                                                               'type' => '42338'
                                                             }
                                                    },
                                         'PureVirt' => 1,
                                         'Return' => '33896',
                                         'ShortName' => 'get_rtti_info',
                                         'VirtPos' => '6'
                                       },
                            '39700' => {
                                         'Class' => '6226',
                                         'Const' => 1,
                                         'Header' => 'type.hpp',
                                         'Line' => '110',
                                         'MnglName' => '_ZNK4zeno7reflect8TypeBase8get_infoEv',
                                         'Param' => {
                                                      '0' => {
                                                               'name' => 'this',
                                                               'type' => '42338'
                                                             }
                                                    },
                                         'Return' => '42328',
                                         'ShortName' => 'get_info',
                                         'Source' => 'type.cpp',
                                         'SourceLine' => '87',
                                         'Virt' => 1,
                                         'VirtPos' => '7'
                                       },
                            '39724' => {
                                         'Class' => '6226',
                                         'Const' => 1,
                                         'Header' => 'type.hpp',
                                         'Line' => '112',
                                         'MnglName' => '_ZNK4zeno7reflect8TypeBase16get_constructorsEv',
                                         'Param' => {
                                                      '0' => {
                                                               'name' => 'this',
                                                               'type' => '42338'
                                                             }
                                                    },
                                         'PureVirt' => 1,
                                         'Return' => '43917',
                                         'ShortName' => 'get_constructors',
                                         'VirtPos' => '8'
                                       },
                            '39748' => {
                                         'Class' => '6226',
                                         'Const' => 1,
                                         'Header' => 'type.hpp',
                                         'Line' => '113',
                                         'MnglName' => '_ZNK4zeno7reflect8TypeBase20get_member_functionsEv',
                                         'Param' => {
                                                      '0' => {
                                                               'name' => 'this',
                                                               'type' => '42338'
                                                             }
                                                    },
                                         'PureVirt' => 1,
                                         'Return' => '43963',
                                         'ShortName' => 'get_member_functions',
                                         'VirtPos' => '9'
                                       },
                            '39772' => {
                                         'Class' => '6226',
                                         'Const' => 1,
                                         'Header' => 'type.hpp',
                                         'Line' => '114',
                                         'MnglName' => '_ZNK4zeno7reflect8TypeBase17get_member_fieldsEv',
                                         'Param' => {
                                                      '0' => {
                                                               'name' => 'this',
                                                               'type' => '42338'
                                                             }
                                                    },
                                         'PureVirt' => 1,
                                         'Return' => '43973',
                                         'ShortName' => 'get_member_fields',
                                         'VirtPos' => '10'
                                       },
                            '39796' => {
                                         'Class' => '6226',
                                         'Const' => 1,
                                         'Header' => 'type.hpp',
                                         'Line' => '115',
                                         'MnglName' => '_ZNK4zeno7reflect8TypeBase15get_constructorERKNS0_9ArrayListINS0_12RTTITypeInfoEEE',
                                         'Param' => {
                                                      '0' => {
                                                               'name' => 'this',
                                                               'type' => '42338'
                                                             },
                                                      '1' => {
                                                               'name' => 'types',
                                                               'type' => '43983'
                                                             }
                                                    },
                                         'Return' => '40373',
                                         'ShortName' => 'get_constructor',
                                         'Source' => 'type.cpp',
                                         'SourceLine' => '92',
                                         'Virt' => 1,
                                         'VirtPos' => '11'
                                       },
                            '39825' => {
                                         'Class' => '6226',
                                         'Const' => 1,
                                         'Header' => 'type.hpp',
                                         'Line' => '116',
                                         'MnglName' => '_ZNK4zeno7reflect8TypeBase23get_constructor_or_nullERKNS0_9ArrayListINS0_12RTTITypeInfoEEE',
                                         'Param' => {
                                                      '0' => {
                                                               'name' => 'this',
                                                               'type' => '42338'
                                                             },
                                                      '1' => {
                                                               'name' => 'params',
                                                               'type' => '43983'
                                                             }
                                                    },
                                         'Return' => '42251',
                                         'ShortName' => 'get_constructor_or_null',
                                         'Source' => 'type.cpp',
                                         'SourceLine' => '104',
                                         'Virt' => 1,
                                         'VirtPos' => '12'
                                       },
                            '39854' => {
                                         'Class' => '6226',
                                         'Const' => 1,
                                         'Header' => 'type.hpp',
                                         'Line' => '117',
                                         'MnglName' => '_ZNK4zeno7reflect8TypeBase23get_constructor_checkedERKNS0_9ArrayListINS0_12RTTITypeInfoEEE',
                                         'Param' => {
                                                      '0' => {
                                                               'name' => 'this',
                                                               'type' => '42338'
                                                             },
                                                      '1' => {
                                                               'name' => 'params',
                                                               'type' => '43983'
                                                             }
                                                    },
                                         'Return' => '43993',
                                         'ShortName' => 'get_constructor_checked',
                                         'Source' => 'type.cpp',
                                         'SourceLine' => '115',
                                         'Virt' => 1,
                                         'VirtPos' => '13'
                                       },
                            '39883' => {
                                         'Class' => '6226',
                                         'Const' => 1,
                                         'Header' => 'type.hpp',
                                         'Line' => '119',
                                         'MnglName' => '_ZNK4zeno7reflect8TypeBase16get_base_classesEv',
                                         'Param' => {
                                                      '0' => {
                                                               'name' => 'this',
                                                               'type' => '42338'
                                                             }
                                                    },
                                         'PureVirt' => 1,
                                         'Return' => '43998',
                                         'ShortName' => 'get_base_classes',
                                         'VirtPos' => '14'
                                       },
                            '39925' => {
                                         'Class' => '39908',
                                         'Destructor' => 1,
                                         'Header' => 'type.hpp',
                                         'Line' => '91',
                                         'MnglName' => '_ZN4zeno7reflect15ICanHasMetadataD0Ev',
                                         'Param' => {
                                                      '0' => {
                                                               'name' => 'this',
                                                               'type' => '42277'
                                                             }
                                                    },
                                         'ShortName' => '~ICanHasMetadata',
                                         'Source' => 'type.cpp',
                                         'SourceLine' => '245',
                                         'Virt' => 1,
                                         'VirtPos' => '0'
                                       },
                            '39926' => {
                                         'Class' => '39908',
                                         'Destructor' => 1,
                                         'Header' => 'type.hpp',
                                         'Line' => '91',
                                         'MnglName' => '_ZN4zeno7reflect15ICanHasMetadataD1Ev',
                                         'Param' => {
                                                      '0' => {
                                                               'name' => 'this',
                                                               'type' => '42277'
                                                             }
                                                    },
                                         'ShortName' => '~ICanHasMetadata',
                                         'Source' => 'type.cpp',
                                         'SourceLine' => '245',
                                         'Virt' => 1,
                                         'VirtPos' => '0'
                                       },
                            '39944' => {
                                         'Class' => '39908',
                                         'Const' => 1,
                                         'Header' => 'type.hpp',
                                         'Line' => '93',
                                         'MnglName' => '_ZNK4zeno7reflect15ICanHasMetadata12get_metadataEv',
                                         'Param' => {
                                                      '0' => {
                                                               'name' => 'this',
                                                               'type' => '42292'
                                                             }
                                                    },
                                         'Return' => '42282',
                                         'ShortName' => 'get_metadata',
                                         'Source' => 'type.cpp',
                                         'SourceLine' => '249',
                                         'Virt' => 1,
                                         'VirtPos' => '2'
                                       },
                            '39968' => {
                                         'Artificial' => 1,
                                         'Class' => '39908',
                                         'Constructor' => 1,
                                         'Header' => 'type.hpp',
                                         'Line' => '89',
                                         'MnglName' => '_ZN4zeno7reflect15ICanHasMetadataC2Ev',
                                         'Param' => {
                                                      '0' => {
                                                               'name' => 'this',
                                                               'type' => '42277'
                                                             }
                                                    },
                                         'ShortName' => 'ICanHasMetadata'
                                       },
                            '40022' => {
                                         'Class' => '39980',
                                         'Destructor' => 1,
                                         'Header' => 'type.hpp',
                                         'Line' => '53',
                                         'MnglName' => '_ZN4zeno7reflect17ReflectedTypeInfoD2Ev',
                                         'Param' => {
                                                      '0' => {
                                                               'name' => 'this',
                                                               'type' => '42318'
                                                             }
                                                    },
                                         'ShortName' => '~ReflectedTypeInfo',
                                         'Source' => 'type.cpp',
                                         'SourceLine' => '13'
                                       },
                            '40032' => {
                                         'Artificial' => 1,
                                         'Class' => '39980',
                                         'Constructor' => 1,
                                         'Header' => 'type.hpp',
                                         'Line' => '46',
                                         'MnglName' => '_ZN4zeno7reflect17ReflectedTypeInfoC2ERKS1_',
                                         'Param' => {
                                                      '0' => {
                                                               'name' => 'this',
                                                               'type' => '42318'
                                                             },
                                                      '1' => {
                                                               'name' => 'p1',
                                                               'type' => '42328'
                                                             }
                                                    },
                                         'ShortName' => 'ReflectedTypeInfo'
                                       },
                            '40412' => {
                                         'Class' => '40373',
                                         'Header' => 'arraylist',
                                         'InLine' => 2,
                                         'Line' => '27',
                                         'MnglName' => '_ZN4zeno7reflect9ArrayListIPNS0_16ITypeConstructorEE15resize_internalEv',
                                         'Param' => {
                                                      '0' => {
                                                               'name' => 'this',
                                                               'type' => '43928'
                                                             }
                                                    },
                                         'Private' => 1,
                                         'Return' => '1',
                                         'ShortName' => 'resize_internal'
                                       },
                            '40423' => {
                                         'Class' => '40373',
                                         'Constructor' => 1,
                                         'Header' => 'arraylist',
                                         'Line' => '41',
                                         'MnglName' => '_ZN4zeno7reflect9ArrayListIPNS0_16ITypeConstructorEEC2Em',
                                         'Param' => {
                                                      '0' => {
                                                               'name' => 'this',
                                                               'type' => '43928'
                                                             },
                                                      '1' => {
                                                               'name' => 'init_size',
                                                               'type' => '1956'
                                                             }
                                                    },
                                         'ShortName' => 'ArrayList'
                                       },
                            '40455' => {
                                         'Class' => '40373',
                                         'Destructor' => 1,
                                         'Header' => 'arraylist',
                                         'Line' => '51',
                                         'MnglName' => '_ZN4zeno7reflect9ArrayListIPNS0_16ITypeConstructorEED2Ev',
                                         'Param' => {
                                                      '0' => {
                                                               'name' => 'this',
                                                               'type' => '43928'
                                                             }
                                                    },
                                         'ShortName' => '~ArrayList'
                                       },
                            '40519' => {
                                         'Class' => '40373',
                                         'Header' => 'arraylist',
                                         'InLine' => 2,
                                         'Line' => '71',
                                         'MnglName' => '_ZN4zeno7reflect9ArrayListIPNS0_16ITypeConstructorEE8add_itemERKS3_',
                                         'Param' => {
                                                      '0' => {
                                                               'name' => 'this',
                                                               'type' => '43928'
                                                             },
                                                      '1' => {
                                                               'name' => 'value',
                                                               'type' => '43943'
                                                             }
                                                    },
                                         'Return' => '1956',
                                         'ShortName' => 'add_item'
                                       },
                            '40665' => {
                                         'Class' => '40373',
                                         'Header' => 'arraylist',
                                         'InLine' => 2,
                                         'Line' => '138',
                                         'MnglName' => '_ZN4zeno7reflect9ArrayListIPNS0_16ITypeConstructorEE5resetEv',
                                         'Param' => {
                                                      '0' => {
                                                               'name' => 'this',
                                                               'type' => '43928'
                                                             }
                                                    },
                                         'Return' => '1',
                                         'ShortName' => 'reset'
                                       },
                            '40736' => {
                                         'Class' => '40373',
                                         'Const' => 1,
                                         'Header' => 'arraylist',
                                         'InLine' => 2,
                                         'Line' => '166',
                                         'MnglName' => '_ZNK4zeno7reflect9ArrayListIPNS0_16ITypeConstructorEE4sizeEv',
                                         'Param' => {
                                                      '0' => {
                                                               'name' => 'this',
                                                               'type' => '43938'
                                                             }
                                                    },
                                         'Return' => '1956',
                                         'ShortName' => 'size'
                                       },
                            '40790' => {
                                         'Class' => '40373',
                                         'Const' => 1,
                                         'Header' => 'arraylist',
                                         'InLine' => 2,
                                         'Line' => '196',
                                         'MnglName' => '_ZNK4zeno7reflect9ArrayListIPNS0_16ITypeConstructorEE5beginEv',
                                         'Param' => {
                                                      '0' => {
                                                               'name' => 'this',
                                                               'type' => '43938'
                                                             }
                                                    },
                                         'Return' => '42246',
                                         'ShortName' => 'begin'
                                       },
                            '40806' => {
                                         'Class' => '40373',
                                         'Const' => 1,
                                         'Header' => 'arraylist',
                                         'InLine' => 2,
                                         'Line' => '200',
                                         'MnglName' => '_ZNK4zeno7reflect9ArrayListIPNS0_16ITypeConstructorEE3endEv',
                                         'Param' => {
                                                      '0' => {
                                                               'name' => 'this',
                                                               'type' => '43938'
                                                             }
                                                    },
                                         'Return' => '42246',
                                         'ShortName' => 'end'
                                       },
                            '40895' => {
                                         'Class' => '40893',
                                         'Const' => 1,
                                         'Header' => 'arraylist',
                                         'InLine' => 2,
                                         'Line' => '166',
                                         'MnglName' => '_ZNK4zeno7reflect9ArrayListINS0_12RTTITypeInfoEE4sizeEv',
                                         'Param' => {
                                                      '0' => {
                                                               'name' => 'this',
                                                               'type' => '45705'
                                                             }
                                                    },
                                         'Return' => '1956',
                                         'ShortName' => 'size'
                                       },
                            '40911' => {
                                         'Class' => '40893',
                                         'Const' => 1,
                                         'Header' => 'arraylist',
                                         'InLine' => 2,
                                         'Line' => '161',
                                         'MnglName' => '_ZNK4zeno7reflect9ArrayListINS0_12RTTITypeInfoEEixEm',
                                         'Param' => {
                                                      '0' => {
                                                               'name' => 'this',
                                                               'type' => '45705'
                                                             },
                                                      '1' => {
                                                               'name' => 'index',
                                                               'type' => '1956'
                                                             }
                                                    },
                                         'Return' => '33896',
                                         'ShortName' => 'operator[]'
                                       },
                            '40932' => {
                                         'Class' => '40893',
                                         'Const' => 1,
                                         'Header' => 'arraylist',
                                         'InLine' => 2,
                                         'Line' => '67',
                                         'MnglName' => '_ZNK4zeno7reflect9ArrayListINS0_12RTTITypeInfoEE14is_valid_indexEm',
                                         'Param' => {
                                                      '0' => {
                                                               'name' => 'this',
                                                               'type' => '45705'
                                                             },
                                                      '1' => {
                                                               'name' => 'index',
                                                               'type' => '1956'
                                                             }
                                                    },
                                         'Return' => '19466',
                                         'ShortName' => 'is_valid_index'
                                       },
                            '40979' => {
                                         'Class' => '40962',
                                         'Destructor' => 1,
                                         'Header' => 'type.hpp',
                                         'Line' => '137',
                                         'MnglName' => '_ZN4zeno7reflect13IHasParameterD0Ev',
                                         'Param' => {
                                                      '0' => {
                                                               'name' => 'this',
                                                               'type' => '44053'
                                                             }
                                                    },
                                         'ShortName' => '~IHasParameter',
                                         'Source' => 'type.cpp',
                                         'SourceLine' => '129',
                                         'Virt' => 1,
                                         'VirtPos' => '0'
                                       },
                            '40980' => {
                                         'Class' => '40962',
                                         'Destructor' => 1,
                                         'Header' => 'type.hpp',
                                         'Line' => '137',
                                         'MnglName' => '_ZN4zeno7reflect13IHasParameterD1Ev',
                                         'Param' => {
                                                      '0' => {
                                                               'name' => 'this',
                                                               'type' => '44053'
                                                             }
                                                    },
                                         'ShortName' => '~IHasParameter',
                                         'Source' => 'type.cpp',
                                         'SourceLine' => '129',
                                         'Virt' => 1,
                                         'VirtPos' => '0'
                                       },
                            '40998' => {
                                         'Class' => '40962',
                                         'Const' => 1,
                                         'Header' => 'type.hpp',
                                         'Line' => '139',
                                         'MnglName' => '_ZNK4zeno7reflect13IHasParameter23is_suitable_with_paramsERKNS0_9ArrayListINS0_12RTTITypeInfoEEE',
                                         'Param' => {
                                                      '0' => {
                                                               'name' => 'this',
                                                               'type' => '44058'
                                                             },
                                                      '1' => {
                                                               'name' => 'types',
                                                               'type' => '43983'
                                                             }
                                                    },
                                         'Return' => '19466',
                                         'ShortName' => 'is_suitable_with_params',
                                         'Source' => 'type.cpp',
                                         'SourceLine' => '131',
                                         'Virt' => 1,
                                         'VirtPos' => '2'
                                       },
                            '41027' => {
                                         'Class' => '40962',
                                         'Const' => 1,
                                         'Header' => 'type.hpp',
                                         'Line' => '140',
                                         'MnglName' => '_ZNK4zeno7reflect13IHasParameter21is_suitable_to_invokeERKNS0_9ArrayListINS0_3AnyEEE',
                                         'Param' => {
                                                      '0' => {
                                                               'name' => 'this',
                                                               'type' => '44058'
                                                             },
                                                      '1' => {
                                                               'name' => 'params',
                                                               'type' => '44068'
                                                             }
                                                    },
                                         'Return' => '19466',
                                         'ShortName' => 'is_suitable_to_invoke',
                                         'Source' => 'type.cpp',
                                         'SourceLine' => '148',
                                         'Virt' => 1,
                                         'VirtPos' => '3'
                                       },
                            '41056' => {
                                         'Class' => '40962',
                                         'Const' => 1,
                                         'Header' => 'type.hpp',
                                         'Line' => '141',
                                         'MnglName' => '_ZNK4zeno7reflect13IHasParameter21is_suitable_to_invokeERKNS0_9ArrayListIPNS0_3AnyEEE',
                                         'Param' => {
                                                      '0' => {
                                                               'name' => 'this',
                                                               'type' => '44058'
                                                             },
                                                      '1' => {
                                                               'name' => 'params',
                                                               'type' => '44078'
                                                             }
                                                    },
                                         'Return' => '19466',
                                         'ShortName' => 'is_suitable_to_invoke',
                                         'Source' => 'type.cpp',
                                         'SourceLine' => '164',
                                         'Virt' => 1,
                                         'VirtPos' => '4'
                                       },
                            '41085' => {
                                         'Class' => '40962',
                                         'Const' => 1,
                                         'Header' => 'type.hpp',
                                         'Line' => '143',
                                         'MnglName' => '_ZNK4zeno7reflect13IHasParameter10get_paramsEv',
                                         'Param' => {
                                                      '0' => {
                                                               'name' => 'this',
                                                               'type' => '44058'
                                                             }
                                                    },
                                         'PureVirt' => 1,
                                         'Return' => '43983',
                                         'ShortName' => 'get_params',
                                         'VirtPos' => '5'
                                       },
                            '41109' => {
                                         'Class' => '40962',
                                         'Const' => 1,
                                         'Header' => 'type.hpp',
                                         'Line' => '144',
                                         'MnglName' => '_ZNK4zeno7reflect13IHasParameter18get_params_dacayedEv',
                                         'Param' => {
                                                      '0' => {
                                                               'name' => 'this',
                                                               'type' => '44058'
                                                             }
                                                    },
                                         'PureVirt' => 1,
                                         'Return' => '43983',
                                         'ShortName' => 'get_params_dacayed',
                                         'VirtPos' => '6'
                                       },
                            '41133' => {
                                         'Class' => '40962',
                                         'Const' => 1,
                                         'Header' => 'type.hpp',
                                         'Line' => '145',
                                         'MnglName' => '_ZNK4zeno7reflect13IHasParameter15get_params_nameEv',
                                         'Param' => {
                                                      '0' => {
                                                               'name' => 'this',
                                                               'type' => '44058'
                                                             }
                                                    },
                                         'PureVirt' => 1,
                                         'Return' => '44088',
                                         'ShortName' => 'get_params_name',
                                         'VirtPos' => '7'
                                       },
                            '41157' => {
                                         'Class' => '40962',
                                         'Header' => 'type.hpp',
                                         'Line' => '147',
                                         'MnglName' => '_ZN4zeno7reflect13IHasParameter23get_param_default_valueEm',
                                         'Param' => {
                                                      '0' => {
                                                               'name' => 'this',
                                                               'type' => '44053'
                                                             },
                                                      '1' => {
                                                               'name' => 'p1',
                                                               'type' => '1956'
                                                             }
                                                    },
                                         'PureVirt' => 1,
                                         'Return' => '41321',
                                         'ShortName' => 'get_param_default_value',
                                         'VirtPos' => '8'
                                       },
                            '41186' => {
                                         'Artificial' => 1,
                                         'Class' => '40962',
                                         'Constructor' => 1,
                                         'Header' => 'type.hpp',
                                         'Line' => '135',
                                         'MnglName' => '_ZN4zeno7reflect13IHasParameterC2Ev',
                                         'Param' => {
                                                      '0' => {
                                                               'name' => 'this',
                                                               'type' => '44053'
                                                             }
                                                    },
                                         'ShortName' => 'IHasParameter'
                                       },
                            '41198' => {
                                         'Class' => '41196',
                                         'Const' => 1,
                                         'Header' => 'arraylist',
                                         'InLine' => 2,
                                         'Line' => '166',
                                         'MnglName' => '_ZNK4zeno7reflect9ArrayListINS0_3AnyEE4sizeEv',
                                         'Param' => {
                                                      '0' => {
                                                               'name' => 'this',
                                                               'type' => '45848'
                                                             }
                                                    },
                                         'Return' => '1956',
                                         'ShortName' => 'size'
                                       },
                            '41214' => {
                                         'Class' => '41196',
                                         'Const' => 1,
                                         'Header' => 'arraylist',
                                         'InLine' => 2,
                                         'Line' => '161',
                                         'MnglName' => '_ZNK4zeno7reflect9ArrayListINS0_3AnyEEixEm',
                                         'Param' => {
                                                      '0' => {
                                                               'name' => 'this',
                                                               'type' => '45848'
                                                             },
                                                      '1' => {
                                                               'name' => 'index',
                                                               'type' => '1956'
                                                             }
                                                    },
                                         'Return' => '44108',
                                         'ShortName' => 'operator[]'
                                       },
                            '41235' => {
                                         'Class' => '41196',
                                         'Const' => 1,
                                         'Header' => 'arraylist',
                                         'InLine' => 2,
                                         'Line' => '67',
                                         'MnglName' => '_ZNK4zeno7reflect9ArrayListINS0_3AnyEE14is_valid_indexEm',
                                         'Param' => {
                                                      '0' => {
                                                               'name' => 'this',
                                                               'type' => '45848'
                                                             },
                                                      '1' => {
                                                               'name' => 'index',
                                                               'type' => '1956'
                                                             }
                                                    },
                                         'Return' => '19466',
                                         'ShortName' => 'is_valid_index'
                                       },
                            '41259' => {
                                         'Class' => '41257',
                                         'Const' => 1,
                                         'Header' => 'arraylist',
                                         'InLine' => 2,
                                         'Line' => '166',
                                         'MnglName' => '_ZNK4zeno7reflect9ArrayListIPNS0_3AnyEE4sizeEv',
                                         'Param' => {
                                                      '0' => {
                                                               'name' => 'this',
                                                               'type' => '46030'
                                                             }
                                                    },
                                         'Return' => '1956',
                                         'ShortName' => 'size'
                                       },
                            '41275' => {
                                         'Class' => '41257',
                                         'Const' => 1,
                                         'Header' => 'arraylist',
                                         'InLine' => 2,
                                         'Line' => '161',
                                         'MnglName' => '_ZNK4zeno7reflect9ArrayListIPNS0_3AnyEEixEm',
                                         'Param' => {
                                                      '0' => {
                                                               'name' => 'this',
                                                               'type' => '46030'
                                                             },
                                                      '1' => {
                                                               'name' => 'index',
                                                               'type' => '1956'
                                                             }
                                                    },
                                         'Return' => '46062',
                                         'ShortName' => 'operator[]'
                                       },
                            '41296' => {
                                         'Class' => '41257',
                                         'Const' => 1,
                                         'Header' => 'arraylist',
                                         'InLine' => 2,
                                         'Line' => '67',
                                         'MnglName' => '_ZNK4zeno7reflect9ArrayListIPNS0_3AnyEE14is_valid_indexEm',
                                         'Param' => {
                                                      '0' => {
                                                               'name' => 'this',
                                                               'type' => '46030'
                                                             },
                                                      '1' => {
                                                               'name' => 'index',
                                                               'type' => '1956'
                                                             }
                                                    },
                                         'Return' => '19466',
                                         'ShortName' => 'is_valid_index'
                                       },
                            '41553' => {
                                         'Class' => '41321',
                                         'Const' => 1,
                                         'Header' => 'any',
                                         'InLine' => 2,
                                         'Line' => '242',
                                         'MnglName' => '_ZNK4zeno7reflect3Any17is_convertible_toERKNS0_12RTTITypeInfoE',
                                         'Param' => {
                                                      '0' => {
                                                               'name' => 'this',
                                                               'type' => '44128'
                                                             },
                                                      '1' => {
                                                               'name' => 'other_type',
                                                               'type' => '33896'
                                                             }
                                                    },
                                         'Return' => '39084',
                                         'ShortName' => 'is_convertible_to'
                                       },
                            '41640' => {
                                         'Class' => '41595',
                                         'Destructor' => 1,
                                         'Header' => 'type.hpp',
                                         'Line' => '201',
                                         'MnglName' => '_ZN4zeno7reflect15IMemberFunctionD0Ev',
                                         'Param' => {
                                                      '0' => {
                                                               'name' => 'this',
                                                               'type' => '46191'
                                                             }
                                                    },
                                         'ShortName' => '~IMemberFunction',
                                         'Source' => 'type.cpp',
                                         'SourceLine' => '194',
                                         'Virt' => 1,
                                         'VirtPos' => '0'
                                       },
                            '41641' => {
                                         'Class' => '41595',
                                         'Destructor' => 1,
                                         'Header' => 'type.hpp',
                                         'Line' => '201',
                                         'MnglName' => '_ZN4zeno7reflect15IMemberFunctionD1Ev',
                                         'Param' => {
                                                      '0' => {
                                                               'name' => 'this',
                                                               'type' => '46191'
                                                             }
                                                    },
                                         'ShortName' => '~IMemberFunction',
                                         'Source' => 'type.cpp',
                                         'SourceLine' => '194',
                                         'Virt' => 1,
                                         'VirtPos' => '0'
                                       },
                            '41659' => {
                                         'Class' => '41595',
                                         'Const' => 1,
                                         'Header' => 'type.hpp',
                                         'Line' => '202',
                                         'MnglName' => '_ZNK4zeno7reflect15IMemberFunction15get_return_typeEv',
                                         'Param' => {
                                                      '0' => {
                                                               'name' => 'this',
                                                               'type' => '46196'
                                                             }
                                                    },
                                         'PureVirt' => 1,
                                         'Return' => '39317',
                                         'ShortName' => 'get_return_type',
                                         'VirtPos' => '3'
                                       },
                            '41683' => {
                                         'Class' => '41595',
                                         'Const' => 1,
                                         'Header' => 'type.hpp',
                                         'Line' => '203',
                                         'MnglName' => '_ZNK4zeno7reflect15IMemberFunction6invokeERKNS0_3AnyERKNS0_9ArrayListIS2_EE',
                                         'Param' => {
                                                      '0' => {
                                                               'name' => 'this',
                                                               'type' => '46196'
                                                             },
                                                      '1' => {
                                                               'name' => 'p1',
                                                               'type' => '44108'
                                                             },
                                                      '2' => {
                                                               'name' => 'p2',
                                                               'type' => '44068'
                                                             }
                                                    },
                                         'PureVirt' => 1,
                                         'Return' => '41321',
                                         'ShortName' => 'invoke',
                                         'VirtPos' => '4'
                                       },
                            '41717' => {
                                         'Class' => '41595',
                                         'Const' => 1,
                                         'Header' => 'type.hpp',
                                         'Line' => '204',
                                         'MnglName' => '_ZNK4zeno7reflect15IMemberFunction6invokeERKNS0_3AnyERKNS0_9ArrayListIPS2_EE',
                                         'Param' => {
                                                      '0' => {
                                                               'name' => 'this',
                                                               'type' => '46196'
                                                             },
                                                      '1' => {
                                                               'name' => 'p1',
                                                               'type' => '44108'
                                                             },
                                                      '2' => {
                                                               'name' => 'p2',
                                                               'type' => '44078'
                                                             }
                                                    },
                                         'PureVirt' => 1,
                                         'Return' => '41321',
                                         'ShortName' => 'invoke',
                                         'VirtPos' => '5'
                                       },
                            '41751' => {
                                         'Class' => '41595',
                                         'Const' => 1,
                                         'Header' => 'type.hpp',
                                         'Line' => '205',
                                         'MnglName' => '_ZNK4zeno7reflect15IMemberFunction13invoke_staticERKNS0_9ArrayListINS0_3AnyEEE',
                                         'Param' => {
                                                      '0' => {
                                                               'name' => 'this',
                                                               'type' => '46196'
                                                             },
                                                      '1' => {
                                                               'name' => 'p1',
                                                               'type' => '44068'
                                                             }
                                                    },
                                         'PureVirt' => 1,
                                         'Return' => '41321',
                                         'ShortName' => 'invoke_static',
                                         'VirtPos' => '6'
                                       },
                            '41780' => {
                                         'Class' => '41595',
                                         'Const' => 1,
                                         'Header' => 'type.hpp',
                                         'Line' => '206',
                                         'MnglName' => '_ZNK4zeno7reflect15IMemberFunction13invoke_staticERKNS0_9ArrayListIPNS0_3AnyEEE',
                                         'Param' => {
                                                      '0' => {
                                                               'name' => 'this',
                                                               'type' => '46196'
                                                             },
                                                      '1' => {
                                                               'name' => 'p1',
                                                               'type' => '44078'
                                                             }
                                                    },
                                         'PureVirt' => 1,
                                         'Return' => '41321',
                                         'ShortName' => 'invoke_static',
                                         'VirtPos' => '7'
                                       },
                            '41809' => {
                                         'Class' => '41595',
                                         'Constructor' => 1,
                                         'Header' => 'type.hpp',
                                         'Line' => '209',
                                         'MnglName' => '_ZN4zeno7reflect15IMemberFunctionC2ERKNS0_10TypeHandleE',
                                         'Param' => {
                                                      '0' => {
                                                               'name' => 'this',
                                                               'type' => '46191'
                                                             },
                                                      '1' => {
                                                               'name' => 'in_type',
                                                               'type' => '44023'
                                                             }
                                                    },
                                         'Protected' => 1,
                                         'ShortName' => 'IMemberFunction',
                                         'Source' => 'type.cpp',
                                         'SourceLine' => '198'
                                       },
                            '41843' => {
                                         'Class' => '41826',
                                         'Destructor' => 1,
                                         'Header' => 'type.hpp',
                                         'Line' => '152',
                                         'MnglName' => '_ZN4zeno7reflect8IHasNameD0Ev',
                                         'Param' => {
                                                      '0' => {
                                                               'name' => 'this',
                                                               'type' => '46171'
                                                             }
                                                    },
                                         'ShortName' => '~IHasName',
                                         'Source' => 'type.cpp',
                                         'SourceLine' => '203',
                                         'Virt' => 1,
                                         'VirtPos' => '0'
                                       },
                            '41844' => {
                                         'Class' => '41826',
                                         'Destructor' => 1,
                                         'Header' => 'type.hpp',
                                         'Line' => '152',
                                         'MnglName' => '_ZN4zeno7reflect8IHasNameD1Ev',
                                         'Param' => {
                                                      '0' => {
                                                               'name' => 'this',
                                                               'type' => '46171'
                                                             }
                                                    },
                                         'ShortName' => '~IHasName',
                                         'Source' => 'type.cpp',
                                         'SourceLine' => '203',
                                         'Virt' => 1,
                                         'VirtPos' => '0'
                                       },
                            '41862' => {
                                         'Class' => '41826',
                                         'Header' => 'type.hpp',
                                         'Line' => '154',
                                         'MnglName' => '_ZN4zeno7reflect8IHasName8get_nameEv',
                                         'Param' => {
                                                      '0' => {
                                                               'name' => 'this',
                                                               'type' => '46171'
                                                             }
                                                    },
                                         'PureVirt' => 1,
                                         'Return' => '6744',
                                         'ShortName' => 'get_name',
                                         'VirtPos' => '2'
                                       },
                            '41886' => {
                                         'Artificial' => 1,
                                         'Class' => '41826',
                                         'Constructor' => 1,
                                         'Header' => 'type.hpp',
                                         'Line' => '150',
                                         'MnglName' => '_ZN4zeno7reflect8IHasNameC2Ev',
                                         'Param' => {
                                                      '0' => {
                                                               'name' => 'this',
                                                               'type' => '46171'
                                                             }
                                                    },
                                         'ShortName' => 'IHasName'
                                       },
                            '41913' => {
                                         'Class' => '41896',
                                         'Destructor' => 1,
                                         'Header' => 'type.hpp',
                                         'Line' => '169',
                                         'MnglName' => '_ZN4zeno7reflect13IHasQualifierD0Ev',
                                         'Param' => {
                                                      '0' => {
                                                               'name' => 'this',
                                                               'type' => '46176'
                                                             }
                                                    },
                                         'ShortName' => '~IHasQualifier',
                                         'Source' => 'type.cpp',
                                         'SourceLine' => '216',
                                         'Virt' => 1,
                                         'VirtPos' => '0'
                                       },
                            '41914' => {
                                         'Class' => '41896',
                                         'Destructor' => 1,
                                         'Header' => 'type.hpp',
                                         'Line' => '169',
                                         'MnglName' => '_ZN4zeno7reflect13IHasQualifierD1Ev',
                                         'Param' => {
                                                      '0' => {
                                                               'name' => 'this',
                                                               'type' => '46176'
                                                             }
                                                    },
                                         'ShortName' => '~IHasQualifier',
                                         'Source' => 'type.cpp',
                                         'SourceLine' => '216',
                                         'Virt' => 1,
                                         'VirtPos' => '0'
                                       },
                            '41932' => {
                                         'Class' => '41896',
                                         'Const' => 1,
                                         'Header' => 'type.hpp',
                                         'Line' => '171',
                                         'MnglName' => '_ZNK4zeno7reflect13IHasQualifier9is_staticEv',
                                         'Param' => {
                                                      '0' => {
                                                               'name' => 'this',
                                                               'type' => '46181'
                                                             }
                                                    },
                                         'Return' => '19466',
                                         'ShortName' => 'is_static',
                                         'Source' => 'type.cpp',
                                         'SourceLine' => '220',
                                         'Virt' => 1,
                                         'VirtPos' => '2'
                                       },
                            '41956' => {
                                         'Class' => '41896',
                                         'Const' => 1,
                                         'Header' => 'type.hpp',
                                         'Line' => '172',
                                         'MnglName' => '_ZNK4zeno7reflect13IHasQualifier8is_constEv',
                                         'Param' => {
                                                      '0' => {
                                                               'name' => 'this',
                                                               'type' => '46181'
                                                             }
                                                    },
                                         'Return' => '19466',
                                         'ShortName' => 'is_const',
                                         'Source' => 'type.cpp',
                                         'SourceLine' => '225',
                                         'Virt' => 1,
                                         'VirtPos' => '3'
                                       },
                            '41980' => {
                                         'Class' => '41896',
                                         'Const' => 1,
                                         'Header' => 'type.hpp',
                                         'Line' => '173',
                                         'MnglName' => '_ZNK4zeno7reflect13IHasQualifier11is_volatileEv',
                                         'Param' => {
                                                      '0' => {
                                                               'name' => 'this',
                                                               'type' => '46181'
                                                             }
                                                    },
                                         'Return' => '19466',
                                         'ShortName' => 'is_volatile',
                                         'Source' => 'type.cpp',
                                         'SourceLine' => '230',
                                         'Virt' => 1,
                                         'VirtPos' => '4'
                                       },
                            '42004' => {
                                         'Class' => '41896',
                                         'Const' => 1,
                                         'Header' => 'type.hpp',
                                         'Line' => '174',
                                         'MnglName' => '_ZNK4zeno7reflect13IHasQualifier12is_no_exceptEv',
                                         'Param' => {
                                                      '0' => {
                                                               'name' => 'this',
                                                               'type' => '46181'
                                                             }
                                                    },
                                         'Return' => '19466',
                                         'ShortName' => 'is_no_except',
                                         'Source' => 'type.cpp',
                                         'SourceLine' => '235',
                                         'Virt' => 1,
                                         'VirtPos' => '5'
                                       },
                            '42028' => {
                                         'Class' => '41896',
                                         'Const' => 1,
                                         'Header' => 'type.hpp',
                                         'Line' => '175',
                                         'MnglName' => '_ZNK4zeno7reflect13IHasQualifier10is_mutableEv',
                                         'Param' => {
                                                      '0' => {
                                                               'name' => 'this',
                                                               'type' => '46181'
                                                             }
                                                    },
                                         'Return' => '19466',
                                         'ShortName' => 'is_mutable',
                                         'Source' => 'type.cpp',
                                         'SourceLine' => '240',
                                         'Virt' => 1,
                                         'VirtPos' => '6'
                                       },
                            '42052' => {
                                         'Artificial' => 1,
                                         'Class' => '41896',
                                         'Constructor' => 1,
                                         'Header' => 'type.hpp',
                                         'Line' => '167',
                                         'MnglName' => '_ZN4zeno7reflect13IHasQualifierC2Ev',
                                         'Param' => {
                                                      '0' => {
                                                               'name' => 'this',
                                                               'type' => '46176'
                                                             }
                                                    },
                                         'ShortName' => 'IHasQualifier'
                                       },
                            '42093' => {
                                         'Class' => '42062',
                                         'Destructor' => 1,
                                         'Header' => 'type.hpp',
                                         'Line' => '222',
                                         'MnglName' => '_ZN4zeno7reflect12IMemberFieldD0Ev',
                                         'Param' => {
                                                      '0' => {
                                                               'name' => 'this',
                                                               'type' => '46562'
                                                             }
                                                    },
                                         'ShortName' => '~IMemberField',
                                         'Source' => 'type.cpp',
                                         'SourceLine' => '207',
                                         'Virt' => 1,
                                         'VirtPos' => '0'
                                       },
                            '42094' => {
                                         'Class' => '42062',
                                         'Destructor' => 1,
                                         'Header' => 'type.hpp',
                                         'Line' => '222',
                                         'MnglName' => '_ZN4zeno7reflect12IMemberFieldD1Ev',
                                         'Param' => {
                                                      '0' => {
                                                               'name' => 'this',
                                                               'type' => '46562'
                                                             }
                                                    },
                                         'ShortName' => '~IMemberField',
                                         'Source' => 'type.cpp',
                                         'SourceLine' => '207',
                                         'Virt' => 1,
                                         'VirtPos' => '0'
                                       },
                            '42112' => {
                                         'Class' => '42062',
                                         'Const' => 1,
                                         'Header' => 'type.hpp',
                                         'Line' => '223',
                                         'MnglName' => '_ZNK4zeno7reflect12IMemberField13get_field_ptrERKNS0_3AnyE',
                                         'Param' => {
                                                      '0' => {
                                                               'name' => 'this',
                                                               'type' => '46567'
                                                             },
                                                      '1' => {
                                                               'name' => 'p1',
                                                               'type' => '44108'
                                                             }
                                                    },
                                         'PureVirt' => 1,
                                         'Return' => '2012',
                                         'ShortName' => 'get_field_ptr',
                                         'VirtPos' => '3'
                                       },
                            '42141' => {
                                         'Class' => '42062',
                                         'Const' => 1,
                                         'Header' => 'type.hpp',
                                         'Line' => '224',
                                         'MnglName' => '_ZNK4zeno7reflect12IMemberField22get_field_ptr_directlyEPv',
                                         'Param' => {
                                                      '0' => {
                                                               'name' => 'this',
                                                               'type' => '46567'
                                                             },
                                                      '1' => {
                                                               'name' => 'p1',
                                                               'type' => '2012'
                                                             }
                                                    },
                                         'PureVirt' => 1,
                                         'Return' => '2012',
                                         'ShortName' => 'get_field_ptr_directly',
                                         'VirtPos' => '4'
                                       },
                            '42170' => {
                                         'Class' => '42062',
                                         'Const' => 1,
                                         'Header' => 'type.hpp',
                                         'Line' => '225',
                                         'MnglName' => '_ZNK4zeno7reflect12IMemberField15get_field_valueEPv',
                                         'Param' => {
                                                      '0' => {
                                                               'name' => 'this',
                                                               'type' => '46567'
                                                             },
                                                      '1' => {
                                                               'name' => 'p1',
                                                               'type' => '2012'
                                                             }
                                                    },
                                         'PureVirt' => 1,
                                         'Return' => '41321',
                                         'ShortName' => 'get_field_value',
                                         'VirtPos' => '5'
                                       },
                            '42199' => {
                                         'Class' => '42062',
                                         'Const' => 1,
                                         'Header' => 'type.hpp',
                                         'Line' => '226',
                                         'MnglName' => '_ZNK4zeno7reflect12IMemberField14get_field_typeEv',
                                         'Param' => {
                                                      '0' => {
                                                               'name' => 'this',
                                                               'type' => '46567'
                                                             }
                                                    },
                                         'PureVirt' => 1,
                                         'Return' => '39317',
                                         'ShortName' => 'get_field_type',
                                         'VirtPos' => '6'
                                       },
                            '42223' => {
                                         'Class' => '42062',
                                         'Constructor' => 1,
                                         'Header' => 'type.hpp',
                                         'Line' => '229',
                                         'MnglName' => '_ZN4zeno7reflect12IMemberFieldC2ERKNS0_10TypeHandleE',
                                         'Param' => {
                                                      '0' => {
                                                               'name' => 'this',
                                                               'type' => '46562'
                                                             },
                                                      '1' => {
                                                               'name' => 'in_type',
                                                               'type' => '44023'
                                                             }
                                                    },
                                         'Protected' => 1,
                                         'ShortName' => 'IMemberField',
                                         'Source' => 'type.cpp',
                                         'SourceLine' => '211'
                                       },
                            '44163' => {
                                         'Destructor' => 1,
                                         'Line' => '10',
                                         'MnglName' => '_ZN4zeno7reflect8TypeBaseD2Ev',
                                         'Param' => {
                                                      '0' => {
                                                               'name' => 'this',
                                                               'type' => '19521'
                                                             }
                                                    },
                                         'Source' => 'type.cpp'
                                       },
                            '44194' => {
                                         'Destructor' => 1,
                                         'Line' => '245',
                                         'MnglName' => '_ZN4zeno7reflect15ICanHasMetadataD2Ev',
                                         'Param' => {
                                                      '0' => {
                                                               'name' => 'this',
                                                               'type' => '42277'
                                                             }
                                                    },
                                         'Source' => 'type.cpp'
                                       },
                            '45325' => {
                                         'Destructor' => 1,
                                         'Line' => '122',
                                         'MnglName' => '_ZN4zeno7reflect16ITypeConstructorD2Ev',
                                         'Param' => {
                                                      '0' => {
                                                               'name' => 'this',
                                                               'type' => '42251'
                                                             }
                                                    },
                                         'Source' => 'type.cpp'
                                       },
                            '45356' => {
                                         'Destructor' => 1,
                                         'Line' => '129',
                                         'MnglName' => '_ZN4zeno7reflect13IHasParameterD2Ev',
                                         'Param' => {
                                                      '0' => {
                                                               'name' => 'this',
                                                               'type' => '44053'
                                                             }
                                                    },
                                         'Source' => 'type.cpp'
                                       },
                            '45387' => {
                                         'Destructor' => 1,
                                         'Line' => '185',
                                         'MnglName' => '_ZN4zeno7reflect19IBelongToParentTypeD2Ev',
                                         'Param' => {
                                                      '0' => {
                                                               'name' => 'this',
                                                               'type' => '44048'
                                                             }
                                                    },
                                         'Source' => 'type.cpp'
                                       },
                            '45418' => {
                                         'Artificial' => 1,
                                         'Destructor' => 1,
                                         'Line' => '122',
                                         'MnglName' => '_ZThn24_N4zeno7reflect16ITypeConstructorD1Ev',
                                         'Source' => 'type.cpp'
                                       },
                            '45461' => {
                                         'Artificial' => 1,
                                         'Destructor' => 1,
                                         'Line' => '122',
                                         'MnglName' => '_ZThn24_N4zeno7reflect16ITypeConstructorD0Ev',
                                         'Source' => 'type.cpp'
                                       },
                            '46206' => {
                                         'Destructor' => 1,
                                         'Line' => '194',
                                         'MnglName' => '_ZN4zeno7reflect15IMemberFunctionD2Ev',
                                         'Param' => {
                                                      '0' => {
                                                               'name' => 'this',
                                                               'type' => '46191'
                                                             }
                                                    },
                                         'Source' => 'type.cpp'
                                       },
                            '46237' => {
                                         'Destructor' => 1,
                                         'Line' => '216',
                                         'MnglName' => '_ZN4zeno7reflect13IHasQualifierD2Ev',
                                         'Param' => {
                                                      '0' => {
                                                               'name' => 'this',
                                                               'type' => '46176'
                                                             }
                                                    },
                                         'Source' => 'type.cpp'
                                       },
                            '46268' => {
                                         'Destructor' => 1,
                                         'Line' => '203',
                                         'MnglName' => '_ZN4zeno7reflect8IHasNameD2Ev',
                                         'Param' => {
                                                      '0' => {
                                                               'name' => 'this',
                                                               'type' => '46171'
                                                             }
                                                    },
                                         'Source' => 'type.cpp'
                                       },
                            '46299' => {
                                         'Artificial' => 1,
                                         'Destructor' => 1,
                                         'Line' => '194',
                                         'MnglName' => '_ZThn24_N4zeno7reflect15IMemberFunctionD1Ev',
                                         'Source' => 'type.cpp'
                                       },
                            '46311' => {
                                         'Artificial' => 1,
                                         'Destructor' => 1,
                                         'Line' => '194',
                                         'MnglName' => '_ZThn32_N4zeno7reflect15IMemberFunctionD1Ev',
                                         'Source' => 'type.cpp'
                                       },
                            '46323' => {
                                         'Artificial' => 1,
                                         'Destructor' => 1,
                                         'Line' => '194',
                                         'MnglName' => '_ZThn40_N4zeno7reflect15IMemberFunctionD1Ev',
                                         'Source' => 'type.cpp'
                                       },
                            '46335' => {
                                         'Artificial' => 1,
                                         'Destructor' => 1,
                                         'Line' => '194',
                                         'MnglName' => '_ZThn48_N4zeno7reflect15IMemberFunctionD1Ev',
                                         'Source' => 'type.cpp'
                                       },
                            '46378' => {
                                         'Artificial' => 1,
                                         'Destructor' => 1,
                                         'Line' => '194',
                                         'MnglName' => '_ZThn24_N4zeno7reflect15IMemberFunctionD0Ev',
                                         'Source' => 'type.cpp'
                                       },
                            '46390' => {
                                         'Artificial' => 1,
                                         'Destructor' => 1,
                                         'Line' => '194',
                                         'MnglName' => '_ZThn32_N4zeno7reflect15IMemberFunctionD0Ev',
                                         'Source' => 'type.cpp'
                                       },
                            '46402' => {
                                         'Artificial' => 1,
                                         'Destructor' => 1,
                                         'Line' => '194',
                                         'MnglName' => '_ZThn40_N4zeno7reflect15IMemberFunctionD0Ev',
                                         'Source' => 'type.cpp'
                                       },
                            '46414' => {
                                         'Artificial' => 1,
                                         'Destructor' => 1,
                                         'Line' => '194',
                                         'MnglName' => '_ZThn48_N4zeno7reflect15IMemberFunctionD0Ev',
                                         'Source' => 'type.cpp'
                                       },
                            '46577' => {
                                         'Destructor' => 1,
                                         'Line' => '207',
                                         'MnglName' => '_ZN4zeno7reflect12IMemberFieldD2Ev',
                                         'Param' => {
                                                      '0' => {
                                                               'name' => 'this',
                                                               'type' => '46562'
                                                             }
                                                    },
                                         'Source' => 'type.cpp'
                                       },
                            '46608' => {
                                         'Artificial' => 1,
                                         'Destructor' => 1,
                                         'Line' => '207',
                                         'MnglName' => '_ZThn24_N4zeno7reflect12IMemberFieldD1Ev',
                                         'Source' => 'type.cpp'
                                       },
                            '46620' => {
                                         'Artificial' => 1,
                                         'Destructor' => 1,
                                         'Line' => '207',
                                         'MnglName' => '_ZThn32_N4zeno7reflect12IMemberFieldD1Ev',
                                         'Source' => 'type.cpp'
                                       },
                            '46663' => {
                                         'Artificial' => 1,
                                         'Destructor' => 1,
                                         'Line' => '207',
                                         'MnglName' => '_ZThn24_N4zeno7reflect12IMemberFieldD0Ev',
                                         'Source' => 'type.cpp'
                                       },
                            '46675' => {
                                         'Artificial' => 1,
                                         'Destructor' => 1,
                                         'Line' => '207',
                                         'MnglName' => '_ZThn32_N4zeno7reflect12IMemberFieldD0Ev',
                                         'Source' => 'type.cpp'
                                       },
                            '52026' => {
                                         'Line' => '5',
                                         'MnglName' => '_Z7memmovePvPKvm',
                                         'Param' => {
                                                      '0' => {
                                                               'name' => 'dest',
                                                               'type' => '2012'
                                                             },
                                                      '1' => {
                                                               'name' => 'src',
                                                               'type' => '1950'
                                                             },
                                                      '2' => {
                                                               'name' => 'n',
                                                               'type' => '1956'
                                                             }
                                                    },
                                         'Return' => '2012',
                                         'ShortName' => 'memmove',
                                         'Source' => 'memory.cpp'
                                       },
                            '52805' => {
                                         'Class' => '52788',
                                         'Header' => 'exit.hpp',
                                         'Line' => '12',
                                         'MnglName' => '_ZN4zeno7reflect12IExitManager3getEv',
                                         'Return' => '52882',
                                         'ShortName' => 'get',
                                         'Source' => 'exit.cpp',
                                         'SourceLine' => '13',
                                         'Static' => 1
                                       },
                            '52815' => {
                                         'Class' => '52788',
                                         'Destructor' => 1,
                                         'Header' => 'exit.hpp',
                                         'Line' => '14',
                                         'MnglName' => '_ZN4zeno7reflect12IExitManagerD0Ev',
                                         'Param' => {
                                                      '0' => {
                                                               'name' => 'this',
                                                               'type' => '52887'
                                                             }
                                                    },
                                         'ShortName' => '~IExitManager',
                                         'Source' => 'exit.cpp',
                                         'SourceLine' => '19',
                                         'Virt' => 1,
                                         'VirtPos' => '0'
                                       },
                            '52816' => {
                                         'Class' => '52788',
                                         'Destructor' => 1,
                                         'Header' => 'exit.hpp',
                                         'Line' => '14',
                                         'MnglName' => '_ZN4zeno7reflect12IExitManagerD1Ev',
                                         'Param' => {
                                                      '0' => {
                                                               'name' => 'this',
                                                               'type' => '52887'
                                                             }
                                                    },
                                         'ShortName' => '~IExitManager',
                                         'Source' => 'exit.cpp',
                                         'SourceLine' => '19',
                                         'Virt' => 1,
                                         'VirtPos' => '0'
                                       },
                            '52834' => {
                                         'Class' => '52788',
                                         'Header' => 'exit.hpp',
                                         'Line' => '15',
                                         'MnglName' => '_ZN4zeno7reflect12IExitManager13graceful_exitEh',
                                         'Param' => {
                                                      '0' => {
                                                               'name' => 'this',
                                                               'type' => '52887'
                                                             },
                                                      '1' => {
                                                               'name' => 'p1',
                                                               'type' => '1726'
                                                             }
                                                    },
                                         'PureVirt' => 1,
                                         'Return' => '1',
                                         'ShortName' => 'graceful_exit',
                                         'VirtPos' => '2'
                                       },
                            '52955' => {
                                         'Class' => '52938',
                                         'InLine' => 2,
                                         'Line' => '7',
                                         'MnglName' => '_ZN11ExitManager13graceful_exitEh',
                                         'Param' => {
                                                      '0' => {
                                                               'name' => 'this',
                                                               'type' => '52997'
                                                             },
                                                      '1' => {
                                                               'name' => 'exit_code',
                                                               'type' => '1726'
                                                             }
                                                    },
                                         'Private' => 1,
                                         'Return' => '1',
                                         'ShortName' => 'graceful_exit',
                                         'Source' => 'exit.cpp',
                                         'Virt' => 1,
                                         'VirtPos' => '2'
                                       },
                            '52979' => {
                                         'Artificial' => 1,
                                         'Class' => '52938',
                                         'Destructor' => 1,
                                         'Line' => '6',
                                         'MnglName' => '_ZN11ExitManagerD0Ev',
                                         'Param' => {
                                                      '0' => {
                                                               'name' => 'this',
                                                               'type' => '52997'
                                                             }
                                                    },
                                         'ShortName' => '~ExitManager',
                                         'Source' => 'exit.cpp',
                                         'Virt' => 1,
                                         'VirtPos' => '0'
                                       },
                            '53002' => {
                                         'Destructor' => 1,
                                         'Line' => '6',
                                         'MnglName' => '_ZN11ExitManagerD2Ev',
                                         'Param' => {
                                                      '0' => {
                                                               'name' => 'this',
                                                               'type' => '52997'
                                                             }
                                                    },
                                         'Source' => 'exit.cpp'
                                       },
                            '53031' => {
                                         'Destructor' => 1,
                                         'Line' => '19',
                                         'MnglName' => '_ZN4zeno7reflect12IExitManagerD2Ev',
                                         'Param' => {
                                                      '0' => {
                                                               'name' => 'this',
                                                               'type' => '52887'
                                                             }
                                                    },
                                         'Source' => 'exit.cpp'
                                       },
                            '55645' => {
                                         'Class' => '55624',
                                         'Constructor' => 1,
                                         'Header' => 'basic_string.h',
                                         'Line' => '193',
                                         'MnglName' => '_ZNSt7__cxx1112basic_stringIcSt11char_traitsIcESaIcEE12_Alloc_hiderC2EPcRKS3_',
                                         'Param' => {
                                                      '0' => {
                                                               'name' => 'this',
                                                               'type' => '75237'
                                                             },
                                                      '1' => {
                                                               'name' => '__dat',
                                                               'type' => '55712'
                                                             },
                                                      '2' => {
                                                               'name' => '__a',
                                                               'type' => '74561'
                                                             }
                                                    },
                                         'ShortName' => '_Alloc_hider'
                                       },
                            '55665' => {
                                         'Class' => '55624',
                                         'Constructor' => 1,
                                         'Header' => 'basic_string.h',
                                         'Line' => '197',
                                         'MnglName' => '_ZNSt7__cxx1112basic_stringIcSt11char_traitsIcESaIcEE12_Alloc_hiderC2EPcOS3_',
                                         'Param' => {
                                                      '0' => {
                                                               'name' => 'this',
                                                               'type' => '75237'
                                                             },
                                                      '1' => {
                                                               'name' => '__dat',
                                                               'type' => '55712'
                                                             },
                                                      '2' => {
                                                               'name' => '__a',
                                                               'type' => '75242'
                                                             }
                                                    },
                                         'ShortName' => '_Alloc_hider'
                                       },
                            '55685' => {
                                         'Artificial' => 1,
                                         'Class' => '55624',
                                         'Destructor' => 1,
                                         'Header' => 'basic_string.h',
                                         'Line' => '186',
                                         'MnglName' => '_ZNSt7__cxx1112basic_stringIcSt11char_traitsIcESaIcEE12_Alloc_hiderD2Ev',
                                         'Param' => {
                                                      '0' => {
                                                               'name' => 'this',
                                                               'type' => '75237'
                                                             }
                                                    },
                                         'ShortName' => '~_Alloc_hider'
                                       },
                            '55762' => {
                                         'Class' => '55562',
                                         'Header' => 'basic_string.h',
                                         'InLine' => 2,
                                         'Line' => '129',
                                         'MnglName' => '_ZNSt7__cxx1112basic_stringIcSt11char_traitsIcESaIcEE11_S_allocateERS3_m',
                                         'Param' => {
                                                      '0' => {
                                                               'name' => '__a',
                                                               'type' => '75260'
                                                             },
                                                      '1' => {
                                                               'name' => '__n',
                                                               'type' => '55606'
                                                             }
                                                    },
                                         'Private' => 1,
                                         'Return' => '55712',
                                         'ShortName' => '_S_allocate',
                                         'Static' => 1
                                       },
                            '55827' => {
                                         'Class' => '55562',
                                         'Header' => 'basic_string.h',
                                         'InLine' => 2,
                                         'Line' => '217',
                                         'MnglName' => '_ZNSt7__cxx1112basic_stringIcSt11char_traitsIcESaIcEE7_M_dataEPc',
                                         'Param' => {
                                                      '0' => {
                                                               'name' => 'this',
                                                               'type' => '75324'
                                                             },
                                                      '1' => {
                                                               'name' => '__p',
                                                               'type' => '55712'
                                                             }
                                                    },
                                         'Private' => 1,
                                         'Return' => '1',
                                         'ShortName' => '_M_data'
                                       },
                            '55843' => {
                                         'Class' => '55562',
                                         'Header' => 'basic_string.h',
                                         'InLine' => 2,
                                         'Line' => '222',
                                         'MnglName' => '_ZNSt7__cxx1112basic_stringIcSt11char_traitsIcESaIcEE9_M_lengthEm',
                                         'Param' => {
                                                      '0' => {
                                                               'name' => 'this',
                                                               'type' => '75324'
                                                             },
                                                      '1' => {
                                                               'name' => '__length',
                                                               'type' => '55606'
                                                             }
                                                    },
                                         'Private' => 1,
                                         'Return' => '1',
                                         'ShortName' => '_M_length'
                                       },
                            '55859' => {
                                         'Class' => '55562',
                                         'Const' => 1,
                                         'Header' => 'basic_string.h',
                                         'InLine' => 2,
                                         'Line' => '227',
                                         'MnglName' => '_ZNKSt7__cxx1112basic_stringIcSt11char_traitsIcESaIcEE7_M_dataEv',
                                         'Param' => {
                                                      '0' => {
                                                               'name' => 'this',
                                                               'type' => '75329'
                                                             }
                                                    },
                                         'Private' => 1,
                                         'Return' => '55712',
                                         'ShortName' => '_M_data'
                                       },
                            '55874' => {
                                         'Class' => '55562',
                                         'Header' => 'basic_string.h',
                                         'InLine' => 2,
                                         'Line' => '232',
                                         'MnglName' => '_ZNSt7__cxx1112basic_stringIcSt11char_traitsIcESaIcEE13_M_local_dataEv',
                                         'Param' => {
                                                      '0' => {
                                                               'name' => 'this',
                                                               'type' => '75324'
                                                             }
                                                    },
                                         'Private' => 1,
                                         'Return' => '55712',
                                         'ShortName' => '_M_local_data'
                                       },
                            '55889' => {
                                         'Class' => '55562',
                                         'Const' => 1,
                                         'Header' => 'basic_string.h',
                                         'InLine' => 2,
                                         'Line' => '243',
                                         'MnglName' => '_ZNKSt7__cxx1112basic_stringIcSt11char_traitsIcESaIcEE13_M_local_dataEv',
                                         'Param' => {
                                                      '0' => {
                                                               'name' => 'this',
                                                               'type' => '75329'
                                                             }
                                                    },
                                         'Private' => 1,
                                         'Return' => '55904',
                                         'ShortName' => '_M_local_data'
                                       },
                            '55913' => {
                                         'Class' => '55562',
                                         'Header' => 'basic_string.h',
                                         'InLine' => 2,
                                         'Line' => '254',
                                         'MnglName' => '_ZNSt7__cxx1112basic_stringIcSt11char_traitsIcESaIcEE11_M_capacityEm',
                                         'Param' => {
                                                      '0' => {
                                                               'name' => 'this',
                                                               'type' => '75324'
                                                             },
                                                      '1' => {
                                                               'name' => '__capacity',
                                                               'type' => '55606'
                                                             }
                                                    },
                                         'Private' => 1,
                                         'Return' => '1',
                                         'ShortName' => '_M_capacity'
                                       },
                            '55929' => {
                                         'Class' => '55562',
                                         'Header' => 'basic_string.h',
                                         'InLine' => 2,
                                         'Line' => '259',
                                         'MnglName' => '_ZNSt7__cxx1112basic_stringIcSt11char_traitsIcESaIcEE13_M_set_lengthEm',
                                         'Param' => {
                                                      '0' => {
                                                               'name' => 'this',
                                                               'type' => '75324'
                                                             },
                                                      '1' => {
                                                               'name' => '__n',
                                                               'type' => '55606'
                                                             }
                                                    },
                                         'Private' => 1,
                                         'Return' => '1',
                                         'ShortName' => '_M_set_length'
                                       },
                            '55946' => {
                                         'Class' => '55562',
                                         'Const' => 1,
                                         'Header' => 'basic_string.h',
                                         'InLine' => 2,
                                         'Line' => '267',
                                         'MnglName' => '_ZNKSt7__cxx1112basic_stringIcSt11char_traitsIcESaIcEE11_M_is_localEv',
                                         'Param' => {
                                                      '0' => {
                                                               'name' => 'this',
                                                               'type' => '75329'
                                                             }
                                                    },
                                         'Private' => 1,
                                         'Return' => '19466',
                                         'ShortName' => '_M_is_local'
                                       },
                            '55962' => {
                                         'Class' => '55562',
                                         'Header' => 'basic_string.tcc',
                                         'InLine' => 2,
                                         'Line' => '139',
                                         'MnglName' => '_ZNSt7__cxx1112basic_stringIcSt11char_traitsIcESaIcEE9_M_createERmm',
                                         'Param' => {
                                                      '0' => {
                                                               'name' => 'this',
                                                               'type' => '75324'
                                                             },
                                                      '1' => {
                                                               'name' => '__capacity',
                                                               'type' => '75339'
                                                             },
                                                      '2' => {
                                                               'name' => '__old_capacity',
                                                               'type' => '55606'
                                                             }
                                                    },
                                         'Private' => 1,
                                         'Return' => '55712',
                                         'ShortName' => '_M_create'
                                       },
                            '55987' => {
                                         'Class' => '55562',
                                         'Header' => 'basic_string.h',
                                         'InLine' => 2,
                                         'Line' => '285',
                                         'MnglName' => '_ZNSt7__cxx1112basic_stringIcSt11char_traitsIcESaIcEE10_M_disposeEv',
                                         'Param' => {
                                                      '0' => {
                                                               'name' => 'this',
                                                               'type' => '75324'
                                                             }
                                                    },
                                         'Private' => 1,
                                         'Return' => '1',
                                         'ShortName' => '_M_dispose'
                                       },
                            '55999' => {
                                         'Class' => '55562',
                                         'Header' => 'basic_string.h',
                                         'InLine' => 2,
                                         'Line' => '293',
                                         'MnglName' => '_ZNSt7__cxx1112basic_stringIcSt11char_traitsIcESaIcEE10_M_destroyEm',
                                         'Param' => {
                                                      '0' => {
                                                               'name' => 'this',
                                                               'type' => '75324'
                                                             },
                                                      '1' => {
                                                               'name' => '__size',
                                                               'type' => '55606'
                                                             }
                                                    },
                                         'Private' => 1,
                                         'Return' => '1',
                                         'ShortName' => '_M_destroy'
                                       },
                            '56038' => {
                                         'Class' => '55562',
                                         'Header' => 'basic_string.h',
                                         'InLine' => 2,
                                         'Line' => '341',
                                         'MnglName' => '_ZNSt7__cxx1112basic_stringIcSt11char_traitsIcESaIcEE16_M_get_allocatorEv',
                                         'Param' => {
                                                      '0' => {
                                                               'name' => 'this',
                                                               'type' => '75324'
                                                             }
                                                    },
                                         'Private' => 1,
                                         'Return' => '75344',
                                         'ShortName' => '_M_get_allocator'
                                       },
                            '56054' => {
                                         'Class' => '55562',
                                         'Const' => 1,
                                         'Header' => 'basic_string.h',
                                         'InLine' => 2,
                                         'Line' => '346',
                                         'MnglName' => '_ZNKSt7__cxx1112basic_stringIcSt11char_traitsIcESaIcEE16_M_get_allocatorEv',
                                         'Param' => {
                                                      '0' => {
                                                               'name' => 'this',
                                                               'type' => '75329'
                                                             }
                                                    },
                                         'Private' => 1,
                                         'Return' => '75349',
                                         'ShortName' => '_M_get_allocator'
                                       },
                            '56198' => {
                                         'Class' => '55562',
                                         'Header' => 'basic_string.h',
                                         'InLine' => 2,
                                         'Line' => '430',
                                         'MnglName' => '_ZNSt7__cxx1112basic_stringIcSt11char_traitsIcESaIcEE7_S_copyEPcPKcm',
                                         'Param' => {
                                                      '0' => {
                                                               'name' => '__d',
                                                               'type' => '2090'
                                                             },
                                                      '1' => {
                                                               'name' => '__s',
                                                               'type' => '2109'
                                                             },
                                                      '2' => {
                                                               'name' => '__n',
                                                               'type' => '55606'
                                                             }
                                                    },
                                         'Private' => 1,
                                         'Return' => '1',
                                         'ShortName' => '_S_copy',
                                         'Static' => 1
                                       },
                            '56350' => {
                                         'Class' => '55562',
                                         'Header' => 'basic_string.h',
                                         'InLine' => 2,
                                         'Line' => '487',
                                         'MnglName' => '_ZNSt7__cxx1112basic_stringIcSt11char_traitsIcESaIcEE13_S_copy_charsEPcPKcS7_',
                                         'Param' => {
                                                      '0' => {
                                                               'name' => '__p',
                                                               'type' => '2090'
                                                             },
                                                      '1' => {
                                                               'name' => '__k1',
                                                               'type' => '2109'
                                                             },
                                                      '2' => {
                                                               'name' => '__k2',
                                                               'type' => '2109'
                                                             }
                                                    },
                                         'Private' => 1,
                                         'Return' => '1',
                                         'ShortName' => '_S_copy_chars',
                                         'Static' => 1
                                       },
                            '56373' => {
                                         'Class' => '55562',
                                         'Header' => 'basic_string.h',
                                         'InLine' => 2,
                                         'Line' => '493',
                                         'MnglName' => '_ZNSt7__cxx1112basic_stringIcSt11char_traitsIcESaIcEE10_S_compareEmm',
                                         'Param' => {
                                                      '0' => {
                                                               'name' => '__n1',
                                                               'type' => '55606'
                                                             },
                                                      '1' => {
                                                               'name' => '__n2',
                                                               'type' => '55606'
                                                             }
                                                    },
                                         'Private' => 1,
                                         'Return' => '1582',
                                         'ShortName' => '_S_compare',
                                         'Static' => 1
                                       },
                            '56631' => {
                                         'Class' => '55562',
                                         'Constructor' => 1,
                                         'Header' => 'basic_string.h',
                                         'Line' => '682',
                                         'MnglName' => '_ZNSt7__cxx1112basic_stringIcSt11char_traitsIcESaIcEEC2EOS4_',
                                         'Param' => {
                                                      '0' => {
                                                               'name' => 'this',
                                                               'type' => '75324'
                                                             },
                                                      '1' => {
                                                               'name' => '__str',
                                                               'type' => '75364'
                                                             }
                                                    },
                                         'ShortName' => 'basic_string'
                                       },
                            '56714' => {
                                         'Class' => '55562',
                                         'Destructor' => 1,
                                         'Header' => 'basic_string.h',
                                         'Line' => '808',
                                         'MnglName' => '_ZNSt7__cxx1112basic_stringIcSt11char_traitsIcESaIcEED2Ev',
                                         'Param' => {
                                                      '0' => {
                                                               'name' => 'this',
                                                               'type' => '75324'
                                                             }
                                                    },
                                         'ShortName' => '~basic_string'
                                       },
                            '57096' => {
                                         'Class' => '55562',
                                         'Const' => 1,
                                         'Header' => 'basic_string.h',
                                         'InLine' => 2,
                                         'Line' => '1076',
                                         'MnglName' => '_ZNKSt7__cxx1112basic_stringIcSt11char_traitsIcESaIcEE4sizeEv',
                                         'Param' => {
                                                      '0' => {
                                                               'name' => 'this',
                                                               'type' => '75329'
                                                             }
                                                    },
                                         'Return' => '55606',
                                         'ShortName' => 'size'
                                       },
                            '57114' => {
                                         'Class' => '55562',
                                         'Const' => 1,
                                         'Header' => 'basic_string.h',
                                         'InLine' => 2,
                                         'Line' => '1083',
                                         'MnglName' => '_ZNKSt7__cxx1112basic_stringIcSt11char_traitsIcESaIcEE6lengthEv',
                                         'Param' => {
                                                      '0' => {
                                                               'name' => 'this',
                                                               'type' => '75329'
                                                             }
                                                    },
                                         'Return' => '55606',
                                         'ShortName' => 'length'
                                       },
                            '57132' => {
                                         'Class' => '55562',
                                         'Const' => 1,
                                         'Header' => 'basic_string.h',
                                         'InLine' => 2,
                                         'Line' => '1089',
                                         'MnglName' => '_ZNKSt7__cxx1112basic_stringIcSt11char_traitsIcESaIcEE8max_sizeEv',
                                         'Param' => {
                                                      '0' => {
                                                               'name' => 'this',
                                                               'type' => '75329'
                                                             }
                                                    },
                                         'Return' => '55606',
                                         'ShortName' => 'max_size'
                                       },
                            '59045' => {
                                         'Class' => '55562',
                                         'Const' => 1,
                                         'Header' => 'basic_string.h',
                                         'InLine' => 2,
                                         'Line' => '2653',
                                         'MnglName' => '_ZNKSt7__cxx1112basic_stringIcSt11char_traitsIcESaIcEE4dataEv',
                                         'Param' => {
                                                      '0' => {
                                                               'name' => 'this',
                                                               'type' => '75329'
                                                             }
                                                    },
                                         'Return' => '2109',
                                         'ShortName' => 'data'
                                       },
                            '59830' => {
                                         'Class' => '55562',
                                         'Const' => 1,
                                         'Header' => 'basic_string.h',
                                         'InLine' => 2,
                                         'Line' => '3228',
                                         'MnglName' => '_ZNKSt7__cxx1112basic_stringIcSt11char_traitsIcESaIcEE7compareERKS4_',
                                         'Param' => {
                                                      '0' => {
                                                               'name' => 'this',
                                                               'type' => '75329'
                                                             },
                                                      '1' => {
                                                               'name' => '__str',
                                                               'type' => '75359'
                                                             }
                                                    },
                                         'Return' => '1582',
                                         'ShortName' => 'compare'
                                       },
                            '6005' => {
                                        'Class' => '5999',
                                        'Header' => 'registry.hpp',
                                        'Line' => '25',
                                        'MnglName' => '_ZN4zeno7reflect14internal_utils15allocate_new_idEv',
                                        'Return' => '1566',
                                        'ShortName' => 'allocate_new_id',
                                        'Source' => 'registry.cpp',
                                        'SourceLine' => '11',
                                        'Static' => 1
                                      },
                            '60184' => {
                                         'Class' => '55562',
                                         'Header' => 'basic_string.tcc',
                                         'InLine' => 2,
                                         'Line' => '222',
                                         'MnglName' => '_ZNSt7__cxx1112basic_stringIcSt11char_traitsIcESaIcEE12_M_constructIPKcEEvT_S8_St20forward_iterator_tag',
                                         'Param' => {
                                                      '0' => {
                                                               'name' => 'this',
                                                               'type' => '75324'
                                                             },
                                                      '1' => {
                                                               'name' => '__beg',
                                                               'type' => '2109'
                                                             },
                                                      '2' => {
                                                               'name' => '__end',
                                                               'type' => '2109'
                                                             },
                                                      '3' => {
                                                               'name' => 'p3',
                                                               'type' => '71527'
                                                             }
                                                    },
                                         'Private' => 1,
                                         'Return' => '1',
                                         'ShortName' => '_M_construct<char const*>',
                                         'TParam' => {
                                                       '0' => {
                                                                'key' => '_FwdIterator',
                                                                'type' => '2109'
                                                              }
                                                     }
                                       },
                            '60219' => {
                                         'Class' => '55562',
                                         'Constructor' => 1,
                                         'Header' => 'basic_string.h',
                                         'Line' => '646',
                                         'MnglName' => '_ZNSt7__cxx1112basic_stringIcSt11char_traitsIcESaIcEEC2IS3_EEPKcRKS3_',
                                         'Param' => {
                                                      '0' => {
                                                               'name' => 'this',
                                                               'type' => '75324'
                                                             },
                                                      '1' => {
                                                               'name' => '__s',
                                                               'type' => '2109'
                                                             },
                                                      '2' => {
                                                               'name' => '__a',
                                                               'type' => '74561'
                                                             }
                                                    },
                                         'ShortName' => 'basic_string<std::allocator<char> >',
                                         'TParam' => {
                                                       '0' => {
                                                                'key' => undef,
                                                                'type' => '60584'
                                                              }
                                                     }
                                       },
                            '60262' => {
                                         'Class' => '60249',
                                         'Header' => 'char_traits.h',
                                         'InLine' => 2,
                                         'Line' => '343',
                                         'MnglName' => '_ZNSt11char_traitsIcE6assignERcRKc',
                                         'Param' => {
                                                      '0' => {
                                                               'name' => '__c1',
                                                               'type' => '74464'
                                                             },
                                                      '1' => {
                                                               'name' => '__c2',
                                                               'type' => '74469'
                                                             }
                                                    },
                                         'Return' => '1',
                                         'ShortName' => 'assign',
                                         'Static' => 1
                                       },
                            '6030' => {
                                        'Class' => '6015',
                                        'Constructor' => 1,
                                        'Header' => 'registry.hpp',
                                        'Line' => '50',
                                        'MnglName' => '_ZN4zeno7reflect18ReflectionRegistryC2Ev',
                                        'Param' => {
                                                     '0' => {
                                                              'name' => 'this',
                                                              'type' => '19608'
                                                            }
                                                   },
                                        'Private' => 1,
                                        'ShortName' => 'ReflectionRegistry'
                                      },
                            '60330' => {
                                         'Class' => '60249',
                                         'Header' => 'char_traits.h',
                                         'InLine' => 2,
                                         'Line' => '366',
                                         'MnglName' => '_ZNSt11char_traitsIcE7compareEPKcS2_m',
                                         'Param' => {
                                                      '0' => {
                                                               'name' => '__s1',
                                                               'type' => '74487'
                                                             },
                                                      '1' => {
                                                               'name' => '__s2',
                                                               'type' => '74487'
                                                             },
                                                      '2' => {
                                                               'name' => '__n',
                                                               'type' => '10586'
                                                             }
                                                    },
                                         'Return' => '1582',
                                         'ShortName' => 'compare',
                                         'Static' => 1
                                       },
                            '60356' => {
                                         'Class' => '60249',
                                         'Header' => 'char_traits.h',
                                         'InLine' => 2,
                                         'Line' => '385',
                                         'MnglName' => '_ZNSt11char_traitsIcE6lengthEPKc',
                                         'Param' => {
                                                      '0' => {
                                                               'name' => '__s',
                                                               'type' => '74487'
                                                             }
                                                    },
                                         'Return' => '10586',
                                         'ShortName' => 'length',
                                         'Static' => 1
                                       },
                            '6040' => {
                                        'Class' => '6015',
                                        'Header' => 'registry.hpp',
                                        'Line' => '54',
                                        'MnglName' => '_ZN4zeno7reflect18ReflectionRegistry3getEv',
                                        'Return' => '19613',
                                        'ShortName' => 'get',
                                        'Source' => 'registry.cpp',
                                        'SourceLine' => '17',
                                        'Static' => 1
                                      },
                            '60424' => {
                                         'Class' => '60249',
                                         'Header' => 'char_traits.h',
                                         'InLine' => 2,
                                         'Line' => '419',
                                         'MnglName' => '_ZNSt11char_traitsIcE4copyEPcPKcm',
                                         'Param' => {
                                                      '0' => {
                                                               'name' => '__s1',
                                                               'type' => '74496'
                                                             },
                                                      '1' => {
                                                               'name' => '__s2',
                                                               'type' => '74487'
                                                             },
                                                      '2' => {
                                                               'name' => '__n',
                                                               'type' => '10586'
                                                             }
                                                    },
                                         'Return' => '74496',
                                         'ShortName' => 'copy',
                                         'Static' => 1
                                       },
                            '6050' => {
                                        'Class' => '6015',
                                        'Header' => 'registry.hpp',
                                        'Line' => '56',
                                        'MnglName' => '_ZN4zeno7reflect18ReflectionRegistryptEv',
                                        'Param' => {
                                                     '0' => {
                                                              'name' => 'this',
                                                              'type' => '19608'
                                                            }
                                                   },
                                        'Return' => '19516',
                                        'ShortName' => 'operator->',
                                        'Source' => 'registry.cpp',
                                        'SourceLine' => '23'
                                      },
                            '6066' => {
                                        'Artificial' => 1,
                                        'Class' => '6015',
                                        'Destructor' => 1,
                                        'Header' => 'registry.hpp',
                                        'Line' => '48',
                                        'MnglName' => '_ZN4zeno7reflect18ReflectionRegistryD2Ev',
                                        'Param' => {
                                                     '0' => {
                                                              'name' => 'this',
                                                              'type' => '19608'
                                                            }
                                                   },
                                        'ShortName' => '~ReflectionRegistry'
                                      },
                            '60774' => {
                                         'Class' => '60714',
                                         'Header' => 'new_allocator.h',
                                         'InLine' => 2,
                                         'Line' => '126',
                                         'MnglName' => '_ZNSt15__new_allocatorIcE8allocateEmPKv',
                                         'Param' => {
                                                      '0' => {
                                                               'name' => 'this',
                                                               'type' => '74511'
                                                             },
                                                      '1' => {
                                                               'name' => '__n',
                                                               'type' => '19738'
                                                             },
                                                      '2' => {
                                                               'name' => 'p2',
                                                               'type' => '1950'
                                                             }
                                                    },
                                         'Return' => '2090',
                                         'ShortName' => 'allocate'
                                       },
                            '60800' => {
                                         'Class' => '60714',
                                         'Header' => 'new_allocator.h',
                                         'InLine' => 2,
                                         'Line' => '156',
                                         'MnglName' => '_ZNSt15__new_allocatorIcE10deallocateEPcm',
                                         'Param' => {
                                                      '0' => {
                                                               'name' => 'this',
                                                               'type' => '74511'
                                                             },
                                                      '1' => {
                                                               'name' => '__p',
                                                               'type' => '2090'
                                                             },
                                                      '2' => {
                                                               'name' => '__n',
                                                               'type' => '19738'
                                                             }
                                                    },
                                         'Return' => '1',
                                         'ShortName' => 'deallocate'
                                       },
                            '6092' => {
                                        'Class' => '6077',
                                        'Constructor' => 1,
                                        'Header' => 'registry.hpp',
                                        'Line' => '38',
                                        'MnglName' => '_ZN4zeno7reflect14ReflectTypeMapC2Ev',
                                        'Param' => {
                                                     '0' => {
                                                              'name' => 'this',
                                                              'type' => '19516'
                                                            }
                                                   },
                                        'ShortName' => 'ReflectTypeMap',
                                        'Source' => 'registry.cpp',
                                        'SourceLine' => '30'
                                      },
                            '6093' => {
                                        'Class' => '6077',
                                        'Constructor' => 1,
                                        'Header' => 'registry.hpp',
                                        'Line' => '38',
                                        'MnglName' => '_ZN4zeno7reflect14ReflectTypeMapC1Ev',
                                        'Param' => {
                                                     '0' => {
                                                              'name' => 'this',
                                                              'type' => '19516'
                                                            }
                                                   },
                                        'ShortName' => 'ReflectTypeMap',
                                        'Source' => 'registry.cpp',
                                        'SourceLine' => '30'
                                      },
                            '6103' => {
                                        'Class' => '6077',
                                        'Destructor' => 1,
                                        'Header' => 'registry.hpp',
                                        'Line' => '39',
                                        'MnglName' => '_ZN4zeno7reflect14ReflectTypeMapD2Ev',
                                        'Param' => {
                                                     '0' => {
                                                              'name' => 'this',
                                                              'type' => '19516'
                                                            }
                                                   },
                                        'ShortName' => '~ReflectTypeMap',
                                        'Source' => 'registry.cpp',
                                        'SourceLine' => '35'
                                      },
                            '6114' => {
                                        'Class' => '6077',
                                        'Header' => 'registry.hpp',
                                        'Line' => '41',
                                        'MnglName' => '_ZN4zeno7reflect14ReflectTypeMap3addEPNS0_8TypeBaseE',
                                        'Param' => {
                                                     '0' => {
                                                              'name' => 'this',
                                                              'type' => '19516'
                                                            },
                                                     '1' => {
                                                              'name' => 'val',
                                                              'type' => '6135'
                                                            }
                                                   },
                                        'Return' => '19466',
                                        'ShortName' => 'add',
                                        'Source' => 'registry.cpp'
                                      },
                            '61295' => {
                                         'Class' => '61008',
                                         'Const' => 1,
                                         'Header' => 'string_view',
                                         'InLine' => 2,
                                         'Line' => '229',
                                         'MnglName' => '_ZNKSt17basic_string_viewIcSt11char_traitsIcEE4sizeEv',
                                         'Param' => {
                                                      '0' => {
                                                               'name' => 'this',
                                                               'type' => '75314'
                                                             }
                                                    },
                                         'Return' => '19738',
                                         'ShortName' => 'size'
                                       },
                            '61343' => {
                                         'Class' => '61008',
                                         'Const' => 1,
                                         'Header' => 'string_view',
                                         'InLine' => 2,
                                         'Line' => '247',
                                         'MnglName' => '_ZNKSt17basic_string_viewIcSt11char_traitsIcEE5emptyEv',
                                         'Param' => {
                                                      '0' => {
                                                               'name' => 'this',
                                                               'type' => '75314'
                                                             }
                                                    },
                                         'Return' => '19466',
                                         'ShortName' => 'empty'
                                       },
                            '6143' => {
                                        'Class' => '6077',
                                        'Const' => 1,
                                        'Header' => 'registry.hpp',
                                        'Line' => '42',
                                        'MnglName' => '_ZNK4zeno7reflect14ReflectTypeMap4sizeEv',
                                        'Param' => {
                                                     '0' => {
                                                              'name' => 'this',
                                                              'type' => '19538'
                                                            }
                                                   },
                                        'Return' => '1956',
                                        'ShortName' => 'size',
                                        'Source' => 'registry.cpp',
                                        'SourceLine' => '51'
                                      },
                            '61445' => {
                                         'Class' => '61008',
                                         'Const' => 1,
                                         'Header' => 'string_view',
                                         'InLine' => 2,
                                         'Line' => '289',
                                         'MnglName' => '_ZNKSt17basic_string_viewIcSt11char_traitsIcEE4dataEv',
                                         'Param' => {
                                                      '0' => {
                                                               'name' => 'this',
                                                               'type' => '75314'
                                                             }
                                                    },
                                         'Return' => '61462',
                                         'ShortName' => 'data'
                                       },
                            '6159' => {
                                        'Class' => '6077',
                                        'Header' => 'registry.hpp',
                                        'Line' => '43',
                                        'MnglName' => '_ZN4zeno7reflect14ReflectTypeMap3getEm',
                                        'Param' => {
                                                     '0' => {
                                                              'name' => 'this',
                                                              'type' => '19516'
                                                            },
                                                     '1' => {
                                                              'name' => 'hash',
                                                              'type' => '6180'
                                                            }
                                                   },
                                        'Return' => '6135',
                                        'ShortName' => 'get',
                                        'Source' => 'registry.cpp',
                                        'SourceLine' => '56'
                                      },
                            '6188' => {
                                        'Class' => '6077',
                                        'Const' => 1,
                                        'Header' => 'registry.hpp',
                                        'Line' => '44',
                                        'MnglName' => '_ZNK4zeno7reflect14ReflectTypeMap3allEv',
                                        'Param' => {
                                                     '0' => {
                                                              'name' => 'this',
                                                              'type' => '19538'
                                                            }
                                                   },
                                        'Return' => '6228',
                                        'ShortName' => 'all',
                                        'Source' => 'registry.cpp',
                                        'SourceLine' => '65'
                                      },
                            '6204' => {
                                        'Class' => '6077',
                                        'Header' => 'registry.hpp',
                                        'Line' => '45',
                                        'MnglName' => '_ZN4zeno7reflect14ReflectTypeMap22find_by_canonical_nameERKNS0_13simple_stringE',
                                        'Param' => {
                                                     '0' => {
                                                              'name' => 'this',
                                                              'type' => '19516'
                                                            },
                                                     '1' => {
                                                              'name' => 'in_view',
                                                              'type' => '19598'
                                                            }
                                                   },
                                        'Return' => '6135',
                                        'ShortName' => 'find_by_canonical_name',
                                        'Source' => 'registry.cpp',
                                        'SourceLine' => '75'
                                      },
                            '6267' => {
                                        'Class' => '6228',
                                        'Header' => 'arraylist',
                                        'InLine' => 2,
                                        'Line' => '27',
                                        'MnglName' => '_ZN4zeno7reflect9ArrayListIPNS0_8TypeBaseEE15resize_internalEv',
                                        'Param' => {
                                                     '0' => {
                                                              'name' => 'this',
                                                              'type' => '19548'
                                                            }
                                                   },
                                        'Private' => 1,
                                        'Return' => '1',
                                        'ShortName' => 'resize_internal'
                                      },
                            '62760' => {
                                         'Class' => '62708',
                                         'Constructor' => 1,
                                         'Header' => 'stl_map.h',
                                         'Line' => '197',
                                         'MnglName' => '_ZNSt3mapINSt7__cxx1112basic_stringIcSt11char_traitsIcESaIcEEEN4zeno7reflect9UniquePtrINS7_14IMetadataValueEEESt4lessIS5_ESaISt4pairIKS5_SA_EEEC2Ev',
                                         'Param' => {
                                                      '0' => {
                                                               'name' => 'this',
                                                               'type' => '79607'
                                                             }
                                                    },
                                         'ShortName' => 'map'
                                       },
                            '6278' => {
                                        'Class' => '6228',
                                        'Constructor' => 1,
                                        'Header' => 'arraylist',
                                        'Line' => '41',
                                        'MnglName' => '_ZN4zeno7reflect9ArrayListIPNS0_8TypeBaseEEC2Em',
                                        'Param' => {
                                                     '0' => {
                                                              'name' => 'this',
                                                              'type' => '19548'
                                                            },
                                                     '1' => {
                                                              'name' => 'init_size',
                                                              'type' => '1956'
                                                            }
                                                   },
                                        'ShortName' => 'ArrayList'
                                      },
                            '62949' => {
                                         'Class' => '62708',
                                         'Destructor' => 1,
                                         'Header' => 'stl_map.h',
                                         'Line' => '314',
                                         'MnglName' => '_ZNSt3mapINSt7__cxx1112basic_stringIcSt11char_traitsIcESaIcEEEN4zeno7reflect9UniquePtrINS7_14IMetadataValueEEESt4lessIS5_ESaISt4pairIKS5_SA_EEED2Ev',
                                         'Param' => {
                                                      '0' => {
                                                               'name' => 'this',
                                                               'type' => '79607'
                                                             }
                                                    },
                                         'ShortName' => '~map'
                                       },
                            '6310' => {
                                        'Class' => '6228',
                                        'Destructor' => 1,
                                        'Header' => 'arraylist',
                                        'Line' => '51',
                                        'MnglName' => '_ZN4zeno7reflect9ArrayListIPNS0_8TypeBaseEED2Ev',
                                        'Param' => {
                                                     '0' => {
                                                              'name' => 'this',
                                                              'type' => '19548'
                                                            }
                                                   },
                                        'ShortName' => '~ArrayList'
                                      },
                            '63104' => {
                                         'Class' => '62708',
                                         'Header' => 'stl_map.h',
                                         'InLine' => 2,
                                         'Line' => '386',
                                         'MnglName' => '_ZNSt3mapINSt7__cxx1112basic_stringIcSt11char_traitsIcESaIcEEEN4zeno7reflect9UniquePtrINS7_14IMetadataValueEEESt4lessIS5_ESaISt4pairIKS5_SA_EEE3endEv',
                                         'Param' => {
                                                      '0' => {
                                                               'name' => 'this',
                                                               'type' => '79607'
                                                             }
                                                    },
                                         'Return' => '63068',
                                         'ShortName' => 'end'
                                       },
                            '63122' => {
                                         'Class' => '62708',
                                         'Const' => 1,
                                         'Header' => 'stl_map.h',
                                         'InLine' => 2,
                                         'Line' => '395',
                                         'MnglName' => '_ZNKSt3mapINSt7__cxx1112basic_stringIcSt11char_traitsIcESaIcEEEN4zeno7reflect9UniquePtrINS7_14IMetadataValueEEESt4lessIS5_ESaISt4pairIKS5_SA_EEE3endEv',
                                         'Param' => {
                                                      '0' => {
                                                               'name' => 'this',
                                                               'type' => '79653'
                                                             }
                                                    },
                                         'Return' => '63095',
                                         'ShortName' => 'end'
                                       },
                            '6374' => {
                                        'Class' => '6228',
                                        'Header' => 'arraylist',
                                        'InLine' => 2,
                                        'Line' => '71',
                                        'MnglName' => '_ZN4zeno7reflect9ArrayListIPNS0_8TypeBaseEE8add_itemERKS3_',
                                        'Param' => {
                                                     '0' => {
                                                              'name' => 'this',
                                                              'type' => '19548'
                                                            },
                                                     '1' => {
                                                              'name' => 'value',
                                                              'type' => '19573'
                                                            }
                                                   },
                                        'Return' => '1956',
                                        'ShortName' => 'add_item'
                                      },
                            '63869' => {
                                         'Class' => '62708',
                                         'Const' => 1,
                                         'Header' => 'stl_map.h',
                                         'InLine' => 2,
                                         'Line' => '1191',
                                         'MnglName' => '_ZNKSt3mapINSt7__cxx1112basic_stringIcSt11char_traitsIcESaIcEEEN4zeno7reflect9UniquePtrINS7_14IMetadataValueEEESt4lessIS5_ESaISt4pairIKS5_SA_EEE8key_compEv',
                                         'Param' => {
                                                      '0' => {
                                                               'name' => 'this',
                                                               'type' => '79653'
                                                             }
                                                    },
                                         'Return' => '63888',
                                         'ShortName' => 'key_comp'
                                       },
                            '63943' => {
                                         'Class' => '62708',
                                         'Const' => 1,
                                         'Header' => 'stl_map.h',
                                         'InLine' => 2,
                                         'Line' => '1243',
                                         'MnglName' => '_ZNKSt3mapINSt7__cxx1112basic_stringIcSt11char_traitsIcESaIcEEEN4zeno7reflect9UniquePtrINS7_14IMetadataValueEEESt4lessIS5_ESaISt4pairIKS5_SA_EEE4findERSE_',
                                         'Param' => {
                                                      '0' => {
                                                               'name' => 'this',
                                                               'type' => '79653'
                                                             },
                                                      '1' => {
                                                               'name' => '__x',
                                                               'type' => '79663'
                                                             }
                                                    },
                                         'Return' => '63095',
                                         'ShortName' => 'find'
                                       },
                            '64014' => {
                                         'Class' => '62708',
                                         'Header' => 'stl_map.h',
                                         'InLine' => 2,
                                         'Line' => '1307',
                                         'MnglName' => '_ZNSt3mapINSt7__cxx1112basic_stringIcSt11char_traitsIcESaIcEEEN4zeno7reflect9UniquePtrINS7_14IMetadataValueEEESt4lessIS5_ESaISt4pairIKS5_SA_EEE11lower_boundERSE_',
                                         'Param' => {
                                                      '0' => {
                                                               'name' => 'this',
                                                               'type' => '79607'
                                                             },
                                                      '1' => {
                                                               'name' => '__x',
                                                               'type' => '79663'
                                                             }
                                                    },
                                         'Return' => '63068',
                                         'ShortName' => 'lower_bound'
                                       },
                            '64158' => {
                                         'Class' => '62708',
                                         'Header' => 'stl_map.h',
                                         'InLine' => 2,
                                         'Line' => '985',
                                         'MnglName' => '_ZNSt3mapINSt7__cxx1112basic_stringIcSt11char_traitsIcESaIcEEEN4zeno7reflect9UniquePtrINS7_14IMetadataValueEEESt4lessIS5_ESaISt4pairIKS5_SA_EEE16insert_or_assignISA_EESD_ISt17_Rb_tree_iteratorISF_EbEOS5_OT_',
                                         'Param' => {
                                                      '0' => {
                                                               'name' => 'this',
                                                               'type' => '79607'
                                                             },
                                                      '1' => {
                                                               'name' => '__k',
                                                               'type' => '79673'
                                                             },
                                                      '2' => {
                                                               'name' => '__obj',
                                                               'type' => '78997'
                                                             }
                                                    },
                                         'Return' => '69592',
                                         'ShortName' => 'insert_or_assign<zeno::reflect::UniquePtr<zeno::reflect::IMetadataValue> >',
                                         'TParam' => {
                                                       '0' => {
                                                                'key' => '_Obj',
                                                                'type' => '76487'
                                                              }
                                                     }
                                       },
                            '64194' => {
                                         'Class' => '62708',
                                         'Header' => 'stl_map.h',
                                         'InLine' => 2,
                                         'Line' => '638',
                                         'MnglName' => '_ZNSt3mapINSt7__cxx1112basic_stringIcSt11char_traitsIcESaIcEEEN4zeno7reflect9UniquePtrINS7_14IMetadataValueEEESt4lessIS5_ESaISt4pairIKS5_SA_EEE12emplace_hintIJRKSt21piecewise_construct_tSt5tupleIJOS5_EESM_IJOSA_EEEEESt17_Rb_tree_iteratorISF_ESt23_Rb_tree_const_iteratorISF_EDpOT_',
                                         'Param' => {
                                                      '0' => {
                                                               'name' => 'this',
                                                               'type' => '79607'
                                                             },
                                                      '1' => {
                                                               'name' => '__pos',
                                                               'type' => '63095'
                                                             },
                                                      '2' => {
                                                               'name' => '__args',
                                                               'type' => '23644'
                                                             },
                                                      '3' => {
                                                               'name' => '__args',
                                                               'type' => '79936'
                                                             },
                                                      '4' => {
                                                               'name' => '__args',
                                                               'type' => '80014'
                                                             }
                                                    },
                                         'Return' => '63068',
                                         'ShortName' => 'emplace_hint<std::piecewise_construct_t const&>',
                                         'TParam' => {
                                                       '0' => {
                                                                'key' => undef,
                                                                'type' => '23644'
                                                              }
                                                     }
                                       },
                            '64273' => {
                                         'Class' => '64253',
                                         'Const' => 1,
                                         'Header' => 'stl_function.h',
                                         'InLine' => 2,
                                         'Line' => '404',
                                         'MnglName' => '_ZNKSt4lessINSt7__cxx1112basic_stringIcSt11char_traitsIcESaIcEEEEclERKS5_S8_',
                                         'Param' => {
                                                      '0' => {
                                                               'name' => 'this',
                                                               'type' => '79047'
                                                             },
                                                      '1' => {
                                                               'name' => '__x',
                                                               'type' => '75359'
                                                             },
                                                      '2' => {
                                                               'name' => '__y',
                                                               'type' => '75359'
                                                             }
                                                    },
                                         'Return' => '19466',
                                         'ShortName' => 'operator()'
                                       },
                            '64669' => {
                                         'Artificial' => 1,
                                         'Class' => '64457',
                                         'Destructor' => 1,
                                         'Header' => 'stl_pair.h',
                                         'Line' => '284',
                                         'MnglName' => '_ZNSt4pairIKNSt7__cxx1112basic_stringIcSt11char_traitsIcESaIcEEEN4zeno7reflect9UniquePtrINS8_14IMetadataValueEEEED2Ev',
                                         'Param' => {
                                                      '0' => {
                                                               'name' => 'this',
                                                               'type' => '79057'
                                                             }
                                                    },
                                         'ShortName' => '~pair'
                                       },
                            '64678' => {
                                         'Class' => '64457',
                                         'Constructor' => 1,
                                         'Header' => 'tuple',
                                         'Line' => '2873',
                                         'MnglName' => '_ZNSt4pairIKNSt7__cxx1112basic_stringIcSt11char_traitsIcESaIcEEEN4zeno7reflect9UniquePtrINS8_14IMetadataValueEEEEC2IJOS5_EJOSB_EEESt21piecewise_construct_tSt5tupleIJDpT_EESH_IJDpT0_EE',
                                         'Param' => {
                                                      '0' => {
                                                               'name' => 'this',
                                                               'type' => '79057'
                                                             },
                                                      '1' => {
                                                               'name' => 'p1',
                                                               'type' => '8347'
                                                             },
                                                      '2' => {
                                                               'name' => '__first',
                                                               'type' => '70154'
                                                             },
                                                      '3' => {
                                                               'name' => '__second',
                                                               'type' => '70810'
                                                             }
                                                    },
                                         'ShortName' => 'pair<std::__cxx11::basic_string<char>&&, zeno::reflect::UniquePtr<zeno::reflect::IMetadataValue>&&>',
                                         'TParam' => {
                                                       '0' => {
                                                                'key' => undef,
                                                                'type' => '75364'
                                                              },
                                                       '1' => {
                                                                'key' => undef,
                                                                'type' => '78997'
                                                              }
                                                     }
                                       },
                            '64723' => {
                                         'Class' => '64457',
                                         'Constructor' => 1,
                                         'Header' => 'tuple',
                                         'Line' => '2885',
                                         'MnglName' => '_ZNSt4pairIKNSt7__cxx1112basic_stringIcSt11char_traitsIcESaIcEEEN4zeno7reflect9UniquePtrINS8_14IMetadataValueEEEEC2IJOS5_EJLm0EEJOSB_EJLm0EEEERSt5tupleIJDpT_EERSG_IJDpT1_EESt12_Index_tupleIJXspT0_EEESP_IJXspT2_EEE',
                                         'Param' => {
                                                      '0' => {
                                                               'name' => 'this',
                                                               'type' => '79057'
                                                             },
                                                      '1' => {
                                                               'name' => '__tuple1',
                                                               'type' => '79942'
                                                             },
                                                      '2' => {
                                                               'name' => '__tuple2',
                                                               'type' => '80020'
                                                             },
                                                      '3' => {
                                                               'name' => 'p3',
                                                               'type' => '17307'
                                                             },
                                                      '4' => {
                                                               'name' => 'p4',
                                                               'type' => '17307'
                                                             }
                                                    },
                                         'Private' => 1,
                                         'ShortName' => 'pair<std::__cxx11::basic_string<char>&&, 0ul, zeno::reflect::UniquePtr<zeno::reflect::IMetadataValue>&&, 0ul>',
                                         'TParam' => {
                                                       '0' => {
                                                                'key' => undef,
                                                                'type' => '75364'
                                                              },
                                                       '1' => {
                                                                'key' => undef,
                                                                'type' => '1802',
                                                                'val' => '0'
                                                              },
                                                       '2' => {
                                                                'key' => undef,
                                                                'type' => '78997'
                                                              },
                                                       '3' => {
                                                                'key' => undef,
                                                                'type' => '1802',
                                                                'val' => '0'
                                                              }
                                                     }
                                       },
                            '65049' => {
                                         'Class' => '65010',
                                         'Constructor' => 1,
                                         'Header' => 'stl_tree.h',
                                         'Line' => '665',
                                         'MnglName' => '_ZNSt8_Rb_treeINSt7__cxx1112basic_stringIcSt11char_traitsIcESaIcEEESt4pairIKS5_N4zeno7reflect9UniquePtrINS9_14IMetadataValueEEEESt10_Select1stISD_ESt4lessIS5_ESaISD_EE13_Rb_tree_implISH_Lb1EEC2Ev',
                                         'Param' => {
                                                      '0' => {
                                                               'name' => 'this',
                                                               'type' => '79335'
                                                             }
                                                    },
                                         'ShortName' => '_Rb_tree_impl'
                                       },
                            '65156' => {
                                         'Artificial' => 1,
                                         'Class' => '65010',
                                         'Destructor' => 1,
                                         'Header' => 'stl_tree.h',
                                         'Line' => '658',
                                         'MnglName' => '_ZNSt8_Rb_treeINSt7__cxx1112basic_stringIcSt11char_traitsIcESaIcEEESt4pairIKS5_N4zeno7reflect9UniquePtrINS9_14IMetadataValueEEEESt10_Select1stISD_ESt4lessIS5_ESaISD_EE13_Rb_tree_implISH_Lb1EED2Ev',
                                         'Param' => {
                                                      '0' => {
                                                               'name' => 'this',
                                                               'type' => '79335'
                                                             }
                                                    },
                                         'ShortName' => '~_Rb_tree_impl'
                                       },
                            '65176' => {
                                         'Class' => '64956',
                                         'Header' => 'stl_tree.h',
                                         'InLine' => 2,
                                         'Line' => '545',
                                         'MnglName' => '_ZNSt8_Rb_treeINSt7__cxx1112basic_stringIcSt11char_traitsIcESaIcEEESt4pairIKS5_N4zeno7reflect9UniquePtrINS9_14IMetadataValueEEEESt10_Select1stISD_ESt4lessIS5_ESaISD_EE21_M_get_Node_allocatorEv',
                                         'Param' => {
                                                      '0' => {
                                                               'name' => 'this',
                                                               'type' => '79367'
                                                             }
                                                    },
                                         'Return' => '79362',
                                         'ShortName' => '_M_get_Node_allocator'
                                       },
                            '6520' => {
                                        'Class' => '6228',
                                        'Header' => 'arraylist',
                                        'InLine' => 2,
                                        'Line' => '138',
                                        'MnglName' => '_ZN4zeno7reflect9ArrayListIPNS0_8TypeBaseEE5resetEv',
                                        'Param' => {
                                                     '0' => {
                                                              'name' => 'this',
                                                              'type' => '19548'
                                                            }
                                                   },
                                        'Return' => '1',
                                        'ShortName' => 'reset'
                                      },
                            '65243' => {
                                         'Class' => '64956',
                                         'Header' => 'stl_tree.h',
                                         'InLine' => 2,
                                         'Line' => '558',
                                         'MnglName' => '_ZNSt8_Rb_treeINSt7__cxx1112basic_stringIcSt11char_traitsIcESaIcEEESt4pairIKS5_N4zeno7reflect9UniquePtrINS9_14IMetadataValueEEEESt10_Select1stISD_ESt4lessIS5_ESaISD_EE11_M_get_nodeEv',
                                         'Param' => {
                                                      '0' => {
                                                               'name' => 'this',
                                                               'type' => '79367'
                                                             }
                                                    },
                                         'Protected' => 1,
                                         'Return' => '65262',
                                         'ShortName' => '_M_get_node'
                                       },
                            '65273' => {
                                         'Class' => '64956',
                                         'Header' => 'stl_tree.h',
                                         'InLine' => 2,
                                         'Line' => '562',
                                         'MnglName' => '_ZNSt8_Rb_treeINSt7__cxx1112basic_stringIcSt11char_traitsIcESaIcEEESt4pairIKS5_N4zeno7reflect9UniquePtrINS9_14IMetadataValueEEEESt10_Select1stISD_ESt4lessIS5_ESaISD_EE11_M_put_nodeEPSt13_Rb_tree_nodeISD_E',
                                         'Param' => {
                                                      '0' => {
                                                               'name' => 'this',
                                                               'type' => '79367'
                                                             },
                                                      '1' => {
                                                               'name' => '__p',
                                                               'type' => '65262'
                                                             }
                                                    },
                                         'Protected' => 1,
                                         'Return' => '1',
                                         'ShortName' => '_M_put_node'
                                       },
                            '65293' => {
                                         'Class' => '64956',
                                         'Header' => 'stl_tree.h',
                                         'InLine' => 2,
                                         'Line' => '616',
                                         'MnglName' => '_ZNSt8_Rb_treeINSt7__cxx1112basic_stringIcSt11char_traitsIcESaIcEEESt4pairIKS5_N4zeno7reflect9UniquePtrINS9_14IMetadataValueEEEESt10_Select1stISD_ESt4lessIS5_ESaISD_EE15_M_destroy_nodeEPSt13_Rb_tree_nodeISD_E',
                                         'Param' => {
                                                      '0' => {
                                                               'name' => 'this',
                                                               'type' => '79367'
                                                             },
                                                      '1' => {
                                                               'name' => '__p',
                                                               'type' => '65262'
                                                             }
                                                    },
                                         'Protected' => 1,
                                         'Return' => '1',
                                         'ShortName' => '_M_destroy_node'
                                       },
                            '65313' => {
                                         'Class' => '64956',
                                         'Header' => 'stl_tree.h',
                                         'InLine' => 2,
                                         'Line' => '627',
                                         'MnglName' => '_ZNSt8_Rb_treeINSt7__cxx1112basic_stringIcSt11char_traitsIcESaIcEEESt4pairIKS5_N4zeno7reflect9UniquePtrINS9_14IMetadataValueEEEESt10_Select1stISD_ESt4lessIS5_ESaISD_EE12_M_drop_nodeEPSt13_Rb_tree_nodeISD_E',
                                         'Param' => {
                                                      '0' => {
                                                               'name' => 'this',
                                                               'type' => '79367'
                                                             },
                                                      '1' => {
                                                               'name' => '__p',
                                                               'type' => '65262'
                                                             }
                                                    },
                                         'Protected' => 1,
                                         'Return' => '1',
                                         'ShortName' => '_M_drop_node'
                                       },
                            '65371' => {
                                         'Class' => '64956',
                                         'Header' => 'stl_tree.h',
                                         'InLine' => 2,
                                         'Line' => '716',
                                         'MnglName' => '_ZNSt8_Rb_treeINSt7__cxx1112basic_stringIcSt11char_traitsIcESaIcEEESt4pairIKS5_N4zeno7reflect9UniquePtrINS9_14IMetadataValueEEEESt10_Select1stISD_ESt4lessIS5_ESaISD_EE11_M_leftmostEv',
                                         'Param' => {
                                                      '0' => {
                                                               'name' => 'this',
                                                               'type' => '79367'
                                                             }
                                                    },
                                         'Protected' => 1,
                                         'Return' => '20460',
                                         'ShortName' => '_M_leftmost'
                                       },
                            '65409' => {
                                         'Class' => '64956',
                                         'Header' => 'stl_tree.h',
                                         'InLine' => 2,
                                         'Line' => '724',
                                         'MnglName' => '_ZNSt8_Rb_treeINSt7__cxx1112basic_stringIcSt11char_traitsIcESaIcEEESt4pairIKS5_N4zeno7reflect9UniquePtrINS9_14IMetadataValueEEEESt10_Select1stISD_ESt4lessIS5_ESaISD_EE12_M_rightmostEv',
                                         'Param' => {
                                                      '0' => {
                                                               'name' => 'this',
                                                               'type' => '79367'
                                                             }
                                                    },
                                         'Protected' => 1,
                                         'Return' => '20460',
                                         'ShortName' => '_M_rightmost'
                                       },
                            '65447' => {
                                         'Class' => '64956',
                                         'Const' => 1,
                                         'Header' => 'stl_tree.h',
                                         'InLine' => 2,
                                         'Line' => '732',
                                         'MnglName' => '_ZNKSt8_Rb_treeINSt7__cxx1112basic_stringIcSt11char_traitsIcESaIcEEESt4pairIKS5_N4zeno7reflect9UniquePtrINS9_14IMetadataValueEEEESt10_Select1stISD_ESt4lessIS5_ESaISD_EE9_M_mbeginEv',
                                         'Param' => {
                                                      '0' => {
                                                               'name' => 'this',
                                                               'type' => '79382'
                                                             }
                                                    },
                                         'Protected' => 1,
                                         'Return' => '65262',
                                         'ShortName' => '_M_mbegin'
                                       },
                            '65466' => {
                                         'Class' => '64956',
                                         'Header' => 'stl_tree.h',
                                         'InLine' => 2,
                                         'Line' => '736',
                                         'MnglName' => '_ZNSt8_Rb_treeINSt7__cxx1112basic_stringIcSt11char_traitsIcESaIcEEESt4pairIKS5_N4zeno7reflect9UniquePtrINS9_14IMetadataValueEEEESt10_Select1stISD_ESt4lessIS5_ESaISD_EE8_M_beginEv',
                                         'Param' => {
                                                      '0' => {
                                                               'name' => 'this',
                                                               'type' => '79367'
                                                             }
                                                    },
                                         'Protected' => 1,
                                         'Return' => '65262',
                                         'ShortName' => '_M_begin'
                                       },
                            '65485' => {
                                         'Class' => '64956',
                                         'Const' => 1,
                                         'Header' => 'stl_tree.h',
                                         'InLine' => 2,
                                         'Line' => '740',
                                         'MnglName' => '_ZNKSt8_Rb_treeINSt7__cxx1112basic_stringIcSt11char_traitsIcESaIcEEESt4pairIKS5_N4zeno7reflect9UniquePtrINS9_14IMetadataValueEEEESt10_Select1stISD_ESt4lessIS5_ESaISD_EE8_M_beginEv',
                                         'Param' => {
                                                      '0' => {
                                                               'name' => 'this',
                                                               'type' => '79382'
                                                             }
                                                    },
                                         'Protected' => 1,
                                         'Return' => '65504',
                                         'ShortName' => '_M_begin'
                                       },
                            '65515' => {
                                         'Class' => '64956',
                                         'Header' => 'stl_tree.h',
                                         'InLine' => 2,
                                         'Line' => '747',
                                         'MnglName' => '_ZNSt8_Rb_treeINSt7__cxx1112basic_stringIcSt11char_traitsIcESaIcEEESt4pairIKS5_N4zeno7reflect9UniquePtrINS9_14IMetadataValueEEEESt10_Select1stISD_ESt4lessIS5_ESaISD_EE6_M_endEv',
                                         'Param' => {
                                                      '0' => {
                                                               'name' => 'this',
                                                               'type' => '79367'
                                                             }
                                                    },
                                         'Protected' => 1,
                                         'Return' => '20465',
                                         'ShortName' => '_M_end'
                                       },
                            '65534' => {
                                         'Class' => '64956',
                                         'Const' => 1,
                                         'Header' => 'stl_tree.h',
                                         'InLine' => 2,
                                         'Line' => '751',
                                         'MnglName' => '_ZNKSt8_Rb_treeINSt7__cxx1112basic_stringIcSt11char_traitsIcESaIcEEESt4pairIKS5_N4zeno7reflect9UniquePtrINS9_14IMetadataValueEEEESt10_Select1stISD_ESt4lessIS5_ESaISD_EE6_M_endEv',
                                         'Param' => {
                                                      '0' => {
                                                               'name' => 'this',
                                                               'type' => '79382'
                                                             }
                                                    },
                                         'Protected' => 1,
                                         'Return' => '20476',
                                         'ShortName' => '_M_end'
                                       },
                            '65553' => {
                                         'Class' => '64956',
                                         'Header' => 'stl_tree.h',
                                         'InLine' => 2,
                                         'Line' => '755',
                                         'MnglName' => '_ZNSt8_Rb_treeINSt7__cxx1112basic_stringIcSt11char_traitsIcESaIcEEESt4pairIKS5_N4zeno7reflect9UniquePtrINS9_14IMetadataValueEEEESt10_Select1stISD_ESt4lessIS5_ESaISD_EE6_S_keyEPKSt13_Rb_tree_nodeISD_E',
                                         'Param' => {
                                                      '0' => {
                                                               'name' => '__x',
                                                               'type' => '65504'
                                                             }
                                                    },
                                         'Protected' => 1,
                                         'Return' => '75359',
                                         'ShortName' => '_S_key',
                                         'Static' => 1
                                       },
                            '65572' => {
                                         'Class' => '64956',
                                         'Header' => 'stl_tree.h',
                                         'InLine' => 2,
                                         'Line' => '777',
                                         'MnglName' => '_ZNSt8_Rb_treeINSt7__cxx1112basic_stringIcSt11char_traitsIcESaIcEEESt4pairIKS5_N4zeno7reflect9UniquePtrINS9_14IMetadataValueEEEESt10_Select1stISD_ESt4lessIS5_ESaISD_EE7_S_leftEPSt18_Rb_tree_node_base',
                                         'Param' => {
                                                      '0' => {
                                                               'name' => '__x',
                                                               'type' => '20465'
                                                             }
                                                    },
                                         'Protected' => 1,
                                         'Return' => '65262',
                                         'ShortName' => '_S_left',
                                         'Static' => 1
                                       },
                            '65591' => {
                                         'Class' => '64956',
                                         'Header' => 'stl_tree.h',
                                         'InLine' => 2,
                                         'Line' => '781',
                                         'MnglName' => '_ZNSt8_Rb_treeINSt7__cxx1112basic_stringIcSt11char_traitsIcESaIcEEESt4pairIKS5_N4zeno7reflect9UniquePtrINS9_14IMetadataValueEEEESt10_Select1stISD_ESt4lessIS5_ESaISD_EE7_S_leftEPKSt18_Rb_tree_node_base',
                                         'Param' => {
                                                      '0' => {
                                                               'name' => '__x',
                                                               'type' => '20476'
                                                             }
                                                    },
                                         'Protected' => 1,
                                         'Return' => '65504',
                                         'ShortName' => '_S_left',
                                         'Static' => 1
                                       },
                            '65610' => {
                                         'Class' => '64956',
                                         'Header' => 'stl_tree.h',
                                         'InLine' => 2,
                                         'Line' => '785',
                                         'MnglName' => '_ZNSt8_Rb_treeINSt7__cxx1112basic_stringIcSt11char_traitsIcESaIcEEESt4pairIKS5_N4zeno7reflect9UniquePtrINS9_14IMetadataValueEEEESt10_Select1stISD_ESt4lessIS5_ESaISD_EE8_S_rightEPSt18_Rb_tree_node_base',
                                         'Param' => {
                                                      '0' => {
                                                               'name' => '__x',
                                                               'type' => '20465'
                                                             }
                                                    },
                                         'Protected' => 1,
                                         'Return' => '65262',
                                         'ShortName' => '_S_right',
                                         'Static' => 1
                                       },
                            '65629' => {
                                         'Class' => '64956',
                                         'Header' => 'stl_tree.h',
                                         'InLine' => 2,
                                         'Line' => '789',
                                         'MnglName' => '_ZNSt8_Rb_treeINSt7__cxx1112basic_stringIcSt11char_traitsIcESaIcEEESt4pairIKS5_N4zeno7reflect9UniquePtrINS9_14IMetadataValueEEEESt10_Select1stISD_ESt4lessIS5_ESaISD_EE8_S_rightEPKSt18_Rb_tree_node_base',
                                         'Param' => {
                                                      '0' => {
                                                               'name' => '__x',
                                                               'type' => '20476'
                                                             }
                                                    },
                                         'Protected' => 1,
                                         'Return' => '65504',
                                         'ShortName' => '_S_right',
                                         'Static' => 1
                                       },
                            '65648' => {
                                         'Class' => '64956',
                                         'Header' => 'stl_tree.h',
                                         'InLine' => 2,
                                         'Line' => '793',
                                         'MnglName' => '_ZNSt8_Rb_treeINSt7__cxx1112basic_stringIcSt11char_traitsIcESaIcEEESt4pairIKS5_N4zeno7reflect9UniquePtrINS9_14IMetadataValueEEEESt10_Select1stISD_ESt4lessIS5_ESaISD_EE6_S_keyEPKSt18_Rb_tree_node_base',
                                         'Param' => {
                                                      '0' => {
                                                               'name' => '__x',
                                                               'type' => '20476'
                                                             }
                                                    },
                                         'Protected' => 1,
                                         'Return' => '75359',
                                         'ShortName' => '_S_key',
                                         'Static' => 1
                                       },
                            '65765' => {
                                         'Class' => '64956',
                                         'Header' => 'stl_tree.h',
                                         'InLine' => 2,
                                         'Line' => '2105',
                                         'MnglName' => '_ZNSt8_Rb_treeINSt7__cxx1112basic_stringIcSt11char_traitsIcESaIcEEESt4pairIKS5_N4zeno7reflect9UniquePtrINS9_14IMetadataValueEEEESt10_Select1stISD_ESt4lessIS5_ESaISD_EE24_M_get_insert_unique_posERS7_',
                                         'Param' => {
                                                      '0' => {
                                                               'name' => 'this',
                                                               'type' => '79367'
                                                             },
                                                      '1' => {
                                                               'name' => '__k',
                                                               'type' => '79460'
                                                             }
                                                    },
                                         'Return' => '14216',
                                         'ShortName' => '_M_get_insert_unique_pos'
                                       },
                            '65824' => {
                                         'Class' => '64956',
                                         'Header' => 'stl_tree.h',
                                         'InLine' => 2,
                                         'Line' => '2207',
                                         'MnglName' => '_ZNSt8_Rb_treeINSt7__cxx1112basic_stringIcSt11char_traitsIcESaIcEEESt4pairIKS5_N4zeno7reflect9UniquePtrINS9_14IMetadataValueEEEESt10_Select1stISD_ESt4lessIS5_ESaISD_EE29_M_get_insert_hint_unique_posESt23_Rb_tree_const_iteratorISD_ERS7_',
                                         'Param' => {
                                                      '0' => {
                                                               'name' => 'this',
                                                               'type' => '79367'
                                                             },
                                                      '1' => {
                                                               'name' => '__position',
                                                               'type' => '65853'
                                                             },
                                                      '2' => {
                                                               'name' => '__k',
                                                               'type' => '79460'
                                                             }
                                                    },
                                         'Return' => '14216',
                                         'ShortName' => '_M_get_insert_hint_unique_pos'
                                       },
                            '65892' => {
                                         'Class' => '64956',
                                         'Header' => 'stl_tree.h',
                                         'InLine' => 2,
                                         'Line' => '2374',
                                         'MnglName' => '_ZNSt8_Rb_treeINSt7__cxx1112basic_stringIcSt11char_traitsIcESaIcEEESt4pairIKS5_N4zeno7reflect9UniquePtrINS9_14IMetadataValueEEEESt10_Select1stISD_ESt4lessIS5_ESaISD_EE14_M_insert_nodeEPSt18_Rb_tree_node_baseSL_PSt13_Rb_tree_nodeISD_E',
                                         'Param' => {
                                                      '0' => {
                                                               'name' => 'this',
                                                               'type' => '79367'
                                                             },
                                                      '1' => {
                                                               'name' => '__x',
                                                               'type' => '20465'
                                                             },
                                                      '2' => {
                                                               'name' => '__p',
                                                               'type' => '20465'
                                                             },
                                                      '3' => {
                                                               'name' => '__z',
                                                               'type' => '65262'
                                                             }
                                                    },
                                         'Private' => 1,
                                         'Return' => '65925',
                                         'ShortName' => '_M_insert_node'
                                       },
                            '66009' => {
                                         'Class' => '64956',
                                         'Header' => 'stl_tree.h',
                                         'InLine' => 2,
                                         'Line' => '1927',
                                         'MnglName' => '_ZNSt8_Rb_treeINSt7__cxx1112basic_stringIcSt11char_traitsIcESaIcEEESt4pairIKS5_N4zeno7reflect9UniquePtrINS9_14IMetadataValueEEEESt10_Select1stISD_ESt4lessIS5_ESaISD_EE8_M_eraseEPSt13_Rb_tree_nodeISD_E',
                                         'Param' => {
                                                      '0' => {
                                                               'name' => 'this',
                                                               'type' => '79367'
                                                             },
                                                      '1' => {
                                                               'name' => '__x',
                                                               'type' => '65262'
                                                             }
                                                    },
                                         'Private' => 1,
                                         'Return' => '1',
                                         'ShortName' => '_M_erase'
                                       },
                            '66028' => {
                                         'Class' => '64956',
                                         'Header' => 'stl_tree.h',
                                         'InLine' => 2,
                                         'Line' => '1944',
                                         'MnglName' => '_ZNSt8_Rb_treeINSt7__cxx1112basic_stringIcSt11char_traitsIcESaIcEEESt4pairIKS5_N4zeno7reflect9UniquePtrINS9_14IMetadataValueEEEESt10_Select1stISD_ESt4lessIS5_ESaISD_EE14_M_lower_boundEPSt13_Rb_tree_nodeISD_EPSt18_Rb_tree_node_baseRS7_',
                                         'Param' => {
                                                      '0' => {
                                                               'name' => 'this',
                                                               'type' => '79367'
                                                             },
                                                      '1' => {
                                                               'name' => '__x',
                                                               'type' => '65262'
                                                             },
                                                      '2' => {
                                                               'name' => '__y',
                                                               'type' => '20465'
                                                             },
                                                      '3' => {
                                                               'name' => '__k',
                                                               'type' => '75359'
                                                             }
                                                    },
                                         'Private' => 1,
                                         'Return' => '65925',
                                         'ShortName' => '_M_lower_bound'
                                       },
                            '66061' => {
                                         'Class' => '64956',
                                         'Const' => 1,
                                         'Header' => 'stl_tree.h',
                                         'InLine' => 2,
                                         'Line' => '1960',
                                         'MnglName' => '_ZNKSt8_Rb_treeINSt7__cxx1112basic_stringIcSt11char_traitsIcESaIcEEESt4pairIKS5_N4zeno7reflect9UniquePtrINS9_14IMetadataValueEEEESt10_Select1stISD_ESt4lessIS5_ESaISD_EE14_M_lower_boundEPKSt13_Rb_tree_nodeISD_EPKSt18_Rb_tree_node_baseRS7_',
                                         'Param' => {
                                                      '0' => {
                                                               'name' => 'this',
                                                               'type' => '79382'
                                                             },
                                                      '1' => {
                                                               'name' => '__x',
                                                               'type' => '65504'
                                                             },
                                                      '2' => {
                                                               'name' => '__y',
                                                               'type' => '20476'
                                                             },
                                                      '3' => {
                                                               'name' => '__k',
                                                               'type' => '75359'
                                                             }
                                                    },
                                         'Private' => 1,
                                         'Return' => '65853',
                                         'ShortName' => '_M_lower_bound'
                                       },
                            '66160' => {
                                         'Class' => '64956',
                                         'Constructor' => 1,
                                         'Header' => 'stl_tree.h',
                                         'Line' => '926',
                                         'MnglName' => '_ZNSt8_Rb_treeINSt7__cxx1112basic_stringIcSt11char_traitsIcESaIcEEESt4pairIKS5_N4zeno7reflect9UniquePtrINS9_14IMetadataValueEEEESt10_Select1stISD_ESt4lessIS5_ESaISD_EEC2Ev',
                                         'Param' => {
                                                      '0' => {
                                                               'name' => 'this',
                                                               'type' => '79367'
                                                             }
                                                    },
                                         'ShortName' => '_Rb_tree'
                                       },
                            '66373' => {
                                         'Class' => '64956',
                                         'Destructor' => 1,
                                         'Header' => 'stl_tree.h',
                                         'Line' => '981',
                                         'MnglName' => '_ZNSt8_Rb_treeINSt7__cxx1112basic_stringIcSt11char_traitsIcESaIcEEESt4pairIKS5_N4zeno7reflect9UniquePtrINS9_14IMetadataValueEEEESt10_Select1stISD_ESt4lessIS5_ESaISD_EED2Ev',
                                         'Param' => {
                                                      '0' => {
                                                               'name' => 'this',
                                                               'type' => '79367'
                                                             }
                                                    },
                                         'ShortName' => '~_Rb_tree'
                                       },
                            '66409' => {
                                         'Class' => '64956',
                                         'Const' => 1,
                                         'Header' => 'stl_tree.h',
                                         'InLine' => 2,
                                         'Line' => '989',
                                         'MnglName' => '_ZNKSt8_Rb_treeINSt7__cxx1112basic_stringIcSt11char_traitsIcESaIcEEESt4pairIKS5_N4zeno7reflect9UniquePtrINS9_14IMetadataValueEEEESt10_Select1stISD_ESt4lessIS5_ESaISD_EE8key_compEv',
                                         'Param' => {
                                                      '0' => {
                                                               'name' => 'this',
                                                               'type' => '79382'
                                                             }
                                                    },
                                         'Return' => '64253',
                                         'ShortName' => 'key_comp'
                                       },
                            '66428' => {
                                         'Class' => '64956',
                                         'Header' => 'stl_tree.h',
                                         'InLine' => 2,
                                         'Line' => '993',
                                         'MnglName' => '_ZNSt8_Rb_treeINSt7__cxx1112basic_stringIcSt11char_traitsIcESaIcEEESt4pairIKS5_N4zeno7reflect9UniquePtrINS9_14IMetadataValueEEEESt10_Select1stISD_ESt4lessIS5_ESaISD_EE5beginEv',
                                         'Param' => {
                                                      '0' => {
                                                               'name' => 'this',
                                                               'type' => '79367'
                                                             }
                                                    },
                                         'Return' => '65925',
                                         'ShortName' => 'begin'
                                       },
                            '66464' => {
                                         'Class' => '64956',
                                         'Header' => 'stl_tree.h',
                                         'InLine' => 2,
                                         'Line' => '1001',
                                         'MnglName' => '_ZNSt8_Rb_treeINSt7__cxx1112basic_stringIcSt11char_traitsIcESaIcEEESt4pairIKS5_N4zeno7reflect9UniquePtrINS9_14IMetadataValueEEEESt10_Select1stISD_ESt4lessIS5_ESaISD_EE3endEv',
                                         'Param' => {
                                                      '0' => {
                                                               'name' => 'this',
                                                               'type' => '79367'
                                                             }
                                                    },
                                         'Return' => '65925',
                                         'ShortName' => 'end'
                                       },
                            '66482' => {
                                         'Class' => '64956',
                                         'Const' => 1,
                                         'Header' => 'stl_tree.h',
                                         'InLine' => 2,
                                         'Line' => '1005',
                                         'MnglName' => '_ZNKSt8_Rb_treeINSt7__cxx1112basic_stringIcSt11char_traitsIcESaIcEEESt4pairIKS5_N4zeno7reflect9UniquePtrINS9_14IMetadataValueEEEESt10_Select1stISD_ESt4lessIS5_ESaISD_EE3endEv',
                                         'Param' => {
                                                      '0' => {
                                                               'name' => 'this',
                                                               'type' => '79382'
                                                             }
                                                    },
                                         'Return' => '65853',
                                         'ShortName' => 'end'
                                       },
                            '66611' => {
                                         'Class' => '64956',
                                         'Const' => 1,
                                         'Header' => 'stl_tree.h',
                                         'InLine' => 2,
                                         'Line' => '1029',
                                         'MnglName' => '_ZNKSt8_Rb_treeINSt7__cxx1112basic_stringIcSt11char_traitsIcESaIcEEESt4pairIKS5_N4zeno7reflect9UniquePtrINS9_14IMetadataValueEEEESt10_Select1stISD_ESt4lessIS5_ESaISD_EE4sizeEv',
                                         'Param' => {
                                                      '0' => {
                                                               'name' => 'this',
                                                               'type' => '79382'
                                                             }
                                                    },
                                         'Return' => '19738',
                                         'ShortName' => 'size'
                                       },
                            '66858' => {
                                         'Class' => '64956',
                                         'Const' => 1,
                                         'Header' => 'stl_tree.h',
                                         'InLine' => 2,
                                         'Line' => '2539',
                                         'MnglName' => '_ZNKSt8_Rb_treeINSt7__cxx1112basic_stringIcSt11char_traitsIcESaIcEEESt4pairIKS5_N4zeno7reflect9UniquePtrINS9_14IMetadataValueEEEESt10_Select1stISD_ESt4lessIS5_ESaISD_EE4findERS7_',
                                         'Param' => {
                                                      '0' => {
                                                               'name' => 'this',
                                                               'type' => '79382'
                                                             },
                                                      '1' => {
                                                               'name' => '__k',
                                                               'type' => '79460'
                                                             }
                                                    },
                                         'Return' => '65853',
                                         'ShortName' => 'find'
                                       },
                            '66905' => {
                                         'Class' => '64956',
                                         'Header' => 'stl_tree.h',
                                         'InLine' => 2,
                                         'Line' => '1266',
                                         'MnglName' => '_ZNSt8_Rb_treeINSt7__cxx1112basic_stringIcSt11char_traitsIcESaIcEEESt4pairIKS5_N4zeno7reflect9UniquePtrINS9_14IMetadataValueEEEESt10_Select1stISD_ESt4lessIS5_ESaISD_EE11lower_boundERS7_',
                                         'Param' => {
                                                      '0' => {
                                                               'name' => 'this',
                                                               'type' => '79367'
                                                             },
                                                      '1' => {
                                                               'name' => '__k',
                                                               'type' => '79460'
                                                             }
                                                    },
                                         'Return' => '65925',
                                         'ShortName' => 'lower_bound'
                                       },
                            '67393' => {
                                         'Class' => '67363',
                                         'Destructor' => 1,
                                         'Header' => 'stl_tree.h',
                                         'Line' => '1636',
                                         'MnglName' => '_ZNSt8_Rb_treeINSt7__cxx1112basic_stringIcSt11char_traitsIcESaIcEEESt4pairIKS5_N4zeno7reflect9UniquePtrINS9_14IMetadataValueEEEESt10_Select1stISD_ESt4lessIS5_ESaISD_EE10_Auto_nodeD2Ev',
                                         'Param' => {
                                                      '0' => {
                                                               'name' => 'this',
                                                               'type' => '81098'
                                                             }
                                                    },
                                         'ShortName' => '~_Auto_node'
                                       },
                            '67422' => {
                                         'Class' => '67363',
                                         'Const' => 1,
                                         'Header' => 'stl_tree.h',
                                         'InLine' => 2,
                                         'Line' => '1647',
                                         'MnglName' => '_ZNKSt8_Rb_treeINSt7__cxx1112basic_stringIcSt11char_traitsIcESaIcEEESt4pairIKS5_N4zeno7reflect9UniquePtrINS9_14IMetadataValueEEEESt10_Select1stISD_ESt4lessIS5_ESaISD_EE10_Auto_node6_M_keyEv',
                                         'Param' => {
                                                      '0' => {
                                                               'name' => 'this',
                                                               'type' => '81109'
                                                             }
                                                    },
                                         'Return' => '75359',
                                         'ShortName' => '_M_key'
                                       },
                            '67440' => {
                                         'Class' => '67363',
                                         'Header' => 'stl_tree.h',
                                         'InLine' => 2,
                                         'Line' => '1651',
                                         'MnglName' => '_ZNSt8_Rb_treeINSt7__cxx1112basic_stringIcSt11char_traitsIcESaIcEEESt4pairIKS5_N4zeno7reflect9UniquePtrINS9_14IMetadataValueEEEESt10_Select1stISD_ESt4lessIS5_ESaISD_EE10_Auto_node9_M_insertES6_IPSt18_Rb_tree_node_baseSM_E',
                                         'Param' => {
                                                      '0' => {
                                                               'name' => 'this',
                                                               'type' => '81098'
                                                             },
                                                      '1' => {
                                                               'name' => '__p',
                                                               'type' => '14216'
                                                             }
                                                    },
                                         'Return' => '65925',
                                         'ShortName' => '_M_insert'
                                       },
                            '67481' => {
                                         'Class' => '67363',
                                         'Constructor' => 1,
                                         'Header' => 'stl_tree.h',
                                         'Line' => '1631',
                                         'MnglName' => '_ZNSt8_Rb_treeINSt7__cxx1112basic_stringIcSt11char_traitsIcESaIcEEESt4pairIKS5_N4zeno7reflect9UniquePtrINS9_14IMetadataValueEEEESt10_Select1stISD_ESt4lessIS5_ESaISD_EE10_Auto_nodeC2IJRKSt21piecewise_construct_tSt5tupleIJOS5_EESP_IJOSC_EEEEERSJ_DpOT_',
                                         'Param' => {
                                                      '0' => {
                                                               'name' => 'this',
                                                               'type' => '81098'
                                                             },
                                                      '1' => {
                                                               'name' => '__t',
                                                               'type' => '79586'
                                                             },
                                                      '2' => {
                                                               'name' => '__args',
                                                               'type' => '23644'
                                                             },
                                                      '3' => {
                                                               'name' => '__args',
                                                               'type' => '79936'
                                                             },
                                                      '4' => {
                                                               'name' => '__args',
                                                               'type' => '80014'
                                                             }
                                                    },
                                         'ShortName' => '_Auto_node<std::piecewise_construct_t const&>',
                                         'TParam' => {
                                                       '0' => {
                                                                'key' => undef,
                                                                'type' => '23644'
                                                              }
                                                     }
                                       },
                            '67533' => {
                                         'Class' => '64956',
                                         'Header' => 'stl_tree.h',
                                         'InLine' => 2,
                                         'Line' => '2455',
                                         'MnglName' => '_ZNSt8_Rb_treeINSt7__cxx1112basic_stringIcSt11char_traitsIcESaIcEEESt4pairIKS5_N4zeno7reflect9UniquePtrINS9_14IMetadataValueEEEESt10_Select1stISD_ESt4lessIS5_ESaISD_EE22_M_emplace_hint_uniqueIJRKSt21piecewise_construct_tSt5tupleIJOS5_EESO_IJOSC_EEEEESt17_Rb_tree_iteratorISD_ESt23_Rb_tree_const_iteratorISD_EDpOT_',
                                         'Param' => {
                                                      '0' => {
                                                               'name' => 'this',
                                                               'type' => '79367'
                                                             },
                                                      '1' => {
                                                               'name' => '__pos',
                                                               'type' => '65853'
                                                             },
                                                      '2' => {
                                                               'name' => '__args',
                                                               'type' => '23644'
                                                             },
                                                      '3' => {
                                                               'name' => '__args',
                                                               'type' => '79936'
                                                             },
                                                      '4' => {
                                                               'name' => '__args',
                                                               'type' => '80014'
                                                             }
                                                    },
                                         'Return' => '65925',
                                         'ShortName' => '_M_emplace_hint_unique<std::piecewise_construct_t const&>',
                                         'TParam' => {
                                                       '0' => {
                                                                'key' => undef,
                                                                'type' => '23644'
                                                              }
                                                     }
                                       },
                            '67591' => {
                                         'Class' => '64956',
                                         'Header' => 'stl_tree.h',
                                         'InLine' => 2,
                                         'Line' => '607',
                                         'MnglName' => '_ZNSt8_Rb_treeINSt7__cxx1112basic_stringIcSt11char_traitsIcESaIcEEESt4pairIKS5_N4zeno7reflect9UniquePtrINS9_14IMetadataValueEEEESt10_Select1stISD_ESt4lessIS5_ESaISD_EE14_M_create_nodeIJRKSt21piecewise_construct_tSt5tupleIJOS5_EESO_IJOSC_EEEEEPSt13_Rb_tree_nodeISD_EDpOT_',
                                         'Param' => {
                                                      '0' => {
                                                               'name' => 'this',
                                                               'type' => '79367'
                                                             },
                                                      '1' => {
                                                               'name' => '__args',
                                                               'type' => '23644'
                                                             },
                                                      '2' => {
                                                               'name' => '__args',
                                                               'type' => '79936'
                                                             },
                                                      '3' => {
                                                               'name' => '__args',
                                                               'type' => '80014'
                                                             }
                                                    },
                                         'Protected' => 1,
                                         'Return' => '65262',
                                         'ShortName' => '_M_create_node<std::piecewise_construct_t const&>',
                                         'TParam' => {
                                                       '0' => {
                                                                'key' => undef,
                                                                'type' => '23644'
                                                              }
                                                     }
                                       },
                            '67644' => {
                                         'Class' => '64956',
                                         'Header' => 'stl_tree.h',
                                         'InLine' => 2,
                                         'Line' => '588',
                                         'MnglName' => '_ZNSt8_Rb_treeINSt7__cxx1112basic_stringIcSt11char_traitsIcESaIcEEESt4pairIKS5_N4zeno7reflect9UniquePtrINS9_14IMetadataValueEEEESt10_Select1stISD_ESt4lessIS5_ESaISD_EE17_M_construct_nodeIJRKSt21piecewise_construct_tSt5tupleIJOS5_EESO_IJOSC_EEEEEvPSt13_Rb_tree_nodeISD_EDpOT_',
                                         'Param' => {
                                                      '0' => {
                                                               'name' => 'this',
                                                               'type' => '79367'
                                                             },
                                                      '1' => {
                                                               'name' => '__node',
                                                               'type' => '65262'
                                                             },
                                                      '2' => {
                                                               'name' => '__args',
                                                               'type' => '23644'
                                                             },
                                                      '3' => {
                                                               'name' => '__args',
                                                               'type' => '79936'
                                                             },
                                                      '4' => {
                                                               'name' => '__args',
                                                               'type' => '80014'
                                                             }
                                                    },
                                         'Protected' => 1,
                                         'Return' => '1',
                                         'ShortName' => '_M_construct_node<std::piecewise_construct_t const&>',
                                         'TParam' => {
                                                       '0' => {
                                                                'key' => undef,
                                                                'type' => '23644'
                                                              }
                                                     }
                                       },
                            '67743' => {
                                         'Class' => '67699',
                                         'Const' => 1,
                                         'Header' => 'stl_function.h',
                                         'InLine' => 2,
                                         'Line' => '1179',
                                         'MnglName' => '_ZNKSt10_Select1stISt4pairIKNSt7__cxx1112basic_stringIcSt11char_traitsIcESaIcEEEN4zeno7reflect9UniquePtrINS9_14IMetadataValueEEEEEclERKSD_',
                                         'Param' => {
                                                      '0' => {
                                                               'name' => 'this',
                                                               'type' => '79138'
                                                             },
                                                      '1' => {
                                                               'name' => '__x',
                                                               'type' => '79062'
                                                             }
                                                    },
                                         'Return' => '79148',
                                         'ShortName' => 'operator()'
                                       },
                            '67977' => {
                                         'Class' => '67947',
                                         'Header' => 'stl_tree.h',
                                         'InLine' => 2,
                                         'Line' => '230',
                                         'MnglName' => '_ZNSt13_Rb_tree_nodeISt4pairIKNSt7__cxx1112basic_stringIcSt11char_traitsIcESaIcEEEN4zeno7reflect9UniquePtrINS9_14IMetadataValueEEEEE9_M_valptrEv',
                                         'Param' => {
                                                      '0' => {
                                                               'name' => 'this',
                                                               'type' => '79228'
                                                             }
                                                    },
                                         'Return' => '79057',
                                         'ShortName' => '_M_valptr'
                                       },
                            '67994' => {
                                         'Class' => '67947',
                                         'Const' => 1,
                                         'Header' => 'stl_tree.h',
                                         'InLine' => 2,
                                         'Line' => '234',
                                         'MnglName' => '_ZNKSt13_Rb_tree_nodeISt4pairIKNSt7__cxx1112basic_stringIcSt11char_traitsIcESaIcEEEN4zeno7reflect9UniquePtrINS9_14IMetadataValueEEEEE9_M_valptrEv',
                                         'Param' => {
                                                      '0' => {
                                                               'name' => 'this',
                                                               'type' => '79233'
                                                             }
                                                    },
                                         'Return' => '79223',
                                         'ShortName' => '_M_valptr'
                                       },
                            '68343' => {
                                         'Class' => '68281',
                                         'Header' => 'new_allocator.h',
                                         'InLine' => 2,
                                         'Line' => '126',
                                         'MnglName' => '_ZNSt15__new_allocatorISt13_Rb_tree_nodeISt4pairIKNSt7__cxx1112basic_stringIcSt11char_traitsIcESaIcEEEN4zeno7reflect9UniquePtrINSA_14IMetadataValueEEEEEE8allocateEmPKv',
                                         'Param' => {
                                                      '0' => {
                                                               'name' => 'this',
                                                               'type' => '79243'
                                                             },
                                                      '1' => {
                                                               'name' => '__n',
                                                               'type' => '19738'
                                                             },
                                                      '2' => {
                                                               'name' => 'p2',
                                                               'type' => '1950'
                                                             }
                                                    },
                                         'Return' => '79228',
                                         'ShortName' => 'allocate'
                                       },
                            '68370' => {
                                         'Class' => '68281',
                                         'Header' => 'new_allocator.h',
                                         'InLine' => 2,
                                         'Line' => '156',
                                         'MnglName' => '_ZNSt15__new_allocatorISt13_Rb_tree_nodeISt4pairIKNSt7__cxx1112basic_stringIcSt11char_traitsIcESaIcEEEN4zeno7reflect9UniquePtrINSA_14IMetadataValueEEEEEE10deallocateEPSF_m',
                                         'Param' => {
                                                      '0' => {
                                                               'name' => 'this',
                                                               'type' => '79243'
                                                             },
                                                      '1' => {
                                                               'name' => '__p',
                                                               'type' => '79228'
                                                             },
                                                      '2' => {
                                                               'name' => '__n',
                                                               'type' => '19738'
                                                             }
                                                    },
                                         'Return' => '1',
                                         'ShortName' => 'deallocate'
                                       },
                            '68434' => {
                                         'Class' => '68410',
                                         'Constructor' => 1,
                                         'Header' => 'stl_tree.h',
                                         'Line' => '142',
                                         'MnglName' => '_ZNSt20_Rb_tree_key_compareISt4lessINSt7__cxx1112basic_stringIcSt11char_traitsIcESaIcEEEEEC2Ev',
                                         'Param' => {
                                                      '0' => {
                                                               'name' => 'this',
                                                               'type' => '79293'
                                                             }
                                                    },
                                         'ShortName' => '_Rb_tree_key_compare'
                                       },
                            '68818' => {
                                         'Class' => '14216',
                                         'Constructor' => 1,
                                         'Header' => 'stl_pair.h',
                                         'Line' => '442',
                                         'MnglName' => '_ZNSt4pairIPSt18_Rb_tree_node_baseS1_EC2IRPSt13_Rb_tree_nodeIS_IKNSt7__cxx1112basic_stringIcSt11char_traitsIcESaIcEEEN4zeno7reflect9UniquePtrINSD_14IMetadataValueEEEEERS1_Qaacl16_S_constructibleITL0__TL0_0_EEntcl10_S_danglesISM_SN_EEEEOT_OT0_',
                                         'Param' => {
                                                      '0' => {
                                                               'name' => 'this',
                                                               'type' => '20492'
                                                             },
                                                      '1' => {
                                                               'name' => '__x',
                                                               'type' => '88970'
                                                             },
                                                      '2' => {
                                                               'name' => '__y',
                                                               'type' => '25701'
                                                             }
                                                    },
                                         'ShortName' => 'pair<std::_Rb_tree_node<std::pair<std::__cxx11::basic_string<char>const, zeno::reflect::UniquePtr<zeno::reflect::IMetadataValue> > >*&, std::_Rb_tree_node_base*&>',
                                         'TParam' => {
                                                       '0' => {
                                                                'key' => '_U1',
                                                                'type' => '88970'
                                                              },
                                                       '1' => {
                                                                'key' => '_U2',
                                                                'type' => '25701'
                                                              }
                                                     }
                                       },
                            '68915' => {
                                         'Class' => '68878',
                                         'Constructor' => 1,
                                         'Header' => 'stl_tree.h',
                                         'Line' => '343',
                                         'MnglName' => '_ZNSt23_Rb_tree_const_iteratorISt4pairIKNSt7__cxx1112basic_stringIcSt11char_traitsIcESaIcEEEN4zeno7reflect9UniquePtrINS9_14IMetadataValueEEEEEC2EPKSt18_Rb_tree_node_base',
                                         'Param' => {
                                                      '0' => {
                                                               'name' => 'this',
                                                               'type' => '79480'
                                                             },
                                                      '1' => {
                                                               'name' => '__x',
                                                               'type' => '20465'
                                                             }
                                                    },
                                         'ShortName' => '_Rb_tree_const_iterator'
                                       },
                            '68932' => {
                                         'Class' => '68878',
                                         'Constructor' => 1,
                                         'Header' => 'stl_tree.h',
                                         'Line' => '346',
                                         'MnglName' => '_ZNSt23_Rb_tree_const_iteratorISt4pairIKNSt7__cxx1112basic_stringIcSt11char_traitsIcESaIcEEEN4zeno7reflect9UniquePtrINS9_14IMetadataValueEEEEEC2ERKSt17_Rb_tree_iteratorISD_E',
                                         'Param' => {
                                                      '0' => {
                                                               'name' => 'this',
                                                               'type' => '79480'
                                                             },
                                                      '1' => {
                                                               'name' => '__it',
                                                               'type' => '79485'
                                                             }
                                                    },
                                         'ShortName' => '_Rb_tree_const_iterator'
                                       },
                            '68958' => {
                                         'Class' => '68878',
                                         'Const' => 1,
                                         'Header' => 'stl_tree.h',
                                         'InLine' => 2,
                                         'Line' => '350',
                                         'MnglName' => '_ZNKSt23_Rb_tree_const_iteratorISt4pairIKNSt7__cxx1112basic_stringIcSt11char_traitsIcESaIcEEEN4zeno7reflect9UniquePtrINS9_14IMetadataValueEEEEE13_M_const_castEv',
                                         'Param' => {
                                                      '0' => {
                                                               'name' => 'this',
                                                               'type' => '79525'
                                                             }
                                                    },
                                         'Return' => '68949',
                                         'ShortName' => '_M_const_cast'
                                       },
                            '69004' => {
                                         'Class' => '68878',
                                         'Const' => 1,
                                         'Header' => 'stl_tree.h',
                                         'InLine' => 2,
                                         'Line' => '358',
                                         'MnglName' => '_ZNKSt23_Rb_tree_const_iteratorISt4pairIKNSt7__cxx1112basic_stringIcSt11char_traitsIcESaIcEEEN4zeno7reflect9UniquePtrINS9_14IMetadataValueEEEEEptEv',
                                         'Param' => {
                                                      '0' => {
                                                               'name' => 'this',
                                                               'type' => '79525'
                                                             }
                                                    },
                                         'Return' => '69022',
                                         'ShortName' => 'operator->'
                                       },
                            '69170' => {
                                         'Class' => '69134',
                                         'Constructor' => 1,
                                         'Header' => 'stl_tree.h',
                                         'Line' => '269',
                                         'MnglName' => '_ZNSt17_Rb_tree_iteratorISt4pairIKNSt7__cxx1112basic_stringIcSt11char_traitsIcESaIcEEEN4zeno7reflect9UniquePtrINS9_14IMetadataValueEEEEEC2EPSt18_Rb_tree_node_base',
                                         'Param' => {
                                                      '0' => {
                                                               'name' => 'this',
                                                               'type' => '79505'
                                                             },
                                                      '1' => {
                                                               'name' => '__x',
                                                               'type' => '20465'
                                                             }
                                                    },
                                         'ShortName' => '_Rb_tree_iterator'
                                       },
                            '69187' => {
                                         'Class' => '69134',
                                         'Const' => 1,
                                         'Header' => 'stl_tree.h',
                                         'InLine' => 2,
                                         'Line' => '273',
                                         'MnglName' => '_ZNKSt17_Rb_tree_iteratorISt4pairIKNSt7__cxx1112basic_stringIcSt11char_traitsIcESaIcEEEN4zeno7reflect9UniquePtrINS9_14IMetadataValueEEEEEdeEv',
                                         'Param' => {
                                                      '0' => {
                                                               'name' => 'this',
                                                               'type' => '79510'
                                                             }
                                                    },
                                         'Return' => '69205',
                                         'ShortName' => 'operator*'
                                       },
                            '69241' => {
                                         'Class' => '69134',
                                         'Header' => 'stl_tree.h',
                                         'InLine' => 2,
                                         'Line' => '281',
                                         'MnglName' => '_ZNSt17_Rb_tree_iteratorISt4pairIKNSt7__cxx1112basic_stringIcSt11char_traitsIcESaIcEEEN4zeno7reflect9UniquePtrINS9_14IMetadataValueEEEEEppEv',
                                         'Param' => {
                                                      '0' => {
                                                               'name' => 'this',
                                                               'type' => '79505'
                                                             }
                                                    },
                                         'Return' => '79520',
                                         'ShortName' => 'operator++'
                                       },
                            '69292' => {
                                         'Class' => '69134',
                                         'Header' => 'stl_tree.h',
                                         'InLine' => 2,
                                         'Line' => '296',
                                         'MnglName' => '_ZNSt17_Rb_tree_iteratorISt4pairIKNSt7__cxx1112basic_stringIcSt11char_traitsIcESaIcEEEN4zeno7reflect9UniquePtrINS9_14IMetadataValueEEEEEmmEv',
                                         'Param' => {
                                                      '0' => {
                                                               'name' => 'this',
                                                               'type' => '79505'
                                                             }
                                                    },
                                         'Return' => '79520',
                                         'ShortName' => 'operator--'
                                       },
                            '69794' => {
                                         'Class' => '69592',
                                         'Constructor' => 1,
                                         'Header' => 'stl_pair.h',
                                         'Line' => '442',
                                         'MnglName' => '_ZNSt4pairISt17_Rb_tree_iteratorIS_IKNSt7__cxx1112basic_stringIcSt11char_traitsIcESaIcEEEN4zeno7reflect9UniquePtrINS9_14IMetadataValueEEEEEbEC2IRSE_bQaacl16_S_constructibleITL0__TL0_0_EEntcl10_S_danglesISI_SJ_EEEEOT_OT0_',
                                         'Param' => {
                                                      '0' => {
                                                               'name' => 'this',
                                                               'type' => '79695'
                                                             },
                                                      '1' => {
                                                               'name' => '__x',
                                                               'type' => '86358'
                                                             },
                                                      '2' => {
                                                               'name' => '__y',
                                                               'type' => '23797'
                                                             }
                                                    },
                                         'ShortName' => 'pair<std::_Rb_tree_iterator<std::pair<std::__cxx11::basic_string<char>const, zeno::reflect::UniquePtr<zeno::reflect::IMetadataValue> > >&, bool>',
                                         'TParam' => {
                                                       '0' => {
                                                                'key' => '_U1',
                                                                'type' => '86358'
                                                              },
                                                       '1' => {
                                                                'key' => '_U2',
                                                                'type' => '19466'
                                                              }
                                                     }
                                       },
                            '70227' => {
                                         'Class' => '70154',
                                         'Constructor' => 1,
                                         'Header' => 'tuple',
                                         'Line' => '995',
                                         'MnglName' => '_ZNSt5tupleIJONSt7__cxx1112basic_stringIcSt11char_traitsIcESaIcEEEEEC2EOS7_',
                                         'Param' => {
                                                      '0' => {
                                                               'name' => 'this',
                                                               'type' => '79921'
                                                             },
                                                      '1' => {
                                                               'name' => 'p1',
                                                               'type' => '79936'
                                                             }
                                                    },
                                         'ShortName' => 'tuple'
                                       },
                            '70333' => {
                                         'Class' => '70154',
                                         'Constructor' => 1,
                                         'Header' => 'tuple',
                                         'Line' => '982',
                                         'MnglName' => '_ZNSt5tupleIJONSt7__cxx1112basic_stringIcSt11char_traitsIcESaIcEEEEEC2IJS5_EQaaaacl27__disambiguating_constraintIDpTL0__EEcl15__constructibleISA_EEntcl9__danglesISA_EEEEDpOT_',
                                         'Param' => {
                                                      '0' => {
                                                               'name' => 'this',
                                                               'type' => '79921'
                                                             },
                                                      '1' => {
                                                               'name' => '__u',
                                                               'type' => '75364'
                                                             }
                                                    },
                                         'ShortName' => 'tuple<std::__cxx11::basic_string<char> >',
                                         'TParam' => {
                                                       '0' => {
                                                                'key' => undef,
                                                                'type' => '55562'
                                                              }
                                                     }
                                       },
                            '70393' => {
                                         'Class' => '70361',
                                         'Header' => 'tuple',
                                         'InLine' => 2,
                                         'Line' => '556',
                                         'MnglName' => '_ZNSt11_Tuple_implILm0EJONSt7__cxx1112basic_stringIcSt11char_traitsIcESaIcEEEEE7_M_headERS7_',
                                         'Param' => {
                                                      '0' => {
                                                               'name' => '__t',
                                                               'type' => '79895'
                                                             }
                                                    },
                                         'Return' => '75370',
                                         'ShortName' => '_M_head',
                                         'Static' => 1
                                       },
                            '70497' => {
                                         'Class' => '70361',
                                         'Constructor' => 1,
                                         'Header' => 'tuple',
                                         'Line' => '586',
                                         'MnglName' => '_ZNSt11_Tuple_implILm0EJONSt7__cxx1112basic_stringIcSt11char_traitsIcESaIcEEEEEC2EOS7_',
                                         'Param' => {
                                                      '0' => {
                                                               'name' => 'this',
                                                               'type' => '79910'
                                                             },
                                                      '1' => {
                                                               'name' => '__in',
                                                               'type' => '79915'
                                                             }
                                                    },
                                         'ShortName' => '_Tuple_impl'
                                       },
                            '70534' => {
                                         'Class' => '70361',
                                         'Constructor' => 1,
                                         'Header' => 'tuple',
                                         'Line' => '572',
                                         'MnglName' => '_ZNSt11_Tuple_implILm0EJONSt7__cxx1112basic_stringIcSt11char_traitsIcESaIcEEEEEC2IS5_EEOT_',
                                         'Param' => {
                                                      '0' => {
                                                               'name' => 'this',
                                                               'type' => '79910'
                                                             },
                                                      '1' => {
                                                               'name' => '__head',
                                                               'type' => '75364'
                                                             }
                                                    },
                                         'ShortName' => '_Tuple_impl<std::__cxx11::basic_string<char> >',
                                         'TParam' => {
                                                       '0' => {
                                                                'key' => '_UHead',
                                                                'type' => '55562'
                                                              }
                                                     }
                                       },
                            '70677' => {
                                         'Class' => '70559',
                                         'Header' => 'tuple',
                                         'InLine' => 2,
                                         'Line' => '242',
                                         'MnglName' => '_ZNSt10_Head_baseILm0EONSt7__cxx1112basic_stringIcSt11char_traitsIcESaIcEEELb0EE7_M_headERS7_',
                                         'Param' => {
                                                      '0' => {
                                                               'name' => '__b',
                                                               'type' => '79890'
                                                             }
                                                    },
                                         'Return' => '75370',
                                         'ShortName' => '_M_head',
                                         'Static' => 1
                                       },
                            '70711' => {
                                         'Class' => '70559',
                                         'Constructor' => 1,
                                         'Header' => 'tuple',
                                         'Line' => '208',
                                         'MnglName' => '_ZNSt10_Head_baseILm0EONSt7__cxx1112basic_stringIcSt11char_traitsIcESaIcEEELb0EEC2IS5_EEOT_',
                                         'Param' => {
                                                      '0' => {
                                                               'name' => 'this',
                                                               'type' => '79859'
                                                             },
                                                      '1' => {
                                                               'name' => '__h',
                                                               'type' => '75364'
                                                             }
                                                    },
                                         'ShortName' => '_Head_base<std::__cxx11::basic_string<char> >',
                                         'TParam' => {
                                                       '0' => {
                                                                'key' => '_UHead',
                                                                'type' => '55562'
                                                              }
                                                     }
                                       },
                            '70883' => {
                                         'Class' => '70810',
                                         'Constructor' => 1,
                                         'Header' => 'tuple',
                                         'Line' => '995',
                                         'MnglName' => '_ZNSt5tupleIJON4zeno7reflect9UniquePtrINS1_14IMetadataValueEEEEEC2EOS6_',
                                         'Param' => {
                                                      '0' => {
                                                               'name' => 'this',
                                                               'type' => '79999'
                                                             },
                                                      '1' => {
                                                               'name' => 'p1',
                                                               'type' => '80014'
                                                             }
                                                    },
                                         'ShortName' => 'tuple'
                                       },
                            '70989' => {
                                         'Class' => '70810',
                                         'Constructor' => 1,
                                         'Header' => 'tuple',
                                         'Line' => '982',
                                         'MnglName' => '_ZNSt5tupleIJON4zeno7reflect9UniquePtrINS1_14IMetadataValueEEEEEC2IJS4_EQaaaacl27__disambiguating_constraintIDpTL0__EEcl15__constructibleIS9_EEntcl9__danglesIS9_EEEEDpOT_',
                                         'Param' => {
                                                      '0' => {
                                                               'name' => 'this',
                                                               'type' => '79999'
                                                             },
                                                      '1' => {
                                                               'name' => '__u',
                                                               'type' => '78997'
                                                             }
                                                    },
                                         'ShortName' => 'tuple<zeno::reflect::UniquePtr<zeno::reflect::IMetadataValue> >',
                                         'TParam' => {
                                                       '0' => {
                                                                'key' => undef,
                                                                'type' => '76487'
                                                              }
                                                     }
                                       },
                            '71049' => {
                                         'Class' => '71017',
                                         'Header' => 'tuple',
                                         'InLine' => 2,
                                         'Line' => '556',
                                         'MnglName' => '_ZNSt11_Tuple_implILm0EJON4zeno7reflect9UniquePtrINS1_14IMetadataValueEEEEE7_M_headERS6_',
                                         'Param' => {
                                                      '0' => {
                                                               'name' => '__t',
                                                               'type' => '79973'
                                                             }
                                                    },
                                         'Return' => '78992',
                                         'ShortName' => '_M_head',
                                         'Static' => 1
                                       },
                            '71153' => {
                                         'Class' => '71017',
                                         'Constructor' => 1,
                                         'Header' => 'tuple',
                                         'Line' => '586',
                                         'MnglName' => '_ZNSt11_Tuple_implILm0EJON4zeno7reflect9UniquePtrINS1_14IMetadataValueEEEEEC2EOS6_',
                                         'Param' => {
                                                      '0' => {
                                                               'name' => 'this',
                                                               'type' => '79988'
                                                             },
                                                      '1' => {
                                                               'name' => '__in',
                                                               'type' => '79993'
                                                             }
                                                    },
                                         'ShortName' => '_Tuple_impl'
                                       },
                            '71190' => {
                                         'Class' => '71017',
                                         'Constructor' => 1,
                                         'Header' => 'tuple',
                                         'Line' => '572',
                                         'MnglName' => '_ZNSt11_Tuple_implILm0EJON4zeno7reflect9UniquePtrINS1_14IMetadataValueEEEEEC2IS4_EEOT_',
                                         'Param' => {
                                                      '0' => {
                                                               'name' => 'this',
                                                               'type' => '79988'
                                                             },
                                                      '1' => {
                                                               'name' => '__head',
                                                               'type' => '78997'
                                                             }
                                                    },
                                         'ShortName' => '_Tuple_impl<zeno::reflect::UniquePtr<zeno::reflect::IMetadataValue> >',
                                         'TParam' => {
                                                       '0' => {
                                                                'key' => '_UHead',
                                                                'type' => '76487'
                                                              }
                                                     }
                                       },
                            '71333' => {
                                         'Class' => '71215',
                                         'Header' => 'tuple',
                                         'InLine' => 2,
                                         'Line' => '242',
                                         'MnglName' => '_ZNSt10_Head_baseILm0EON4zeno7reflect9UniquePtrINS1_14IMetadataValueEEELb0EE7_M_headERS6_',
                                         'Param' => {
                                                      '0' => {
                                                               'name' => '__b',
                                                               'type' => '79968'
                                                             }
                                                    },
                                         'Return' => '78992',
                                         'ShortName' => '_M_head',
                                         'Static' => 1
                                       },
                            '71367' => {
                                         'Class' => '71215',
                                         'Constructor' => 1,
                                         'Header' => 'tuple',
                                         'Line' => '208',
                                         'MnglName' => '_ZNSt10_Head_baseILm0EON4zeno7reflect9UniquePtrINS1_14IMetadataValueEEELb0EEC2IS4_EEOT_',
                                         'Param' => {
                                                      '0' => {
                                                               'name' => 'this',
                                                               'type' => '79947'
                                                             },
                                                      '1' => {
                                                               'name' => '__h',
                                                               'type' => '78997'
                                                             }
                                                    },
                                         'ShortName' => '_Head_base<zeno::reflect::UniquePtr<zeno::reflect::IMetadataValue> >',
                                         'TParam' => {
                                                       '0' => {
                                                                'key' => '_UHead',
                                                                'type' => '76487'
                                                              }
                                                     }
                                       },
                            '71463' => {
                                         'Class' => '71391',
                                         'Constructor' => 1,
                                         'Header' => 'initializer_list',
                                         'Line' => '64',
                                         'MnglName' => '_ZNSt16initializer_listIN4zeno7reflect9UniquePtrINS1_14IMetadataValueEEEEC2Ev',
                                         'Param' => {
                                                      '0' => {
                                                               'name' => 'this',
                                                               'type' => '80402'
                                                             }
                                                    },
                                         'ShortName' => 'initializer_list'
                                       },
                            '71475' => {
                                         'Class' => '71391',
                                         'Const' => 1,
                                         'Header' => 'initializer_list',
                                         'InLine' => 2,
                                         'Line' => '69',
                                         'MnglName' => '_ZNKSt16initializer_listIN4zeno7reflect9UniquePtrINS1_14IMetadataValueEEEE4sizeEv',
                                         'Param' => {
                                                      '0' => {
                                                               'name' => 'this',
                                                               'type' => '80407'
                                                             }
                                                    },
                                         'Return' => '19738',
                                         'ShortName' => 'size'
                                       },
                            '71492' => {
                                         'Class' => '71391',
                                         'Const' => 1,
                                         'Header' => 'initializer_list',
                                         'InLine' => 2,
                                         'Line' => '73',
                                         'MnglName' => '_ZNKSt16initializer_listIN4zeno7reflect9UniquePtrINS1_14IMetadataValueEEEE5beginEv',
                                         'Param' => {
                                                      '0' => {
                                                               'name' => 'this',
                                                               'type' => '80407'
                                                             }
                                                    },
                                         'Return' => '71454',
                                         'ShortName' => 'begin'
                                       },
                            '71509' => {
                                         'Class' => '71391',
                                         'Const' => 1,
                                         'Header' => 'initializer_list',
                                         'InLine' => 2,
                                         'Line' => '77',
                                         'MnglName' => '_ZNKSt16initializer_listIN4zeno7reflect9UniquePtrINS1_14IMetadataValueEEEE3endEv',
                                         'Param' => {
                                                      '0' => {
                                                               'name' => 'this',
                                                               'type' => '80407'
                                                             }
                                                    },
                                         'Return' => '71454',
                                         'ShortName' => 'end'
                                       },
                            '71782' => {
                                         'Header' => 'stl_construct.h',
                                         'InLine' => 2,
                                         'Line' => '80',
                                         'MnglName' => '_ZSt10destroy_atISt4pairIKNSt7__cxx1112basic_stringIcSt11char_traitsIcESaIcEEEN4zeno7reflect9UniquePtrINS9_14IMetadataValueEEEEEvPT_',
                                         'NameSpace' => 'std',
                                         'Param' => {
                                                      '0' => {
                                                               'name' => '__location',
                                                               'type' => '79057'
                                                             }
                                                    },
                                         'Return' => '1',
                                         'ShortName' => 'destroy_at<std::pair<std::__cxx11::basic_string<char>const, zeno::reflect::UniquePtr<zeno::reflect::IMetadataValue> > >',
                                         'TParam' => {
                                                       '0' => {
                                                                'key' => '_Tp',
                                                                'type' => '64457'
                                                              }
                                                     }
                                       },
                            '71842' => {
                                         'Class' => '71815',
                                         'Header' => 'ptr_traits.h',
                                         'InLine' => 2,
                                         'Line' => '134',
                                         'MnglName' => '_ZNSt19__ptr_traits_ptr_toIPKcS0_Lb0EE10pointer_toERS0_',
                                         'Param' => {
                                                      '0' => {
                                                               'name' => '__r',
                                                               'type' => '83719'
                                                             }
                                                    },
                                         'Return' => '71859',
                                         'ShortName' => 'pointer_to',
                                         'Static' => 1
                                       },
                            '71877' => {
                                         'Header' => 'stl_tree.h',
                                         'InLine' => 2,
                                         'Line' => '392',
                                         'MnglName' => '_ZSteqRKSt23_Rb_tree_const_iteratorISt4pairIKNSt7__cxx1112basic_stringIcSt11char_traitsIcESaIcEEEN4zeno7reflect9UniquePtrINS9_14IMetadataValueEEEEESG_',
                                         'NameSpace' => 'std',
                                         'Param' => {
                                                      '0' => {
                                                               'name' => '__x',
                                                               'type' => '96103'
                                                             },
                                                      '1' => {
                                                               'name' => '__y',
                                                               'type' => '96103'
                                                             }
                                                    },
                                         'Return' => '19466',
                                         'ShortName' => 'operator=='
                                       },
                            '71923' => {
                                         'Header' => 'compare',
                                         'InLine' => 2,
                                         'Line' => '291',
                                         'MnglName' => '_ZStltSt15strong_orderingNSt9__cmp_cat8__unspecE',
                                         'NameSpace' => 'std',
                                         'Param' => {
                                                      '0' => {
                                                               'name' => '__v',
                                                               'type' => '69854'
                                                             },
                                                      '1' => {
                                                               'name' => 'p2',
                                                               'type' => '62673'
                                                             }
                                                    },
                                         'Return' => '19466',
                                         'ShortName' => 'operator<'
                                       },
                            '71967' => {
                                         'Header' => 'basic_string.h',
                                         'InLine' => 2,
                                         'Line' => '3790',
                                         'MnglName' => '_ZStssIcSt11char_traitsIcESaIcEEDTclsr8__detailE21__char_traits_cmp_catIT0_ELi0EEERKNSt7__cxx1112basic_stringIT_S3_T1_EESB_',
                                         'NameSpace' => 'std',
                                         'Param' => {
                                                      '0' => {
                                                               'name' => '__lhs',
                                                               'type' => '75359'
                                                             },
                                                      '1' => {
                                                               'name' => '__rhs',
                                                               'type' => '75359'
                                                             }
                                                    },
                                         'Return' => '79803',
                                         'ShortName' => 'operator<=><char, std::char_traits<char>, std::allocator<char> >',
                                         'TParam' => {
                                                       '0' => {
                                                                'key' => '_CharT',
                                                                'type' => '2095'
                                                              },
                                                       '1' => {
                                                                'key' => '_Traits',
                                                                'type' => '60249'
                                                              },
                                                       '2' => {
                                                                'key' => '_Alloc',
                                                                'type' => '60584'
                                                              }
                                                     }
                                       },
                            '72034' => {
                                         'Header' => 'char_traits.h',
                                         'InLine' => 2,
                                         'Line' => '996',
                                         'MnglName' => '_ZNSt8__detail21__char_traits_cmp_catISt11char_traitsIcEEEDai',
                                         'NameSpace' => 'std::__detail',
                                         'Param' => {
                                                      '0' => {
                                                               'name' => '__cmp',
                                                               'type' => '1582'
                                                             }
                                                    },
                                         'Return' => '79803',
                                         'ShortName' => '__char_traits_cmp_cat<std::char_traits<char> >',
                                         'TParam' => {
                                                       '0' => {
                                                                'key' => '_ChTraits',
                                                                'type' => '60249'
                                                              }
                                                     }
                                       },
                            '72075' => {
                                         'Header' => 'stl_algobase.h',
                                         'InLine' => 2,
                                         'Line' => '233',
                                         'MnglName' => '_ZSt3minImERKT_S2_S2_',
                                         'NameSpace' => 'std',
                                         'Param' => {
                                                      '0' => {
                                                               'name' => '__a',
                                                               'type' => '19678'
                                                             },
                                                      '1' => {
                                                               'name' => '__b',
                                                               'type' => '19678'
                                                             }
                                                    },
