$VAR1 = {
          'ABI_DUMPER_VERSION' => '1.3',
          'ABI_DUMP_VERSION' => '3.5',
          'Arch' => 'x86_64',
          'GccVersion' => '14.1.1',
          'Headers' => {
                         'alloc_traits.h' => 1,
                         'allocator.h' => 1,
                         'any' => 1,
                         'arraylist' => 1,
                         'basic_string.h' => 1,
                         'basic_string.tcc' => 1,
                         'c++config.h' => 1,
                         'char_traits.h' => 1,
                         'duck' => 1,
                         'enable_if.hpp' => 1,
                         'fstream' => 1,
                         'initializer_list' => 1,
                         'ios_base.h' => 1,
                         'iosfwd' => 1,
                         'move.h' => 1,
                         'new' => 1,
                         'new_allocator.h' => 1,
                         'ptr_traits.h' => 1,
                         'serialization.hpp' => 1,
                         'stddef.h' => 1,
                         'stdint-uintn.h' => 1,
                         'stl_construct.h' => 1,
                         'stl_iterator_base_types.h' => 1,
                         'string_view' => 1,
                         'stringfwd.h' => 1,
                         'type.hpp' => 1,
                         'type_traits' => 1,
                         'typeinfo.hpp' => 1,
                         'types.h' => 1,
                         'unique_ptr' => 1
                       },
          'Language' => 'C++',
          'LibraryName' => 'libReflectSerialization.so',
          'LibraryVersion' => '1',
          'MissedOffsets' => '1',
          'MissedRegs' => '1',
          'NameSpaces' => {
                            '__gnu_cxx' => 1,
                            'std' => 1,
                            'std::__cxx11' => 1,
                            'std::__detail' => 1,
                            'std::__exception_ptr' => 1,
                            'zeno::reflect' => 1,
                            'zeno::reflect::any' => 1
                          },
          'Needed' => {
                        'libc.so.6' => 1,
                        'libgcc_s.so.1' => 1,
                        'liblibreflect.so' => 1,
                        'libm.so.6' => 1,
                        'libstdc++.so.6' => 1
                      },
          'Sources' => {
                         'binary_serialization.cpp' => 1,
                         'file_stream.cpp' => 1,
                         'serialization.cpp' => 1
                       },
          'SymbolInfo' => {
                            '100146' => {
                                          'Artificial' => 1,
                                          'Class' => '5196',
                                          'Destructor' => 1,
                                          'Header' => 'basic_string.h',
                                          'InLine' => 1,
                                          'Line' => '808',
                                          'MnglName' => '_ZNSt7__cxx1112basic_stringIcSt11char_traitsIcESaIcEED2Ev',
                                          'Param' => {
                                                       '0' => {
                                                                'name' => 'this',
                                                                'type' => '59782'
                                                              }
                                                     },
                                          'ShortName' => 'basic_string'
                                        },
                            '100147' => {
                                          'Artificial' => 1,
                                          'Class' => '5196',
                                          'Destructor' => 1,
                                          'Header' => 'basic_string.h',
                                          'InLine' => 1,
                                          'Line' => '808',
                                          'MnglName' => '_ZNSt7__cxx1112basic_stringIcSt11char_traitsIcESaIcEED0Ev',
                                          'Param' => {
                                                       '0' => {
                                                                'name' => 'this',
                                                                'type' => '59782'
                                                              }
                                                     },
                                          'ShortName' => 'basic_string'
                                        },
                            '10220' => {
                                         'Class' => '5196',
                                         'Header' => 'basic_string.tcc',
                                         'InLine' => 2,
                                         'Line' => '450',
                                         'MnglName' => '_ZNSt7__cxx1112basic_stringIcSt11char_traitsIcESaIcEE14_M_replace_auxEmmmc',
                                         'Param' => {
                                                      '0' => {
                                                               'name' => 'this',
                                                               'type' => '59782'
                                                             },
                                                      '1' => {
                                                               'name' => '__pos1',
                                                               'type' => '5381'
                                                             },
                                                      '2' => {
                                                               'name' => '__n1',
                                                               'type' => '5381'
                                                             },
                                                      '3' => {
                                                               'name' => '__n2',
                                                               'type' => '5381'
                                                             },
                                                      '4' => {
                                                               'name' => '__c',
                                                               'type' => '15249'
                                                             }
                                                    },
                                         'Private' => 1,
                                         'Return' => '20598',
                                         'ShortName' => '_M_replace_aux'
                                       },
                            '103500' => {
                                          'Artificial' => 1,
                                          'Class' => '21505',
                                          'Constructor' => 1,
                                          'Header' => 'typeinfo.hpp',
                                          'InLine' => 1,
                                          'Line' => '30',
                                          'MnglName' => '_ZN4zeno7reflect12RTTITypeInfoC2EPKcmmm',
                                          'Param' => {
                                                       '0' => {
                                                                'name' => 'this',
                                                                'type' => '29694'
                                                              },
                                                       '1' => {
                                                                'name' => 'in_name',
                                                                'type' => '15986'
                                                              },
                                                       '2' => {
                                                                'name' => 'hashcode',
                                                                'type' => '55'
                                                              },
                                                       '3' => {
                                                                'name' => 'flags',
                                                                'type' => '15302'
                                                              },
                                                       '4' => {
                                                                'name' => 'decayed_hash',
                                                                'type' => '15302'
                                                              }
                                                     },
                                          'ShortName' => 'RTTITypeInfo'
                                        },
                            '103501' => {
                                          'Artificial' => 1,
                                          'Class' => '21505',
                                          'Constructor' => 1,
                                          'Header' => 'typeinfo.hpp',
                                          'InLine' => 1,
                                          'Line' => '30',
                                          'MnglName' => '_ZN4zeno7reflect12RTTITypeInfoC1EPKcmmm',
                                          'Param' => {
                                                       '0' => {
                                                                'name' => 'this',
                                                                'type' => '29694'
                                                              },
                                                       '1' => {
                                                                'name' => 'in_name',
                                                                'type' => '15986'
                                                              },
                                                       '2' => {
                                                                'name' => 'hashcode',
                                                                'type' => '55'
                                                              },
                                                       '3' => {
                                                                'name' => 'flags',
                                                                'type' => '15302'
                                                              },
                                                       '4' => {
                                                                'name' => 'decayed_hash',
                                                                'type' => '15302'
                                                              }
                                                     },
                                          'ShortName' => 'RTTITypeInfo'
                                        },
                            '103650' => {
                                          'Artificial' => 1,
                                          'Class' => '542',
                                          'Destructor' => 1,
                                          'Header' => 'allocator.h',
                                          'InLine' => 1,
                                          'Line' => '182',
                                          'MnglName' => '_ZNSaIcED2Ev',
                                          'Param' => {
                                                       '0' => {
                                                                'name' => 'this',
                                                                'type' => '57489'
                                                              }
                                                     },
                                          'ShortName' => 'allocator'
                                        },
                            '103651' => {
                                          'Artificial' => 1,
                                          'Class' => '542',
                                          'Destructor' => 1,
                                          'Header' => 'allocator.h',
                                          'InLine' => 1,
                                          'Line' => '182',
                                          'MnglName' => '_ZNSaIcED0Ev',
                                          'Param' => {
                                                       '0' => {
                                                                'name' => 'this',
                                                                'type' => '57489'
                                                              }
                                                     },
                                          'ShortName' => 'allocator'
                                        },
                            '103708' => {
                                          'Artificial' => 1,
                                          'Class' => '5209',
                                          'Destructor' => 1,
                                          'Header' => 'basic_string.h',
                                          'InLine' => 1,
                                          'Line' => '186',
                                          'MnglName' => '_ZNSt7__cxx1112basic_stringIcSt11char_traitsIcESaIcEE12_Alloc_hiderD2Ev',
                                          'Param' => {
                                                       '0' => {
                                                                'name' => 'this',
                                                                'type' => '59746'
                                                              }
                                                     },
                                          'ShortName' => '_Alloc_hider'
                                        },
                            '103709' => {
                                          'Artificial' => 1,
                                          'Class' => '5209',
                                          'Destructor' => 1,
                                          'Header' => 'basic_string.h',
                                          'InLine' => 1,
                                          'Line' => '186',
                                          'MnglName' => '_ZNSt7__cxx1112basic_stringIcSt11char_traitsIcESaIcEE12_Alloc_hiderD0Ev',
                                          'Param' => {
                                                       '0' => {
                                                                'name' => 'this',
                                                                'type' => '59746'
                                                              }
                                                     },
                                          'ShortName' => '_Alloc_hider'
                                        },
                            '103814' => {
                                          'Artificial' => 1,
                                          'Class' => '302',
                                          'Constructor' => 1,
                                          'Header' => 'new_allocator.h',
                                          'InLine' => 1,
                                          'Line' => '92',
                                          'MnglName' => '_ZNSt15__new_allocatorIcEC2ERKS0_',
                                          'Param' => {
                                                       '0' => {
                                                                'name' => 'this',
                                                                'type' => '57452'
                                                              },
                                                       '1' => {
                                                                'name' => 'p1',
                                                                'type' => '15229'
                                                              }
                                                     },
                                          'ShortName' => '__new_allocator'
                                        },
                            '103815' => {
                                          'Artificial' => 1,
                                          'Class' => '302',
                                          'Constructor' => 1,
                                          'Header' => 'new_allocator.h',
                                          'InLine' => 1,
                                          'Line' => '92',
                                          'MnglName' => '_ZNSt15__new_allocatorIcEC1ERKS0_',
                                          'Param' => {
                                                       '0' => {
                                                                'name' => 'this',
                                                                'type' => '57452'
                                                              },
                                                       '1' => {
                                                                'name' => 'p1',
                                                                'type' => '15229'
                                                              }
                                                     },
                                          'ShortName' => '__new_allocator'
                                        },
                            '103878' => {
                                          'Artificial' => 1,
                                          'Class' => '542',
                                          'Constructor' => 1,
                                          'Header' => 'allocator.h',
                                          'InLine' => 1,
                                          'Line' => '165',
                                          'MnglName' => '_ZNSaIcEC2ERKS_',
                                          'Param' => {
                                                       '0' => {
                                                                'name' => 'this',
                                                                'type' => '57489'
                                                              },
                                                       '1' => {
                                                                'name' => '__a',
                                                                'type' => '15278'
                                                              }
                                                     },
                                          'ShortName' => 'allocator'
                                        },
                            '103879' => {
                                          'Artificial' => 1,
                                          'Class' => '542',
                                          'Constructor' => 1,
                                          'Header' => 'allocator.h',
                                          'InLine' => 1,
                                          'Line' => '165',
                                          'MnglName' => '_ZNSaIcEC1ERKS_',
                                          'Param' => {
                                                       '0' => {
                                                                'name' => 'this',
                                                                'type' => '57489'
                                                              },
                                                       '1' => {
                                                                'name' => '__a',
                                                                'type' => '15278'
                                                              }
                                                     },
                                          'ShortName' => 'allocator'
                                        },
                            '104011' => {
                                          'Artificial' => 1,
                                          'Class' => '5209',
                                          'Constructor' => 1,
                                          'Header' => 'basic_string.h',
                                          'InLine' => 1,
                                          'Line' => '197',
                                          'MnglName' => '_ZNSt7__cxx1112basic_stringIcSt11char_traitsIcESaIcEE12_Alloc_hiderC2EPcOS3_',
                                          'Param' => {
                                                       '0' => {
                                                                'name' => 'this',
                                                                'type' => '59746'
                                                              },
                                                       '1' => {
                                                                'name' => '__dat',
                                                                'type' => '5313'
                                                              },
                                                       '2' => {
                                                                'name' => '__a',
                                                                'type' => '20537'
                                                              }
                                                     },
                                          'ShortName' => '_Alloc_hider'
                                        },
                            '104012' => {
                                          'Artificial' => 1,
                                          'Class' => '5209',
                                          'Constructor' => 1,
                                          'Header' => 'basic_string.h',
                                          'InLine' => 1,
                                          'Line' => '197',
                                          'MnglName' => '_ZNSt7__cxx1112basic_stringIcSt11char_traitsIcESaIcEE12_Alloc_hiderC1EPcOS3_',
                                          'Param' => {
                                                       '0' => {
                                                                'name' => 'this',
                                                                'type' => '59746'
                                                              },
                                                       '1' => {
                                                                'name' => '__dat',
                                                                'type' => '5313'
                                                              },
                                                       '2' => {
                                                                'name' => '__a',
                                                                'type' => '20537'
                                                              }
                                                     },
                                          'ShortName' => '_Alloc_hider'
                                        },
                            '104178' => {
                                          'Artificial' => 1,
                                          'Class' => '302',
                                          'Constructor' => 1,
                                          'Header' => 'new_allocator.h',
                                          'InLine' => 1,
                                          'Line' => '88',
                                          'MnglName' => '_ZNSt15__new_allocatorIcEC2Ev',
                                          'Param' => {
                                                       '0' => {
                                                                'name' => 'this',
                                                                'type' => '57452'
                                                              }
                                                     },
                                          'ShortName' => '__new_allocator'
                                        },
                            '104179' => {
                                          'Artificial' => 1,
                                          'Class' => '302',
                                          'Constructor' => 1,
                                          'Header' => 'new_allocator.h',
                                          'InLine' => 1,
                                          'Line' => '88',
                                          'MnglName' => '_ZNSt15__new_allocatorIcEC1Ev',
                                          'Param' => {
                                                       '0' => {
                                                                'name' => 'this',
                                                                'type' => '57452'
                                                              }
                                                     },
                                          'ShortName' => '__new_allocator'
                                        },
                            '104225' => {
                                          'Artificial' => 1,
                                          'Class' => '542',
                                          'Constructor' => 1,
                                          'Header' => 'allocator.h',
                                          'InLine' => 1,
                                          'Line' => '161',
                                          'MnglName' => '_ZNSaIcEC2Ev',
                                          'Param' => {
                                                       '0' => {
                                                                'name' => 'this',
                                                                'type' => '57489'
                                                              }
                                                     },
                                          'ShortName' => 'allocator'
                                        },
                            '104226' => {
                                          'Artificial' => 1,
                                          'Class' => '542',
                                          'Constructor' => 1,
                                          'Header' => 'allocator.h',
                                          'InLine' => 1,
                                          'Line' => '161',
                                          'MnglName' => '_ZNSaIcEC1Ev',
                                          'Param' => {
                                                       '0' => {
                                                                'name' => 'this',
                                                                'type' => '57489'
                                                              }
                                                     },
                                          'ShortName' => 'allocator'
                                        },
                            '10516' => {
                                         'Class' => '5196',
                                         'Const' => 1,
                                         'Header' => 'basic_string.h',
                                         'InLine' => 2,
                                         'Line' => '2653',
                                         'MnglName' => '_ZNKSt7__cxx1112basic_stringIcSt11char_traitsIcESaIcEE4dataEv',
                                         'Param' => {
                                                      '0' => {
                                                               'name' => 'this',
                                                               'type' => '59792'
                                                             }
                                                    },
                                         'Return' => '15986',
                                         'ShortName' => 'data'
                                       },
                            '10547' => {
                                         'Class' => '5196',
                                         'Header' => 'basic_string.h',
                                         'InLine' => 2,
                                         'Line' => '2665',
                                         'MnglName' => '_ZNSt7__cxx1112basic_stringIcSt11char_traitsIcESaIcEE4dataEv',
                                         'Param' => {
                                                      '0' => {
                                                               'name' => 'this',
                                                               'type' => '59782'
                                                             }
                                                    },
                                         'Return' => '15239',
                                         'ShortName' => 'data'
                                       },
                            '117534' => {
                                          'Class' => '5196',
                                          'Header' => 'basic_string.tcc',
                                          'InLine' => 2,
                                          'Line' => '221',
                                          'MnglName' => '_ZNSt7__cxx1112basic_stringIcSt11char_traitsIcESaIcEE12_M_constructIPKcEEvT_S8_St20forward_iterator_tag',
                                          'Param' => {
                                                       '0' => {
                                                                'name' => 'this',
                                                                'type' => '59782'
                                                              },
                                                       '1' => {
                                                                'name' => '__beg',
                                                                'type' => '15986'
                                                              },
                                                       '2' => {
                                                                'name' => '__end',
                                                                'type' => '15986'
                                                              },
                                                       '3' => {
                                                                'name' => 'p3',
                                                                'type' => '37944'
                                                              }
                                                     },
                                          'Private' => 1,
                                          'Return' => '1',
                                          'ShortName' => '_M_construct<char const*>',
                                          'TParam' => {
                                                        '0' => {
                                                                 'key' => '_FwdIterator',
                                                                 'type' => '15986'
                                                               }
                                                      }
                                        },
                            '119883' => {
                                          'Header' => 'move.h',
                                          'InLine' => 2,
                                          'Line' => '70',
                                          'MnglName' => '_ZSt7forwardIRSt17basic_string_viewIcSt11char_traitsIcEEEOT_RNSt16remove_referenceIS5_E4typeE',
                                          'NameSpace' => 'std',
                                          'Param' => {
                                                       '0' => {
                                                                'name' => '__t',
                                                                'type' => '134379'
                                                              }
                                                     },
                                          'Return' => '18666',
                                          'ShortName' => 'forward<std::basic_string_view<char>&>',
                                          'TParam' => {
                                                        '0' => {
                                                                 'key' => '_Tp',
                                                                 'type' => '18666'
                                                               }
                                                      }
                                        },
                            '120136' => {
                                          'Header' => 'ios_base.h',
                                          'InLine' => 2,
                                          'Line' => '139',
                                          'MnglName' => '_ZStorSt13_Ios_OpenmodeS_',
                                          'NameSpace' => 'std',
                                          'Param' => {
                                                       '0' => {
                                                                'name' => '__a',
                                                                'type' => '118641'
                                                              },
                                                       '1' => {
                                                                'name' => '__b',
                                                                'type' => '118641'
                                                              }
                                                     },
                                          'Return' => '118641',
                                          'ShortName' => 'operator|'
                                        },
                            '129987' => {
                                          'Class' => '129879',
                                          'InLine' => 2,
                                          'Line' => '22',
                                          'MnglName' => '_ZN4zeno7reflect18FileReadableStream4readEPhm',
                                          'Param' => {
                                                       '0' => {
                                                                'name' => 'this',
                                                                'type' => '132384'
                                                              },
                                                       '1' => {
                                                                'name' => 'buf',
                                                                'type' => '30318'
                                                              },
                                                       '2' => {
                                                                'name' => 'len',
                                                                'type' => '15302'
                                                              }
                                                     },
                                          'Return' => '1',
                                          'ShortName' => 'read',
                                          'Source' => 'file_stream.cpp',
                                          'Virt' => 1,
                                          'VirtPos' => '2'
                                        },
                            '130030' => {
                                          'Class' => '129879',
                                          'InLine' => 2,
                                          'Line' => '29',
                                          'MnglName' => '_ZN4zeno7reflect18FileReadableStream9next_byteEv',
                                          'Param' => {
                                                       '0' => {
                                                                'name' => 'this',
                                                                'type' => '132384'
                                                              }
                                                     },
                                          'Return' => '20623',
                                          'ShortName' => 'next_byte',
                                          'Source' => 'file_stream.cpp',
                                          'Virt' => 1,
                                          'VirtPos' => '3'
                                        },
                            '130067' => {
                                          'Class' => '129879',
                                          'InLine' => 2,
                                          'Line' => '38',
                                          'MnglName' => '_ZN4zeno7reflect18FileReadableStream8is_validEv',
                                          'Param' => {
                                                       '0' => {
                                                                'name' => 'this',
                                                                'type' => '132384'
                                                              }
                                                     },
                                          'Return' => '13581',
                                          'ShortName' => 'is_valid',
                                          'Source' => 'file_stream.cpp',
                                          'Virt' => 1,
                                          'VirtPos' => '4'
                                        },
                            '13026' => {
                                         'Class' => '12886',
                                         'Const' => 1,
                                         'Header' => 'initializer_list',
                                         'InLine' => 2,
                                         'Line' => '69',
                                         'MnglName' => '_ZNKSt16initializer_listIPN4zeno7reflect3AnyEE4sizeEv',
                                         'Param' => {
                                                      '0' => {
                                                               'name' => 'this',
                                                               'type' => '30201'
                                                             }
                                                    },
                                         'Return' => '12925',
                                         'ShortName' => 'size'
                                       },
                            '13057' => {
                                         'Class' => '12886',
                                         'Const' => 1,
                                         'Header' => 'initializer_list',
                                         'InLine' => 2,
                                         'Line' => '73',
                                         'MnglName' => '_ZNKSt16initializer_listIPN4zeno7reflect3AnyEE5beginEv',
                                         'Param' => {
                                                      '0' => {
                                                               'name' => 'this',
                                                               'type' => '30201'
                                                             }
                                                    },
                                         'Return' => '12987',
                                         'ShortName' => 'begin'
                                       },
                            '130721' => {
                                          'Class' => '130613',
                                          'InLine' => 2,
                                          'Line' => '54',
                                          'MnglName' => '_ZN4zeno7reflect18FileWritableStream10write_byteEh',
                                          'Param' => {
                                                       '0' => {
                                                                'name' => 'this',
                                                                'type' => '132429'
                                                              },
                                                       '1' => {
                                                                'name' => 'data',
                                                                'type' => '20623'
                                                              }
                                                     },
                                          'Return' => '1',
                                          'ShortName' => 'write_byte',
                                          'Source' => 'file_stream.cpp',
                                          'Virt' => 1,
                                          'VirtPos' => '2'
                                        },
                            '130759' => {
                                          'Class' => '130613',
                                          'InLine' => 2,
                                          'Line' => '61',
                                          'MnglName' => '_ZN4zeno7reflect18FileWritableStream5writeEPKhm',
                                          'Param' => {
                                                       '0' => {
                                                                'name' => 'this',
                                                                'type' => '132429'
                                                              },
                                                       '1' => {
                                                                'name' => 'data',
                                                                'type' => '30313'
                                                              },
                                                       '2' => {
                                                                'name' => 'len',
                                                                'type' => '15302'
                                                              }
                                                     },
                                          'Return' => '1',
                                          'ShortName' => 'write',
                                          'Source' => 'file_stream.cpp',
                                          'Virt' => 1,
                                          'VirtPos' => '3'
                                        },
                            '130802' => {
                                          'Class' => '130613',
                                          'InLine' => 2,
                                          'Line' => '68',
                                          'MnglName' => '_ZN4zeno7reflect18FileWritableStream8is_validEv',
                                          'Param' => {
                                                       '0' => {
                                                                'name' => 'this',
                                                                'type' => '132429'
                                                              }
                                                     },
                                          'Return' => '13581',
                                          'ShortName' => 'is_valid',
                                          'Source' => 'file_stream.cpp',
                                          'Virt' => 1,
                                          'VirtPos' => '4'
                                        },
                            '13088' => {
                                         'Class' => '12886',
                                         'Const' => 1,
                                         'Header' => 'initializer_list',
                                         'InLine' => 2,
                                         'Line' => '77',
                                         'MnglName' => '_ZNKSt16initializer_listIPN4zeno7reflect3AnyEE3endEv',
                                         'Param' => {
                                                      '0' => {
                                                               'name' => 'this',
                                                               'type' => '30201'
                                                             }
                                                    },
                                         'Return' => '12987',
                                         'ShortName' => 'end'
                                       },
                            '130886' => {
                                          'Header' => 'unique_ptr',
                                          'InLine' => 2,
                                          'Line' => '78',
                                          'MnglName' => '_ZN4zeno7reflect11make_uniqueINS0_18FileWritableStreamEJRSt17basic_string_viewIcSt11char_traitsIcEEEEENS0_9UniquePtrIT_EEDpOT0_',
                                          'NameSpace' => 'zeno::reflect',
                                          'Param' => {
                                                       '0' => {
                                                                'name' => 'p1',
                                                                'type' => '18666'
                                                              }
                                                     },
                                          'Return' => '130151',
                                          'ShortName' => 'make_unique<zeno::reflect::FileWritableStream, std::basic_string_view<char>&>',
                                          'TParam' => {
                                                        '0' => {
                                                                 'key' => 'T',
                                                                 'type' => '130613'
                                                               },
                                                        '1' => {
                                                                 'key' => undef,
                                                                 'type' => '18666'
                                                               }
                                                      }
                                        },
                            '130934' => {
                                          'Header' => 'unique_ptr',
                                          'InLine' => 2,
                                          'Line' => '78',
                                          'MnglName' => '_ZN4zeno7reflect11make_uniqueINS0_18FileReadableStreamEJRSt17basic_string_viewIcSt11char_traitsIcEEEEENS0_9UniquePtrIT_EEDpOT0_',
                                          'NameSpace' => 'zeno::reflect',
                                          'Param' => {
                                                       '0' => {
                                                                'name' => 'p1',
                                                                'type' => '18666'
                                                              }
                                                     },
                                          'Return' => '129417',
                                          'ShortName' => 'make_unique<zeno::reflect::FileReadableStream, std::basic_string_view<char>&>',
                                          'TParam' => {
                                                        '0' => {
                                                                 'key' => 'T',
                                                                 'type' => '129879'
                                                               },
                                                        '1' => {
                                                                 'key' => undef,
                                                                 'type' => '18666'
                                                               }
                                                      }
                                        },
                            '130982' => {
                                          'Line' => '80',
                                          'MnglName' => '_ZN4zeno7reflect24create_file_write_streamESt17basic_string_viewIcSt11char_traitsIcEE',
                                          'NameSpace' => 'zeno::reflect',
                                          'Param' => {
                                                       '0' => {
                                                                'name' => 'path',
                                                                'type' => '109161'
                                                              }
                                                     },
                                          'Return' => '27700',
                                          'ShortName' => 'create_file_write_stream',
                                          'Source' => 'file_stream.cpp'
                                        },
                            '131008' => {
                                          'Line' => '76',
                                          'MnglName' => '_ZN4zeno7reflect23create_file_read_streamESt17basic_string_viewIcSt11char_traitsIcEE',
                                          'NameSpace' => 'zeno::reflect',
                                          'Param' => {
                                                       '0' => {
                                                                'name' => 'path',
                                                                'type' => '109161'
                                                              }
                                                     },
                                          'Return' => '27071',
                                          'ShortName' => 'create_file_read_stream',
                                          'Source' => 'file_stream.cpp'
                                        },
                            '13367' => {
                                         'Header' => 'move.h',
                                         'InLine' => 2,
                                         'Line' => '70',
                                         'MnglName' => '_ZSt7forwardIPN4zeno7reflect3AnyEEOT_RNSt16remove_referenceIS4_E4typeE',
                                         'NameSpace' => 'std',
                                         'Param' => {
                                                      '0' => {
                                                               'name' => '__t',
                                                               'type' => '31510'
                                                             }
                                                    },
                                         'Return' => '29863',
                                         'ShortName' => 'forward<zeno::reflect::Any*>',
                                         'TParam' => {
                                                       '0' => {
                                                                'key' => '_Tp',
                                                                'type' => '29753'
                                                              }
                                                     }
                                       },
                            '13402' => {
                                         'Header' => 'move.h',
                                         'InLine' => 2,
                                         'Line' => '126',
                                         'MnglName' => '_ZSt4moveIRPN4zeno7reflect3AnyEEONSt16remove_referenceIT_E4typeEOS6_',
                                         'NameSpace' => 'std',
                                         'Param' => {
                                                      '0' => {
                                                               'name' => '__t',
                                                               'type' => '29868'
                                                             }
                                                    },
                                         'Return' => '32051',
                                         'ShortName' => 'move<zeno::reflect::Any*&>',
                                         'TParam' => {
                                                       '0' => {
                                                                'key' => '_Tp',
                                                                'type' => '29868'
                                                              }
                                                     }
                                       },
                            '134220' => {
                                          'Artificial' => 1,
                                          'Class' => '130151',
                                          'Constructor' => 1,
                                          'Header' => 'unique_ptr',
                                          'InLine' => 1,
                                          'Line' => '17',
                                          'MnglName' => '_ZN4zeno7reflect9UniquePtrINS0_18FileWritableStreamEEC2IS2_EEPT_',
                                          'Param' => {
                                                       '0' => {
                                                                'name' => 'this',
                                                                'type' => '132394'
                                                              },
                                                       '1' => {
                                                                'name' => 'p',
                                                                'type' => '132424'
                                                              }
                                                     },
                                          'ShortName' => 'UniquePtr<zeno::reflect::FileWritableStream>',
                                          'TParam' => {
                                                        '0' => {
                                                                 'key' => 'U',
                                                                 'type' => '130613'
                                                               }
                                                      }
                                        },
                            '134221' => {
                                          'Artificial' => 1,
                                          'Class' => '130151',
                                          'Constructor' => 1,
                                          'Header' => 'unique_ptr',
                                          'InLine' => 1,
                                          'Line' => '17',
                                          'MnglName' => '_ZN4zeno7reflect9UniquePtrINS0_18FileWritableStreamEEC1IS2_EEPT_',
                                          'Param' => {
                                                       '0' => {
                                                                'name' => 'this',
                                                                'type' => '132394'
                                                              },
                                                       '1' => {
                                                                'name' => 'p',
                                                                'type' => '132424'
                                                              }
                                                     },
                                          'ShortName' => 'UniquePtr<zeno::reflect::FileWritableStream>',
                                          'TParam' => {
                                                        '0' => {
                                                                 'key' => 'U',
                                                                 'type' => '130613'
                                                               }
                                                      }
                                        },
                            '134320' => {
                                          'Artificial' => 1,
                                          'Class' => '129417',
                                          'Constructor' => 1,
                                          'Header' => 'unique_ptr',
                                          'InLine' => 1,
                                          'Line' => '17',
                                          'MnglName' => '_ZN4zeno7reflect9UniquePtrINS0_18FileReadableStreamEEC2IS2_EEPT_',
                                          'Param' => {
                                                       '0' => {
                                                                'name' => 'this',
                                                                'type' => '132349'
                                                              },
                                                       '1' => {
                                                                'name' => 'p',
                                                                'type' => '132379'
                                                              }
                                                     },
                                          'ShortName' => 'UniquePtr<zeno::reflect::FileReadableStream>',
                                          'TParam' => {
                                                        '0' => {
                                                                 'key' => 'U',
                                                                 'type' => '129879'
                                                               }
                                                      }
                                        },
                            '134321' => {
                                          'Artificial' => 1,
                                          'Class' => '129417',
                                          'Constructor' => 1,
                                          'Header' => 'unique_ptr',
                                          'InLine' => 1,
                                          'Line' => '17',
                                          'MnglName' => '_ZN4zeno7reflect9UniquePtrINS0_18FileReadableStreamEEC1IS2_EEPT_',
                                          'Param' => {
                                                       '0' => {
                                                                'name' => 'this',
                                                                'type' => '132349'
                                                              },
                                                       '1' => {
                                                                'name' => 'p',
                                                                'type' => '132379'
                                                              }
                                                     },
                                          'ShortName' => 'UniquePtr<zeno::reflect::FileReadableStream>',
                                          'TParam' => {
                                                        '0' => {
                                                                 'key' => 'U',
                                                                 'type' => '129879'
                                                               }
                                                      }
                                        },
                            '13437' => {
                                         'Header' => 'move.h',
                                         'InLine' => 2,
                                         'Line' => '126',
                                         'MnglName' => '_ZSt4moveIRN4zeno7reflect9UniquePtrINS1_15IWritableStreamEEEEONSt16remove_referenceIT_E4typeEOS7_',
                                         'NameSpace' => 'std',
                                         'Param' => {
                                                      '0' => {
                                                               'name' => '__t',
                                                               'type' => '30062'
                                                             }
                                                    },
                                         'Return' => '33473',
                                         'ShortName' => 'move<zeno::reflect::UniquePtr<zeno::reflect::IWritableStream>&>',
                                         'TParam' => {
                                                       '0' => {
                                                                'key' => '_Tp',
                                                                'type' => '30062'
                                                              }
                                                     }
                                       },
                            '134484' => {
                                          'Artificial' => 1,
                                          'Class' => '5196',
                                          'Constructor' => 1,
                                          'Header' => 'basic_string.h',
                                          'InLine' => 1,
                                          'Line' => '181',
                                          'MnglName' => '_ZNSt7__cxx1112basic_stringIcSt11char_traitsIcESaIcEEC2ENS4_12__sv_wrapperERKS3_',
                                          'Param' => {
                                                       '0' => {
                                                                'name' => 'this',
                                                                'type' => '59782'
                                                              },
                                                       '1' => {
                                                                'name' => '__svw',
                                                                'type' => '5511'
                                                              },
                                                       '2' => {
                                                                'name' => '__a',
                                                                'type' => '15278'
                                                              }
                                                     },
                                          'Private' => 1,
                                          'ShortName' => 'basic_string'
                                        },
                            '134485' => {
                                          'Artificial' => 1,
                                          'Class' => '5196',
                                          'Constructor' => 1,
                                          'Header' => 'basic_string.h',
                                          'InLine' => 1,
                                          'Line' => '181',
                                          'MnglName' => '_ZNSt7__cxx1112basic_stringIcSt11char_traitsIcESaIcEEC1ENS4_12__sv_wrapperERKS3_',
                                          'Param' => {
                                                       '0' => {
                                                                'name' => 'this',
                                                                'type' => '59782'
                                                              },
                                                       '1' => {
                                                                'name' => '__svw',
                                                                'type' => '5511'
                                                              },
                                                       '2' => {
                                                                'name' => '__a',
                                                                'type' => '15278'
                                                              }
                                                     },
                                          'Private' => 1,
                                          'ShortName' => 'basic_string'
                                        },
                            '134580' => {
                                          'Artificial' => 1,
                                          'Class' => '5511',
                                          'Constructor' => 1,
                                          'Header' => 'basic_string.h',
                                          'InLine' => 1,
                                          'Line' => '168',
                                          'MnglName' => '_ZNSt7__cxx1112basic_stringIcSt11char_traitsIcESaIcEE12__sv_wrapperC2ESt17basic_string_viewIcS2_E',
                                          'Param' => {
                                                       '0' => {
                                                                'name' => 'this',
                                                                'type' => '132052'
                                                              },
                                                       '1' => {
                                                                'name' => '__sv',
                                                                'type' => '5437'
                                                              }
                                                     },
                                          'ShortName' => '__sv_wrapper'
                                        },
                            '134581' => {
                                          'Artificial' => 1,
                                          'Class' => '5511',
                                          'Constructor' => 1,
                                          'Header' => 'basic_string.h',
                                          'InLine' => 1,
                                          'Line' => '168',
                                          'MnglName' => '_ZNSt7__cxx1112basic_stringIcSt11char_traitsIcESaIcEE12__sv_wrapperC1ESt17basic_string_viewIcS2_E',
                                          'Param' => {
                                                       '0' => {
                                                                'name' => 'this',
                                                                'type' => '132052'
                                                              },
                                                       '1' => {
                                                                'name' => '__sv',
                                                                'type' => '5437'
                                                              }
                                                     },
                                          'ShortName' => '__sv_wrapper'
                                        },
                            '13472' => {
                                         'Header' => 'move.h',
                                         'InLine' => 2,
                                         'Line' => '126',
                                         'MnglName' => '_ZSt4moveIRN4zeno7reflect9UniquePtrINS1_15IReadableStreamEEEEONSt16remove_referenceIT_E4typeEOS7_',
                                         'NameSpace' => 'std',
                                         'Param' => {
                                                      '0' => {
                                                               'name' => '__t',
                                                               'type' => '30017'
                                                             }
                                                    },
                                         'Return' => '33530',
                                         'ShortName' => 'move<zeno::reflect::UniquePtr<zeno::reflect::IReadableStream>&>',
                                         'TParam' => {
                                                       '0' => {
                                                                'key' => '_Tp',
                                                                'type' => '30017'
                                                              }
                                                     }
                                       },
                            '134944' => {
                                          'Artificial' => 1,
                                          'Class' => '89617',
                                          'Constructor' => 1,
                                          'Header' => 'basic_string.tcc',
                                          'InLine' => 1,
                                          'Line' => '239',
                                          'MnglName' => '_ZZNSt7__cxx1112basic_stringIcSt11char_traitsIcESaIcEE12_M_constructIPKcEEvT_S8_St20forward_iterator_tagEN6_GuardC2EPS4_',
                                          'Param' => {
                                                       '0' => {
                                                                'name' => 'this',
                                                                'type' => '89749'
                                                              },
                                                       '1' => {
                                                                'name' => '__s',
                                                                'type' => '20563'
                                                              }
                                                     }
                                        },
                            '134945' => {
                                          'Artificial' => 1,
                                          'Class' => '89617',
                                          'Constructor' => 1,
                                          'Header' => 'basic_string.tcc',
                                          'InLine' => 1,
                                          'Line' => '239',
                                          'MnglName' => '_ZZNSt7__cxx1112basic_stringIcSt11char_traitsIcESaIcEE12_M_constructIPKcEEvT_S8_St20forward_iterator_tagEN6_GuardC1EPS4_',
                                          'Param' => {
                                                       '0' => {
                                                                'name' => 'this',
                                                                'type' => '89749'
                                                              },
                                                       '1' => {
                                                                'name' => '__s',
                                                                'type' => '20563'
                                                              }
                                                     }
                                        },
                            '134996' => {
                                          'Artificial' => 1,
                                          'Class' => '89617',
                                          'Destructor' => 1,
                                          'Header' => 'basic_string.tcc',
                                          'InLine' => 1,
                                          'Line' => '242',
                                          'MnglName' => '_ZZNSt7__cxx1112basic_stringIcSt11char_traitsIcESaIcEE12_M_constructIPKcEEvT_S8_St20forward_iterator_tagEN6_GuardD2Ev',
                                          'Param' => {
                                                       '0' => {
                                                                'name' => 'this',
                                                                'type' => '89749'
                                                              }
                                                     }
                                        },
                            '134997' => {
                                          'Artificial' => 1,
                                          'Class' => '89617',
                                          'Destructor' => 1,
                                          'Header' => 'basic_string.tcc',
                                          'InLine' => 1,
                                          'Line' => '242',
                                          'MnglName' => '_ZZNSt7__cxx1112basic_stringIcSt11char_traitsIcESaIcEE12_M_constructIPKcEEvT_S8_St20forward_iterator_tagEN6_GuardD0Ev',
                                          'Param' => {
                                                       '0' => {
                                                                'name' => 'this',
                                                                'type' => '89749'
                                                              }
                                                     }
                                        },
                            '13507' => {
                                         'Header' => 'move.h',
                                         'InLine' => 2,
                                         'Line' => '126',
                                         'MnglName' => '_ZSt4moveIRN4zeno7reflect9UniquePtrINS1_11ISerializerEEEEONSt16remove_referenceIT_E4typeEOS7_',
                                         'NameSpace' => 'std',
                                         'Param' => {
                                                      '0' => {
                                                               'name' => '__t',
                                                               'type' => '29972'
                                                             }
                                                    },
                                         'Return' => '33587',
                                         'ShortName' => 'move<zeno::reflect::UniquePtr<zeno::reflect::ISerializer>&>',
                                         'TParam' => {
                                                       '0' => {
                                                                'key' => '_Tp',
                                                                'type' => '29972'
                                                              }
                                                     }
                                       },
                            '13542' => {
                                         'Header' => 'move.h',
                                         'InLine' => 2,
                                         'Line' => '126',
                                         'MnglName' => '_ZSt4moveIRN4zeno7reflect3AnyEEONSt16remove_referenceIT_E4typeEOS5_',
                                         'NameSpace' => 'std',
                                         'Param' => {
                                                      '0' => {
                                                               'name' => '__t',
                                                               'type' => '29773'
                                                             }
                                                    },
                                         'Return' => '33875',
                                         'ShortName' => 'move<zeno::reflect::Any&>',
                                         'TParam' => {
                                                       '0' => {
                                                                'key' => '_Tp',
                                                                'type' => '29773'
                                                              }
                                                     }
                                       },
                            '135639' => {
                                          'Artificial' => 1,
                                          'Class' => '27700',
                                          'Constructor' => 1,
                                          'Header' => 'unique_ptr',
                                          'InLine' => 1,
                                          'Line' => '27',
                                          'MnglName' => '_ZN4zeno7reflect9UniquePtrINS0_15IWritableStreamEEC2INS0_18FileWritableStreamEEEONS1_IT_EE',
                                          'Param' => {
                                                       '0' => {
                                                                'name' => 'this',
                                                                'type' => '30052'
                                                              },
                                                       '1' => {
                                                                'name' => 'other',
                                                                'type' => '132409'
                                                              }
                                                     },
                                          'ShortName' => 'UniquePtr<zeno::reflect::FileWritableStream>',
                                          'TParam' => {
                                                        '0' => {
                                                                 'key' => 'U',
                                                                 'type' => '130613'
                                                               }
                                                      }
                                        },
                            '135640' => {
                                          'Artificial' => 1,
                                          'Class' => '27700',
                                          'Constructor' => 1,
                                          'Header' => 'unique_ptr',
                                          'InLine' => 1,
                                          'Line' => '27',
                                          'MnglName' => '_ZN4zeno7reflect9UniquePtrINS0_15IWritableStreamEEC1INS0_18FileWritableStreamEEEONS1_IT_EE',
                                          'Param' => {
                                                       '0' => {
                                                                'name' => 'this',
                                                                'type' => '30052'
                                                              },
                                                       '1' => {
                                                                'name' => 'other',
                                                                'type' => '132409'
                                                              }
                                                     },
                                          'ShortName' => 'UniquePtr<zeno::reflect::FileWritableStream>',
                                          'TParam' => {
                                                        '0' => {
                                                                 'key' => 'U',
                                                                 'type' => '130613'
                                                               }
                                                      }
                                        },
                            '135731' => {
                                          'Artificial' => 1,
                                          'Class' => '130151',
                                          'Destructor' => 1,
                                          'Header' => 'unique_ptr',
                                          'InLine' => 1,
                                          'Line' => '42',
                                          'MnglName' => '_ZN4zeno7reflect9UniquePtrINS0_18FileWritableStreamEED2Ev',
                                          'Param' => {
                                                       '0' => {
                                                                'name' => 'this',
                                                                'type' => '132394'
                                                              }
                                                     },
                                          'ShortName' => 'UniquePtr'
                                        },
                            '135732' => {
                                          'Artificial' => 1,
                                          'Class' => '130151',
                                          'Destructor' => 1,
                                          'Header' => 'unique_ptr',
                                          'InLine' => 1,
                                          'Line' => '42',
                                          'MnglName' => '_ZN4zeno7reflect9UniquePtrINS0_18FileWritableStreamEED0Ev',
                                          'Param' => {
                                                       '0' => {
                                                                'name' => 'this',
                                                                'type' => '132394'
                                                              }
                                                     },
                                          'ShortName' => 'UniquePtr'
                                        },
                            '135810' => {
                                          'Artificial' => 1,
                                          'Class' => '130613',
                                          'Destructor' => 1,
                                          'InLine' => 1,
                                          'Line' => '46',
                                          'MnglName' => '_ZN4zeno7reflect18FileWritableStreamD0Ev',
                                          'Param' => {
                                                       '0' => {
                                                                'name' => 'this',
                                                                'type' => '132429'
                                                              }
                                                     },
                                          'ShortName' => 'FileWritableStream',
                                          'Source' => 'file_stream.cpp',
                                          'Virt' => 1
                                        },
                            '135811' => {
                                          'Artificial' => 1,
                                          'Class' => '130613',
                                          'Destructor' => 1,
                                          'InLine' => 1,
                                          'Line' => '46',
                                          'MnglName' => '_ZN4zeno7reflect18FileWritableStreamD1Ev',
                                          'Param' => {
                                                       '0' => {
                                                                'name' => 'this',
                                                                'type' => '132429'
                                                              }
                                                     },
                                          'ShortName' => 'FileWritableStream',
                                          'Source' => 'file_stream.cpp',
                                          'Virt' => 1
                                        },
                            '135854' => {
                                          'Artificial' => 1,
                                          'Class' => '130613',
                                          'Destructor' => 1,
                                          'InLine' => 1,
                                          'Line' => '46',
                                          'MnglName' => '_ZN4zeno7reflect18FileWritableStreamD2Ev',
                                          'Param' => {
                                                       '0' => {
                                                                'name' => 'this',
                                                                'type' => '132429'
                                                              }
                                                     },
                                          'ShortName' => 'FileWritableStream',
                                          'Source' => 'file_stream.cpp',
                                          'Virt' => 1
                                        },
                            '136004' => {
                                          'Artificial' => 1,
                                          'Class' => '27071',
                                          'Constructor' => 1,
                                          'Header' => 'unique_ptr',
                                          'InLine' => 1,
                                          'Line' => '27',
                                          'MnglName' => '_ZN4zeno7reflect9UniquePtrINS0_15IReadableStreamEEC2INS0_18FileReadableStreamEEEONS1_IT_EE',
                                          'Param' => {
                                                       '0' => {
                                                                'name' => 'this',
                                                                'type' => '30007'
                                                              },
                                                       '1' => {
                                                                'name' => 'other',
                                                                'type' => '132364'
                                                              }
                                                     },
                                          'ShortName' => 'UniquePtr<zeno::reflect::FileReadableStream>',
                                          'TParam' => {
                                                        '0' => {
                                                                 'key' => 'U',
                                                                 'type' => '129879'
                                                               }
                                                      }
                                        },
                            '136005' => {
                                          'Artificial' => 1,
                                          'Class' => '27071',
                                          'Constructor' => 1,
                                          'Header' => 'unique_ptr',
                                          'InLine' => 1,
                                          'Line' => '27',
                                          'MnglName' => '_ZN4zeno7reflect9UniquePtrINS0_15IReadableStreamEEC1INS0_18FileReadableStreamEEEONS1_IT_EE',
                                          'Param' => {
                                                       '0' => {
                                                                'name' => 'this',
                                                                'type' => '30007'
                                                              },
                                                       '1' => {
                                                                'name' => 'other',
                                                                'type' => '132364'
                                                              }
                                                     },
                                          'ShortName' => 'UniquePtr<zeno::reflect::FileReadableStream>',
                                          'TParam' => {
                                                        '0' => {
                                                                 'key' => 'U',
                                                                 'type' => '129879'
                                                               }
                                                      }
                                        },
                            '136096' => {
                                          'Artificial' => 1,
                                          'Class' => '129417',
                                          'Destructor' => 1,
                                          'Header' => 'unique_ptr',
                                          'InLine' => 1,
                                          'Line' => '42',
                                          'MnglName' => '_ZN4zeno7reflect9UniquePtrINS0_18FileReadableStreamEED2Ev',
                                          'Param' => {
                                                       '0' => {
                                                                'name' => 'this',
                                                                'type' => '132349'
                                                              }
                                                     },
                                          'ShortName' => 'UniquePtr'
                                        },
                            '136097' => {
                                          'Artificial' => 1,
                                          'Class' => '129417',
                                          'Destructor' => 1,
                                          'Header' => 'unique_ptr',
                                          'InLine' => 1,
                                          'Line' => '42',
                                          'MnglName' => '_ZN4zeno7reflect9UniquePtrINS0_18FileReadableStreamEED0Ev',
                                          'Param' => {
                                                       '0' => {
                                                                'name' => 'this',
                                                                'type' => '132349'
                                                              }
                                                     },
                                          'ShortName' => 'UniquePtr'
                                        },
                            '136175' => {
                                          'Artificial' => 1,
                                          'Class' => '129879',
                                          'Destructor' => 1,
                                          'InLine' => 1,
                                          'Line' => '14',
                                          'MnglName' => '_ZN4zeno7reflect18FileReadableStreamD0Ev',
                                          'Param' => {
                                                       '0' => {
                                                                'name' => 'this',
                                                                'type' => '132384'
                                                              }
                                                     },
                                          'ShortName' => 'FileReadableStream',
                                          'Source' => 'file_stream.cpp',
                                          'Virt' => 1
                                        },
                            '136176' => {
                                          'Artificial' => 1,
                                          'Class' => '129879',
                                          'Destructor' => 1,
                                          'InLine' => 1,
                                          'Line' => '14',
                                          'MnglName' => '_ZN4zeno7reflect18FileReadableStreamD1Ev',
                                          'Param' => {
                                                       '0' => {
                                                                'name' => 'this',
                                                                'type' => '132384'
                                                              }
                                                     },
                                          'ShortName' => 'FileReadableStream',
                                          'Source' => 'file_stream.cpp',
                                          'Virt' => 1
                                        },
                            '136219' => {
                                          'Artificial' => 1,
                                          'Class' => '129879',
                                          'Destructor' => 1,
                                          'InLine' => 1,
                                          'Line' => '14',
                                          'MnglName' => '_ZN4zeno7reflect18FileReadableStreamD2Ev',
                                          'Param' => {
                                                       '0' => {
                                                                'name' => 'this',
                                                                'type' => '132384'
                                                              }
                                                     },
                                          'ShortName' => 'FileReadableStream',
                                          'Source' => 'file_stream.cpp',
                                          'Virt' => 1
                                        },
                            '136370' => {
                                          'Artificial' => 1,
                                          'Class' => '119283',
                                          'Destructor' => 1,
                                          'Header' => 'fstream',
                                          'InLine' => 1,
                                          'Line' => '911',
                                          'MnglName' => '_ZNSt14basic_ofstreamIcSt11char_traitsIcEED1Ev',
                                          'Param' => {
                                                       '0' => {
                                                                'name' => 'p1',
                                                                'type' => undef
                                                              }
                                                     },
                                          'ShortName' => 'basic_ofstream',
                                          'Virt' => 1
                                        },
                            '136371' => {
                                          'Artificial' => 1,
                                          'Class' => '119283',
                                          'Destructor' => 1,
                                          'Header' => 'fstream',
                                          'InLine' => 1,
                                          'Line' => '911',
                                          'MnglName' => '_ZNSt14basic_ofstreamIcSt11char_traitsIcEED0Ev',
                                          'Param' => {
                                                       '0' => {
                                                                'name' => 'p1',
                                                                'type' => undef
                                                              }
                                                     },
                                          'ShortName' => 'basic_ofstream',
                                          'Virt' => 1
                                        },
                            '136395' => {
                                          'Artificial' => 1,
                                          'Class' => '119283',
                                          'Constructor' => 1,
                                          'Header' => 'fstream',
                                          'InLine' => 1,
                                          'Line' => '874',
                                          'MnglName' => '_ZNSt14basic_ofstreamIcSt11char_traitsIcEEC1ERKNSt7__cxx1112basic_stringIcS1_SaIcEEESt13_Ios_Openmode',
                                          'Param' => {
                                                       '0' => {
                                                                'name' => 'p1',
                                                                'type' => undef
                                                              },
                                                       '1' => {
                                                                'name' => 'p2',
                                                                'type' => undef
                                                              },
                                                       '2' => {
                                                                'name' => 'p3',
                                                                'type' => undef
                                                              }
                                                     },
                                          'ShortName' => 'basic_ofstream'
                                        },
                            '136396' => {
                                          'Artificial' => 1,
                                          'Class' => '119283',
                                          'Constructor' => 1,
                                          'Header' => 'fstream',
                                          'InLine' => 1,
                                          'Line' => '874',
                                          'MnglName' => '_ZNSt14basic_ofstreamIcSt11char_traitsIcEEC2ERKNSt7__cxx1112basic_stringIcS1_SaIcEEESt13_Ios_Openmode',
                                          'Param' => {
                                                       '0' => {
                                                                'name' => 'p1',
                                                                'type' => undef
                                                              },
                                                       '1' => {
                                                                'name' => 'p2',
                                                                'type' => undef
                                                              },
                                                       '2' => {
                                                                'name' => 'p3',
                                                                'type' => undef
                                                              }
                                                     },
                                          'ShortName' => 'basic_ofstream'
                                        },
                            '136511' => {
                                          'Artificial' => 1,
                                          'Class' => '119440',
                                          'Destructor' => 1,
                                          'Header' => 'fstream',
                                          'InLine' => 1,
                                          'Line' => '639',
                                          'MnglName' => '_ZNSt14basic_ifstreamIcSt11char_traitsIcEED1Ev',
                                          'Param' => {
                                                       '0' => {
                                                                'name' => 'p1',
                                                                'type' => undef
                                                              }
                                                     },
                                          'ShortName' => 'basic_ifstream',
                                          'Virt' => 1
                                        },
                            '136512' => {
                                          'Artificial' => 1,
                                          'Class' => '119440',
                                          'Destructor' => 1,
                                          'Header' => 'fstream',
                                          'InLine' => 1,
                                          'Line' => '639',
                                          'MnglName' => '_ZNSt14basic_ifstreamIcSt11char_traitsIcEED0Ev',
                                          'Param' => {
                                                       '0' => {
                                                                'name' => 'p1',
                                                                'type' => undef
                                                              }
                                                     },
                                          'ShortName' => 'basic_ifstream',
                                          'Virt' => 1
                                        },
                            '136536' => {
                                          'Artificial' => 1,
                                          'Class' => '119440',
                                          'Constructor' => 1,
                                          'Header' => 'fstream',
                                          'InLine' => 1,
                                          'Line' => '602',
                                          'MnglName' => '_ZNSt14basic_ifstreamIcSt11char_traitsIcEEC1ERKNSt7__cxx1112basic_stringIcS1_SaIcEEESt13_Ios_Openmode',
                                          'Param' => {
                                                       '0' => {
                                                                'name' => 'p1',
                                                                'type' => undef
                                                              },
                                                       '1' => {
                                                                'name' => 'p2',
                                                                'type' => undef
                                                              },
                                                       '2' => {
                                                                'name' => 'p3',
                                                                'type' => undef
                                                              }
                                                     },
                                          'ShortName' => 'basic_ifstream'
                                        },
                            '136537' => {
                                          'Artificial' => 1,
                                          'Class' => '119440',
                                          'Constructor' => 1,
                                          'Header' => 'fstream',
                                          'InLine' => 1,
                                          'Line' => '602',
                                          'MnglName' => '_ZNSt14basic_ifstreamIcSt11char_traitsIcEEC2ERKNSt7__cxx1112basic_stringIcS1_SaIcEEESt13_Ios_Openmode',
                                          'Param' => {
                                                       '0' => {
                                                                'name' => 'p1',
                                                                'type' => undef
                                                              },
                                                       '1' => {
                                                                'name' => 'p2',
                                                                'type' => undef
                                                              },
                                                       '2' => {
                                                                'name' => 'p3',
                                                                'type' => undef
                                                              }
                                                     },
                                          'ShortName' => 'basic_ifstream'
                                        },
                            '136616' => {
                                          'Artificial' => 1,
                                          'Class' => '5196',
                                          'Constructor' => 1,
                                          'Header' => 'basic_string.h',
                                          'InLine' => 1,
                                          'Line' => '800',
                                          'MnglName' => '_ZNSt7__cxx1112basic_stringIcSt11char_traitsIcESaIcEEC2ISt17basic_string_viewIcS2_EvEERKT_RKS3_',
                                          'Param' => {
                                                       '0' => {
                                                                'name' => 'this',
                                                                'type' => '59782'
                                                              },
                                                       '1' => {
                                                                'name' => '__t',
                                                                'type' => '18661'
                                                              },
                                                       '2' => {
                                                                'name' => '__a',
                                                                'type' => '15278'
                                                              }
                                                     },
                                          'ShortName' => 'basic_string<std::basic_string_view<char> >',
                                          'TParam' => {
                                                        '0' => {
                                                                 'key' => '_Tp',
                                                                 'type' => '1897'
                                                               }
                                                      }
                                        },
                            '136617' => {
                                          'Artificial' => 1,
                                          'Class' => '5196',
                                          'Constructor' => 1,
                                          'Header' => 'basic_string.h',
                                          'InLine' => 1,
                                          'Line' => '800',
                                          'MnglName' => '_ZNSt7__cxx1112basic_stringIcSt11char_traitsIcESaIcEEC1ISt17basic_string_viewIcS2_EvEERKT_RKS3_',
                                          'Param' => {
                                                       '0' => {
                                                                'name' => 'this',
                                                                'type' => '59782'
                                                              },
                                                       '1' => {
                                                                'name' => '__t',
                                                                'type' => '18661'
                                                              },
                                                       '2' => {
                                                                'name' => '__a',
                                                                'type' => '15278'
                                                              }
                                                     },
                                          'ShortName' => 'basic_string<std::basic_string_view<char> >',
                                          'TParam' => {
                                                        '0' => {
                                                                 'key' => '_Tp',
                                                                 'type' => '1897'
                                                               }
                                                      }
                                        },
                            '136749' => {
                                          'Artificial' => 1,
                                          'Class' => '5196',
                                          'Constructor' => 1,
                                          'Header' => 'basic_string.h',
                                          'InLine' => 1,
                                          'Line' => '624',
                                          'MnglName' => '_ZNSt7__cxx1112basic_stringIcSt11char_traitsIcESaIcEEC2EPKcmRKS3_',
                                          'Param' => {
                                                       '0' => {
                                                                'name' => 'this',
                                                                'type' => '59782'
                                                              },
                                                       '1' => {
                                                                'name' => '__s',
                                                                'type' => '15986'
                                                              },
                                                       '2' => {
                                                                'name' => '__n',
                                                                'type' => '5381'
                                                              },
                                                       '3' => {
                                                                'name' => '__a',
                                                                'type' => '15278'
                                                              }
                                                     },
                                          'ShortName' => 'basic_string'
                                        },
                            '136750' => {
                                          'Artificial' => 1,
                                          'Class' => '5196',
                                          'Constructor' => 1,
                                          'Header' => 'basic_string.h',
                                          'InLine' => 1,
                                          'Line' => '624',
                                          'MnglName' => '_ZNSt7__cxx1112basic_stringIcSt11char_traitsIcESaIcEEC1EPKcmRKS3_',
                                          'Param' => {
                                                       '0' => {
                                                                'name' => 'this',
                                                                'type' => '59782'
                                                              },
                                                       '1' => {
                                                                'name' => '__s',
                                                                'type' => '15986'
                                                              },
                                                       '2' => {
                                                                'name' => '__n',
                                                                'type' => '5381'
                                                              },
                                                       '3' => {
                                                                'name' => '__a',
                                                                'type' => '15278'
                                                              }
                                                     },
                                          'ShortName' => 'basic_string'
                                        },
                            '137881' => {
                                          'Artificial' => 1,
                                          'Class' => '130613',
                                          'Constructor' => 1,
                                          'InLine' => 1,
                                          'Line' => '48',
                                          'MnglName' => '_ZN4zeno7reflect18FileWritableStreamC2ESt17basic_string_viewIcSt11char_traitsIcEE',
                                          'Param' => {
                                                       '0' => {
                                                                'name' => 'this',
                                                                'type' => '132429'
                                                              },
                                                       '1' => {
                                                                'name' => 'file_path',
                                                                'type' => '109161'
                                                              }
                                                     },
                                          'ShortName' => 'FileWritableStream',
                                          'Source' => 'file_stream.cpp'
                                        },
                            '137882' => {
                                          'Artificial' => 1,
                                          'Class' => '130613',
                                          'Constructor' => 1,
                                          'InLine' => 1,
                                          'Line' => '48',
                                          'MnglName' => '_ZN4zeno7reflect18FileWritableStreamC1ESt17basic_string_viewIcSt11char_traitsIcEE',
                                          'Param' => {
                                                       '0' => {
                                                                'name' => 'this',
                                                                'type' => '132429'
                                                              },
                                                       '1' => {
                                                                'name' => 'file_path',
                                                                'type' => '109161'
                                                              }
                                                     },
                                          'ShortName' => 'FileWritableStream',
                                          'Source' => 'file_stream.cpp'
                                        },
                            '138100' => {
                                          'Artificial' => 1,
                                          'Class' => '28130',
                                          'Destructor' => 1,
                                          'Header' => 'serialization.hpp',
                                          'InLine' => 1,
                                          'Line' => '54',
                                          'MnglName' => '_ZN4zeno7reflect15IWritableStreamD0Ev',
                                          'Param' => {
                                                       '0' => {
                                                                'name' => 'this',
                                                                'type' => '132142'
                                                              }
                                                     },
                                          'ShortName' => 'IWritableStream',
                                          'Virt' => 1
                                        },
                            '138101' => {
                                          'Artificial' => 1,
                                          'Class' => '28130',
                                          'Destructor' => 1,
                                          'Header' => 'serialization.hpp',
                                          'InLine' => 1,
                                          'Line' => '54',
                                          'MnglName' => '_ZN4zeno7reflect15IWritableStreamD1Ev',
                                          'Param' => {
                                                       '0' => {
                                                                'name' => 'this',
                                                                'type' => '132142'
                                                              }
                                                     },
                                          'ShortName' => 'IWritableStream',
                                          'Virt' => 1
                                        },
                            '138144' => {
                                          'Artificial' => 1,
                                          'Class' => '28130',
                                          'Destructor' => 1,
                                          'Header' => 'serialization.hpp',
                                          'InLine' => 1,
                                          'Line' => '54',
                                          'MnglName' => '_ZN4zeno7reflect15IWritableStreamD2Ev',
                                          'Param' => {
                                                       '0' => {
                                                                'name' => 'this',
                                                                'type' => '132142'
                                                              }
                                                     },
                                          'ShortName' => 'IWritableStream',
                                          'Virt' => 1
                                        },
                            '138214' => {
                                          'Artificial' => 1,
                                          'Class' => '28130',
                                          'Constructor' => 1,
                                          'Header' => 'serialization.hpp',
                                          'InLine' => 1,
                                          'Line' => '52',
                                          'MnglName' => '_ZN4zeno7reflect15IWritableStreamC2Ev',
                                          'Param' => {
                                                       '0' => {
                                                                'name' => 'this',
                                                                'type' => '132142'
                                                              }
                                                     },
                                          'ShortName' => 'IWritableStream'
                                        },
                            '138215' => {
                                          'Artificial' => 1,
                                          'Class' => '28130',
                                          'Constructor' => 1,
                                          'Header' => 'serialization.hpp',
                                          'InLine' => 1,
                                          'Line' => '52',
                                          'MnglName' => '_ZN4zeno7reflect15IWritableStreamC1Ev',
                                          'Param' => {
                                                       '0' => {
                                                                'name' => 'this',
                                                                'type' => '132142'
                                                              }
                                                     },
                                          'ShortName' => 'IWritableStream'
                                        },
                            '138471' => {
                                          'Artificial' => 1,
                                          'Class' => '129879',
                                          'Constructor' => 1,
                                          'InLine' => 1,
                                          'Line' => '16',
                                          'MnglName' => '_ZN4zeno7reflect18FileReadableStreamC2ESt17basic_string_viewIcSt11char_traitsIcEE',
                                          'Param' => {
                                                       '0' => {
                                                                'name' => 'this',
                                                                'type' => '132384'
                                                              },
                                                       '1' => {
                                                                'name' => 'file_path',
                                                                'type' => '109161'
                                                              }
                                                     },
                                          'ShortName' => 'FileReadableStream',
                                          'Source' => 'file_stream.cpp'
                                        },
                            '138472' => {
                                          'Artificial' => 1,
                                          'Class' => '129879',
                                          'Constructor' => 1,
                                          'InLine' => 1,
                                          'Line' => '16',
                                          'MnglName' => '_ZN4zeno7reflect18FileReadableStreamC1ESt17basic_string_viewIcSt11char_traitsIcEE',
                                          'Param' => {
                                                       '0' => {
                                                                'name' => 'this',
                                                                'type' => '132384'
                                                              },
                                                       '1' => {
                                                                'name' => 'file_path',
                                                                'type' => '109161'
                                                              }
                                                     },
                                          'ShortName' => 'FileReadableStream',
                                          'Source' => 'file_stream.cpp'
                                        },
                            '138690' => {
                                          'Artificial' => 1,
                                          'Class' => '27501',
                                          'Destructor' => 1,
                                          'Header' => 'serialization.hpp',
                                          'InLine' => 1,
                                          'Line' => '39',
                                          'MnglName' => '_ZN4zeno7reflect15IReadableStreamD0Ev',
                                          'Param' => {
                                                       '0' => {
                                                                'name' => 'this',
                                                                'type' => '132097'
                                                              }
                                                     },
                                          'ShortName' => 'IReadableStream',
                                          'Virt' => 1
                                        },
                            '138691' => {
                                          'Artificial' => 1,
                                          'Class' => '27501',
                                          'Destructor' => 1,
                                          'Header' => 'serialization.hpp',
                                          'InLine' => 1,
                                          'Line' => '39',
                                          'MnglName' => '_ZN4zeno7reflect15IReadableStreamD1Ev',
                                          'Param' => {
                                                       '0' => {
                                                                'name' => 'this',
                                                                'type' => '132097'
                                                              }
                                                     },
                                          'ShortName' => 'IReadableStream',
                                          'Virt' => 1
                                        },
                            '138734' => {
                                          'Artificial' => 1,
                                          'Class' => '27501',
                                          'Destructor' => 1,
                                          'Header' => 'serialization.hpp',
                                          'InLine' => 1,
                                          'Line' => '39',
                                          'MnglName' => '_ZN4zeno7reflect15IReadableStreamD2Ev',
                                          'Param' => {
                                                       '0' => {
                                                                'name' => 'this',
                                                                'type' => '132097'
                                                              }
                                                     },
                                          'ShortName' => 'IReadableStream',
                                          'Virt' => 1
                                        },
                            '138804' => {
                                          'Artificial' => 1,
                                          'Class' => '27501',
                                          'Constructor' => 1,
                                          'Header' => 'serialization.hpp',
                                          'InLine' => 1,
                                          'Line' => '37',
                                          'MnglName' => '_ZN4zeno7reflect15IReadableStreamC2Ev',
                                          'Param' => {
                                                       '0' => {
                                                                'name' => 'this',
                                                                'type' => '132097'
                                                              }
                                                     },
                                          'ShortName' => 'IReadableStream'
                                        },
                            '138805' => {
                                          'Artificial' => 1,
                                          'Class' => '27501',
                                          'Constructor' => 1,
                                          'Header' => 'serialization.hpp',
                                          'InLine' => 1,
                                          'Line' => '37',
                                          'MnglName' => '_ZN4zeno7reflect15IReadableStreamC1Ev',
                                          'Param' => {
                                                       '0' => {
                                                                'name' => 'this',
                                                                'type' => '132097'
                                                              }
                                                     },
                                          'ShortName' => 'IReadableStream'
                                        },
                            '1400' => {
                                        'Class' => '1388',
                                        'Header' => 'char_traits.h',
                                        'InLine' => 2,
                                        'Line' => '343',
                                        'MnglName' => '_ZNSt11char_traitsIcE6assignERcRKc',
                                        'Param' => {
                                                     '0' => {
                                                              'name' => '__c1',
                                                              'type' => '18009'
                                                            },
                                                     '1' => {
                                                              'name' => '__c2',
                                                              'type' => '18014'
                                                            }
                                                   },
                                        'Return' => '1',
                                        'ShortName' => 'assign',
                                        'Static' => 1
                                      },
                            '153327' => {
                                          'Artificial' => 1,
                                          'Class' => '23988',
                                          'Destructor' => 1,
                                          'Header' => 'arraylist',
                                          'InLine' => 1,
                                          'Line' => '51',
                                          'MnglName' => '_ZN4zeno7reflect9ArrayListIPNS0_3AnyEED1Ev',
                                          'Param' => {
                                                       '0' => {
                                                                'name' => 'this',
                                                                'type' => '29833'
                                                              }
                                                     },
                                          'ShortName' => 'ArrayList'
                                        },
                            '153328' => {
                                          'Artificial' => 1,
                                          'Class' => '27700',
                                          'Destructor' => 1,
                                          'Header' => 'unique_ptr',
                                          'InLine' => 1,
                                          'Line' => '42',
                                          'MnglName' => '_ZN4zeno7reflect9UniquePtrINS0_15IWritableStreamEED1Ev',
                                          'Param' => {
                                                       '0' => {
                                                                'name' => 'this',
                                                                'type' => '30052'
                                                              }
                                                     },
                                          'ShortName' => 'UniquePtr'
                                        },
                            '153329' => {
                                          'Artificial' => 1,
                                          'Class' => '27071',
                                          'Destructor' => 1,
                                          'Header' => 'unique_ptr',
                                          'InLine' => 1,
                                          'Line' => '42',
                                          'MnglName' => '_ZN4zeno7reflect9UniquePtrINS0_15IReadableStreamEED1Ev',
                                          'Param' => {
                                                       '0' => {
                                                                'name' => 'this',
                                                                'type' => '30007'
                                                              }
                                                     },
                                          'ShortName' => 'UniquePtr'
                                        },
                            '153330' => {
                                          'Artificial' => 1,
                                          'Class' => '26388',
                                          'Destructor' => 1,
                                          'Header' => 'unique_ptr',
                                          'InLine' => 1,
                                          'Line' => '42',
                                          'MnglName' => '_ZN4zeno7reflect9UniquePtrINS0_11ISerializerEED1Ev',
                                          'Param' => {
                                                       '0' => {
                                                                'name' => 'this',
                                                                'type' => '29962'
                                                              }
                                                     },
                                          'ShortName' => 'UniquePtr'
                                        },
                            '153331' => {
                                          'Artificial' => 1,
                                          'Class' => '22250',
                                          'Destructor' => 1,
                                          'Header' => 'any',
                                          'InLine' => 1,
                                          'Line' => '128',
                                          'MnglName' => '_ZN4zeno7reflect3AnyD1Ev',
                                          'Param' => {
                                                       '0' => {
                                                                'name' => 'this',
                                                                'type' => '29758'
                                                              }
                                                     },
                                          'ShortName' => 'Any'
                                        },
                            '153333' => {
                                          'Artificial' => 1,
                                          'Class' => '89617',
                                          'Destructor' => 1,
                                          'Header' => 'basic_string.tcc',
                                          'InLine' => 1,
                                          'Line' => '242',
                                          'MnglName' => '_ZZNSt7__cxx1112basic_stringIcSt11char_traitsIcESaIcEE12_M_constructIPcEEvT_S7_St20forward_iterator_tagEN6_GuardD1Ev',
                                          'Param' => {
                                                       '0' => {
                                                                'name' => 'this',
                                                                'type' => '89749'
                                                              }
                                                     }
                                        },
                            '153334' => {
                                          'Artificial' => 1,
                                          'Class' => '71271',
                                          'Destructor' => 1,
                                          'Header' => 'unique_ptr',
                                          'InLine' => 1,
                                          'Line' => '42',
                                          'MnglName' => '_ZN4zeno7reflect9UniquePtrINS0_23DefaultBinarySerializerEED1Ev',
                                          'Param' => {
                                                       '0' => {
                                                                'name' => 'this',
                                                                'type' => '76642'
                                                              }
                                                     },
                                          'ShortName' => 'UniquePtr'
                                        },
                            '153335' => {
                                          'Artificial' => 1,
                                          'Class' => '5196',
                                          'Destructor' => 1,
                                          'Header' => 'basic_string.h',
                                          'InLine' => 1,
                                          'Line' => '808',
                                          'MnglName' => '_ZNSt7__cxx1112basic_stringIcSt11char_traitsIcESaIcEED1Ev',
                                          'Param' => {
                                                       '0' => {
                                                                'name' => 'this',
                                                                'type' => '59782'
                                                              }
                                                     },
                                          'ShortName' => 'basic_string'
                                        },
                            '153336' => {
                                          'Artificial' => 1,
                                          'Class' => '542',
                                          'Destructor' => 1,
                                          'Header' => 'allocator.h',
                                          'InLine' => 1,
                                          'Line' => '182',
                                          'MnglName' => '_ZNSaIcED1Ev',
                                          'Param' => {
                                                       '0' => {
                                                                'name' => 'this',
                                                                'type' => '57489'
                                                              }
                                                     },
                                          'ShortName' => 'allocator'
                                        },
                            '153337' => {
                                          'Artificial' => 1,
                                          'Class' => '5209',
                                          'Destructor' => 1,
                                          'Header' => 'basic_string.h',
                                          'InLine' => 1,
                                          'Line' => '186',
                                          'MnglName' => '_ZNSt7__cxx1112basic_stringIcSt11char_traitsIcESaIcEE12_Alloc_hiderD1Ev',
                                          'Param' => {
                                                       '0' => {
                                                                'name' => 'this',
                                                                'type' => '59746'
                                                              }
                                                     },
                                          'ShortName' => '_Alloc_hider'
                                        },
                            '153338' => {
                                          'Artificial' => 1,
                                          'Class' => '89617',
                                          'Destructor' => 1,
                                          'Header' => 'basic_string.tcc',
                                          'InLine' => 1,
                                          'Line' => '242',
                                          'MnglName' => '_ZZNSt7__cxx1112basic_stringIcSt11char_traitsIcESaIcEE12_M_constructIPKcEEvT_S8_St20forward_iterator_tagEN6_GuardD1Ev',
                                          'Param' => {
                                                       '0' => {
                                                                'name' => 'this',
                                                                'type' => '89749'
                                                              }
                                                     }
                                        },
                            '153339' => {
                                          'Artificial' => 1,
                                          'Class' => '130151',
                                          'Destructor' => 1,
                                          'Header' => 'unique_ptr',
                                          'InLine' => 1,
                                          'Line' => '42',
                                          'MnglName' => '_ZN4zeno7reflect9UniquePtrINS0_18FileWritableStreamEED1Ev',
                                          'Param' => {
                                                       '0' => {
                                                                'name' => 'this',
                                                                'type' => '132394'
                                                              }
                                                     },
                                          'ShortName' => 'UniquePtr'
                                        },
                            '153340' => {
                                          'Artificial' => 1,
                                          'Class' => '129417',
                                          'Destructor' => 1,
                                          'Header' => 'unique_ptr',
                                          'InLine' => 1,
                                          'Line' => '42',
                                          'MnglName' => '_ZN4zeno7reflect9UniquePtrINS0_18FileReadableStreamEED1Ev',
                                          'Param' => {
                                                       '0' => {
                                                                'name' => 'this',
                                                                'type' => '132349'
                                                              }
                                                     },
                                          'ShortName' => 'UniquePtr'
                                        },
                            '153341' => {
                                          'Artificial' => 1,
                                          'Class' => '119283',
                                          'Destructor' => 1,
                                          'Header' => 'fstream',
                                          'InLine' => 1,
                                          'Line' => '911',
                                          'MnglName' => '_ZNSt14basic_ofstreamIcSt11char_traitsIcEED2Ev',
                                          'Param' => {
                                                       '0' => {
                                                                'name' => 'p1',
                                                                'type' => undef
                                                              }
                                                     },
                                          'ShortName' => 'basic_ofstream',
                                          'Virt' => 1
                                        },
                            '153342' => {
                                          'Artificial' => 1,
                                          'Class' => '119440',
                                          'Destructor' => 1,
                                          'Header' => 'fstream',
                                          'InLine' => 1,
                                          'Line' => '639',
                                          'MnglName' => '_ZNSt14basic_ifstreamIcSt11char_traitsIcEED2Ev',
                                          'Param' => {
                                                       '0' => {
                                                                'name' => 'p1',
                                                                'type' => undef
                                                              }
                                                     },
                                          'ShortName' => 'basic_ifstream',
                                          'Virt' => 1
                                        },
                            '1604' => {
                                        'Class' => '1388',
                                        'Header' => 'char_traits.h',
                                        'InLine' => 2,
                                        'Line' => '407',
                                        'MnglName' => '_ZNSt11char_traitsIcE4moveEPcPKcm',
                                        'Param' => {
                                                     '0' => {
                                                              'name' => '__s1',
                                                              'type' => '18024'
                                                            },
                                                     '1' => {
                                                              'name' => '__s2',
                                                              'type' => '18019'
                                                            },
                                                     '2' => {
                                                              'name' => '__n',
                                                              'type' => '55'
                                                            }
                                                   },
                                        'Return' => '18024',
                                        'ShortName' => 'move',
                                        'Static' => 1
                                      },
                            '1641' => {
                                        'Class' => '1388',
                                        'Header' => 'char_traits.h',
                                        'InLine' => 2,
                                        'Line' => '419',
                                        'MnglName' => '_ZNSt11char_traitsIcE4copyEPcPKcm',
                                        'Param' => {
                                                     '0' => {
                                                              'name' => '__s1',
                                                              'type' => '18024'
                                                            },
                                                     '1' => {
                                                              'name' => '__s2',
                                                              'type' => '18019'
                                                            },
                                                     '2' => {
                                                              'name' => '__n',
                                                              'type' => '55'
                                                            }
                                                   },
                                        'Return' => '18024',
                                        'ShortName' => 'copy',
                                        'Static' => 1
                                      },
                            '1678' => {
                                        'Class' => '1388',
                                        'Header' => 'char_traits.h',
                                        'InLine' => 2,
                                        'Line' => '431',
                                        'MnglName' => '_ZNSt11char_traitsIcE6assignEPcmc',
                                        'Param' => {
                                                     '0' => {
                                                              'name' => '__s',
                                                              'type' => '18024'
                                                            },
                                                     '1' => {
                                                              'name' => '__n',
                                                              'type' => '55'
                                                            },
                                                     '2' => {
                                                              'name' => '__a',
                                                              'type' => '1427'
                                                            }
                                                   },
                                        'Return' => '18024',
                                        'ShortName' => 'assign',
                                        'Static' => 1
                                      },
                            '22418' => {
                                         'Class' => '22250',
                                         'Header' => 'any',
                                         'InLine' => 2,
                                         'Line' => '172',
                                         'MnglName' => '_ZN4zeno7reflect3AnyaSEOS1_',
                                         'Param' => {
                                                      '0' => {
                                                               'name' => 'this',
                                                               'type' => '29758'
                                                             },
                                                      '1' => {
                                                               'name' => 'other',
                                                               'type' => '29768'
                                                             }
                                                    },
                                         'Return' => '29773',
                                         'ShortName' => 'operator='
                                       },
                            '22454' => {
                                         'Class' => '22250',
                                         'Const' => 1,
                                         'Header' => 'any',
                                         'InLine' => 2,
                                         'Line' => '183',
                                         'MnglName' => '_ZNK4zeno7reflect3AnycvbEv',
                                         'Param' => {
                                                      '0' => {
                                                               'name' => 'this',
                                                               'type' => '29783'
                                                             }
                                                    },
                                         'Return' => '13581',
                                         'ShortName' => 'operator bool'
                                       },
                            '22547' => {
                                         'Class' => '22250',
                                         'Header' => 'any',
                                         'InLine' => 2,
                                         'Line' => '216',
                                         'MnglName' => '_ZN4zeno7reflect3Any4swapERS1_',
                                         'Param' => {
                                                      '0' => {
                                                               'name' => 'this',
                                                               'type' => '29758'
                                                             },
                                                      '1' => {
                                                               'name' => 'other',
                                                               'type' => '29773'
                                                             }
                                                    },
                                         'Return' => '1',
                                         'ShortName' => 'swap'
                                       },
                            '22578' => {
                                         'Class' => '22250',
                                         'Const' => 1,
                                         'Header' => 'any',
                                         'InLine' => 2,
                                         'Line' => '222',
                                         'MnglName' => '_ZNK4zeno7reflect3Any9has_valueEv',
                                         'Param' => {
                                                      '0' => {
                                                               'name' => 'this',
                                                               'type' => '29783'
                                                             }
                                                    },
                                         'Return' => '13581',
                                         'ShortName' => 'has_value'
                                       },
                            '22609' => {
                                         'Class' => '22250',
                                         'Header' => 'any',
                                         'InLine' => 2,
                                         'Line' => '226',
                                         'MnglName' => '_ZN4zeno7reflect3Any5resetEv',
                                         'Param' => {
                                                      '0' => {
                                                               'name' => 'this',
                                                               'type' => '29758'
                                                             }
                                                    },
                                         'Return' => '1',
                                         'ShortName' => 'reset'
                                       },
                            '22635' => {
                                         'Class' => '22250',
                                         'Const' => 1,
                                         'Header' => 'any',
                                         'InLine' => 2,
                                         'Line' => '233',
                                         'MnglName' => '_ZNK4zeno7reflect3Any4typeEv',
                                         'Param' => {
                                                      '0' => {
                                                               'name' => 'this',
                                                               'type' => '29783'
                                                             }
                                                    },
                                         'Return' => '29699',
                                         'ShortName' => 'type'
                                       },
                            '22666' => {
                                         'Class' => '22250',
                                         'Header' => 'any',
                                         'InLine' => 2,
                                         'Line' => '238',
                                         'MnglName' => '_ZN4zeno7reflect3Any9make_nullEv',
                                         'Return' => '22250',
                                         'ShortName' => 'make_null',
                                         'Static' => 1
                                       },
                            '22931' => {
                                         'Class' => '22816',
                                         'Const' => 1,
                                         'Header' => 'any',
                                         'Line' => '29',
                                         'MnglName' => '_ZNK4zeno7reflect3any10IContainer4typeEv',
                                         'Param' => {
                                                      '0' => {
                                                               'name' => 'this',
                                                               'type' => '30328'
                                                             }
                                                    },
                                         'PureVirt' => 1,
                                         'Return' => '29699',
                                         'ShortName' => 'type',
                                         'VirtPos' => '2'
                                       },
                            '22968' => {
                                         'Class' => '22816',
                                         'Const' => 1,
                                         'Header' => 'any',
                                         'Line' => '30',
                                         'MnglName' => '_ZNK4zeno7reflect3any10IContainer7is_typeERKNS0_12RTTITypeInfoE',
                                         'Param' => {
                                                      '0' => {
                                                               'name' => 'this',
                                                               'type' => '30328'
                                                             },
                                                      '1' => {
                                                               'name' => 'p1',
                                                               'type' => '29699'
                                                             }
                                                    },
                                         'PureVirt' => 1,
                                         'Return' => '13581',
                                         'ShortName' => 'is_type',
                                         'VirtPos' => '3'
                                       },
                            '23010' => {
                                         'Class' => '22816',
                                         'Const' => 1,
                                         'Header' => 'any',
                                         'Line' => '31',
                                         'MnglName' => '_ZNK4zeno7reflect3any10IContainer5cloneEv',
                                         'Param' => {
                                                      '0' => {
                                                               'name' => 'this',
                                                               'type' => '30328'
                                                             }
                                                    },
                                         'PureVirt' => 1,
                                         'Return' => '29788',
                                         'ShortName' => 'clone',
                                         'VirtPos' => '4'
                                       },
                            '23047' => {
                                         'Class' => '22816',
                                         'Const' => 1,
                                         'Header' => 'any',
                                         'Line' => '32',
                                         'MnglName' => '_ZNK4zeno7reflect3any10IContainer17is_convertible_toERKNS0_12RTTITypeInfoE',
                                         'Param' => {
                                                      '0' => {
                                                               'name' => 'this',
                                                               'type' => '30328'
                                                             },
                                                      '1' => {
                                                               'name' => 'p1',
                                                               'type' => '29699'
                                                             }
                                                    },
                                         'PureVirt' => 1,
                                         'Return' => '22194',
                                         'ShortName' => 'is_convertible_to',
                                         'VirtPos' => '5'
                                       },
                            '23089' => {
                                         'Class' => '22816',
                                         'Const' => 1,
                                         'Header' => 'any',
                                         'Line' => '33',
                                         'MnglName' => '_ZNK4zeno7reflect3any10IContainer19get_data_ptr_unsafeEv',
                                         'Param' => {
                                                      '0' => {
                                                               'name' => 'this',
                                                               'type' => '30328'
                                                             }
                                                    },
                                         'PureVirt' => 1,
                                         'Return' => '15293',
                                         'ShortName' => 'get_data_ptr_unsafe',
                                         'VirtPos' => '6'
                                       },
                            '23126' => {
                                         'Class' => '22816',
                                         'Header' => 'any',
                                         'Line' => '34',
                                         'MnglName' => '_ZN4zeno7reflect3any10IContainer19is_enable_from_thisEv',
                                         'Param' => {
                                                      '0' => {
                                                               'name' => 'this',
                                                               'type' => '29788'
                                                             }
                                                    },
                                         'PureVirt' => 1,
                                         'Return' => '13581',
                                         'ShortName' => 'is_enable_from_this',
                                         'VirtPos' => '7'
                                       },
                            '23265' => {
                                         'Class' => '23164',
                                         'Const' => 1,
                                         'Header' => 'any',
                                         'InLine' => 2,
                                         'Line' => '51',
                                         'MnglName' => '_ZNK4zeno7reflect3any18TEnableAnyFromThisINS0_7ArchiveEE4typeEv',
                                         'Param' => {
                                                      '0' => {
                                                               'name' => 'this',
                                                               'type' => '30281'
                                                             }
                                                    },
                                         'Return' => '29699',
                                         'ShortName' => 'type',
                                         'Virt' => 1,
                                         'VirtPos' => '2'
                                       },
                            '23302' => {
                                         'Class' => '23164',
                                         'Const' => 1,
                                         'Header' => 'any',
                                         'InLine' => 2,
                                         'Line' => '55',
                                         'MnglName' => '_ZNK4zeno7reflect3any18TEnableAnyFromThisINS0_7ArchiveEE7is_typeERKNS0_12RTTITypeInfoE',
                                         'Param' => {
                                                      '0' => {
                                                               'name' => 'this',
                                                               'type' => '30281'
                                                             },
                                                      '1' => {
                                                               'name' => 'other_type',
                                                               'type' => '29699'
                                                             }
                                                    },
                                         'Return' => '13581',
                                         'ShortName' => 'is_type',
                                         'Virt' => 1,
                                         'VirtPos' => '3'
                                       },
                            '23344' => {
                                         'Class' => '23164',
                                         'Const' => 1,
                                         'Header' => 'any',
                                         'InLine' => 2,
                                         'Line' => '59',
                                         'MnglName' => '_ZNK4zeno7reflect3any18TEnableAnyFromThisINS0_7ArchiveEE17is_convertible_toERKNS0_12RTTITypeInfoE',
                                         'Param' => {
                                                      '0' => {
                                                               'name' => 'this',
                                                               'type' => '30281'
                                                             },
                                                      '1' => {
                                                               'name' => 'other_type',
                                                               'type' => '29699'
                                                             }
                                                    },
                                         'Return' => '22194',
                                         'ShortName' => 'is_convertible_to',
                                         'Virt' => 1,
                                         'VirtPos' => '5'
                                       },
                            '23386' => {
                                         'Class' => '23164',
                                         'Const' => 1,
                                         'Header' => 'any',
                                         'InLine' => 2,
                                         'Line' => '91',
                                         'MnglName' => '_ZNK4zeno7reflect3any18TEnableAnyFromThisINS0_7ArchiveEE5cloneEv',
                                         'Param' => {
                                                      '0' => {
                                                               'name' => 'this',
                                                               'type' => '30281'
                                                             }
                                                    },
                                         'Return' => '29788',
                                         'ShortName' => 'clone',
                                         'Virt' => 1,
                                         'VirtPos' => '4'
                                       },
                            '23423' => {
                                         'Class' => '23164',
                                         'Const' => 1,
                                         'Header' => 'any',
                                         'InLine' => 2,
                                         'Line' => '99',
                                         'MnglName' => '_ZNK4zeno7reflect3any18TEnableAnyFromThisINS0_7ArchiveEE19get_data_ptr_unsafeEv',
                                         'Param' => {
                                                      '0' => {
                                                               'name' => 'this',
                                                               'type' => '30281'
                                                             }
                                                    },
                                         'Return' => '15293',
                                         'ShortName' => 'get_data_ptr_unsafe',
                                         'Virt' => 1,
                                         'VirtPos' => '6'
                                       },
                            '23460' => {
                                         'Class' => '23164',
                                         'Header' => 'any',
                                         'InLine' => 2,
                                         'Line' => '103',
                                         'MnglName' => '_ZN4zeno7reflect3any18TEnableAnyFromThisINS0_7ArchiveEE19is_enable_from_thisEv',
                                         'Param' => {
                                                      '0' => {
                                                               'name' => 'this',
                                                               'type' => '30261'
                                                             }
                                                    },
                                         'Return' => '13581',
                                         'ShortName' => 'is_enable_from_this',
                                         'Virt' => 1,
                                         'VirtPos' => '7'
                                       },
                            '23497' => {
                                         'Class' => '23164',
                                         'Header' => 'any',
                                         'InLine' => 2,
                                         'Line' => '668',
                                         'MnglName' => '_ZN4zeno7reflect3any18TEnableAnyFromThisINS0_7ArchiveEE6to_anyEv',
                                         'Param' => {
                                                      '0' => {
                                                               'name' => 'this',
                                                               'type' => '30261'
                                                             }
                                                    },
                                         'Return' => '22250',
                                         'ShortName' => 'to_any'
                                       },
                            '2375' => {
                                        'Class' => '1897',
                                        'Const' => 1,
                                        'Header' => 'string_view',
                                        'InLine' => 2,
                                        'Line' => '229',
                                        'MnglName' => '_ZNKSt17basic_string_viewIcSt11char_traitsIcEE4sizeEv',
                                        'Param' => {
                                                     '0' => {
                                                              'name' => 'this',
                                                              'type' => '125958'
                                                            }
                                                   },
                                        'Return' => '1910',
                                        'ShortName' => 'size'
                                      },
                            '23951' => {
                                         'Class' => '23604',
                                         'Header' => 'type.hpp',
                                         'InLine' => 2,
                                         'Line' => '78',
                                         'MnglName' => '_ZN4zeno7reflect10TypeHandle9from_rttiIbEES1_v',
                                         'Return' => '23604',
                                         'ShortName' => 'from_rtti<bool>',
                                         'Static' => 1,
                                         'TParam' => {
                                                       '0' => {
                                                                'key' => 'T',
                                                                'type' => '13581'
                                                              }
                                                     }
                                       },
                            '24040' => {
                                         'Class' => '23988',
                                         'Header' => 'arraylist',
                                         'InLine' => 2,
                                         'Line' => '27',
                                         'MnglName' => '_ZN4zeno7reflect9ArrayListIPNS0_3AnyEE15resize_internalEv',
                                         'Param' => {
                                                      '0' => {
                                                               'name' => 'this',
                                                               'type' => '29833'
                                                             }
                                                    },
                                         'Private' => 1,
                                         'Return' => '1',
                                         'ShortName' => 'resize_internal'
                                       },
                            '24293' => {
                                         'Class' => '23988',
                                         'Header' => 'arraylist',
                                         'InLine' => 2,
                                         'Line' => '79',
                                         'MnglName' => '_ZN4zeno7reflect9ArrayListIPNS0_3AnyEE8add_itemEOS3_',
                                         'Param' => {
                                                      '0' => {
                                                               'name' => 'this',
                                                               'type' => '29833'
                                                             },
                                                      '1' => {
                                                               'name' => 'value',
                                                               'type' => '29863'
                                                             }
                                                    },
                                         'Return' => '15302',
                                         'ShortName' => 'add_item'
                                       },
                            '24520' => {
                                         'Class' => '23988',
                                         'Header' => 'arraylist',
                                         'InLine' => 2,
                                         'Line' => '138',
                                         'MnglName' => '_ZN4zeno7reflect9ArrayListIPNS0_3AnyEE5resetEv',
                                         'Param' => {
                                                      '0' => {
                                                               'name' => 'this',
                                                               'type' => '29833'
                                                             }
                                                    },
                                         'Return' => '1',
                                         'ShortName' => 'reset'
                                       },
                            '24649' => {
                                         'Class' => '23988',
                                         'Const' => 1,
                                         'Header' => 'arraylist',
                                         'InLine' => 2,
                                         'Line' => '166',
                                         'MnglName' => '_ZNK4zeno7reflect9ArrayListIPNS0_3AnyEE4sizeEv',
                                         'Param' => {
                                                      '0' => {
                                                               'name' => 'this',
                                                               'type' => '29853'
                                                             }
                                                    },
                                         'Return' => '15302',
                                         'ShortName' => 'size'
                                       },
                            '25071' => {
                                         'Class' => '24945',
                                         'Header' => 'serialization.hpp',
                                         'MnglName' => '_ZN4zeno7reflect7Archive9set_flagsEj',
                                         'Param' => {
                                                      '0' => {
                                                               'name' => 'this',
                                                               'type' => '30251'
                                                             },
                                                      '1' => {
                                                               'name' => 'flags',
                                                               'type' => '20652'
                                                             }
                                                    },
                                         'Return' => '29883',
                                         'ShortName' => 'set_flags',
                                         'Source' => 'serialization.cpp',
                                         'SourceLine' => '18'
                                       },
                            '25107' => {
                                         'Class' => '24945',
                                         'Header' => 'serialization.hpp',
                                         'MnglName' => '_ZN4zeno7reflect7Archive9has_flagsEj',
                                         'Param' => {
                                                      '0' => {
                                                               'name' => 'this',
                                                               'type' => '30251'
                                                             },
                                                      '1' => {
                                                               'name' => 'flags',
                                                               'type' => '20652'
                                                             }
                                                    },
                                         'Return' => '13581',
                                         'ShortName' => 'has_flags',
                                         'Source' => 'serialization.cpp',
                                         'SourceLine' => '23'
                                       },
                            '25143' => {
                                         'Class' => '24945',
                                         'Header' => 'serialization.hpp',
                                         'MnglName' => '_ZN4zeno7reflect7Archive14archive_fieldsEPNS0_8TypeBaseEPv',
                                         'Param' => {
                                                      '0' => {
                                                               'name' => 'this',
                                                               'type' => '30251'
                                                             },
                                                      '1' => {
                                                               'name' => 'reflect_type',
                                                               'type' => '29798'
                                                             },
                                                      '2' => {
                                                               'name' => 'object',
                                                               'type' => '15293'
                                                             }
                                                    },
                                         'Return' => '29883',
                                         'ShortName' => 'archive_fields',
                                         'Source' => 'serialization.cpp',
                                         'SourceLine' => '27'
                                       },
                            '25184' => {
                                         'Class' => '24945',
                                         'Header' => 'serialization.hpp',
                                         'MnglName' => '_ZN4zeno7reflect7Archive14archive_fieldsEPNS0_8TypeBaseERNS0_3AnyE',
                                         'Param' => {
                                                      '0' => {
                                                               'name' => 'this',
                                                               'type' => '30251'
                                                             },
                                                      '1' => {
                                                               'name' => 'reflect_type',
                                                               'type' => '29798'
                                                             },
                                                      '2' => {
                                                               'name' => 'object',
                                                               'type' => '29773'
                                                             }
                                                    },
                                         'Protected' => 1,
                                         'Return' => '29883',
                                         'ShortName' => 'archive_fields',
                                         'Source' => 'serialization.cpp',
                                         'SourceLine' => '48'
                                       },
                            '25225' => {
                                         'Class' => '24945',
                                         'Header' => 'serialization.hpp',
                                         'MnglName' => '_ZN4zeno7reflect7Archive11archive_ptrENS0_10TypeHandleEPv',
                                         'Param' => {
                                                      '0' => {
                                                               'name' => 'this',
                                                               'type' => '30251'
                                                             },
                                                      '1' => {
                                                               'name' => 'reflect_type',
                                                               'type' => '23604'
                                                             },
                                                      '2' => {
                                                               'name' => 'value',
                                                               'type' => '15293'
                                                             }
                                                    },
                                         'Protected' => 1,
                                         'Return' => '29883',
                                         'ShortName' => 'archive_ptr',
                                         'Source' => 'serialization.cpp',
                                         'SourceLine' => '69'
                                       },
                            '25266' => {
                                         'Class' => '24945',
                                         'Header' => 'serialization.hpp',
                                         'MnglName' => '_ZN4zeno7reflect7Archive11archive_anyERNS0_3AnyE',
                                         'Param' => {
                                                      '0' => {
                                                               'name' => 'this',
                                                               'type' => '30251'
                                                             },
                                                      '1' => {
                                                               'name' => 'serialize_object',
                                                               'type' => '29773'
                                                             }
                                                    },
                                         'Protected' => 1,
                                         'Return' => '29883',
                                         'ShortName' => 'archive_any',
                                         'Source' => 'serialization.cpp',
                                         'SourceLine' => '91'
                                       },
                            '25302' => {
                                         'Class' => '24945',
                                         'Header' => 'serialization.hpp',
                                         'MnglName' => '_ZN4zeno7reflect7Archive21try_recursive_archiveERNS0_3AnyE',
                                         'Param' => {
                                                      '0' => {
                                                               'name' => 'this',
                                                               'type' => '30251'
                                                             },
                                                      '1' => {
                                                               'name' => 'serialize_object',
                                                               'type' => '29773'
                                                             }
                                                    },
                                         'Protected' => 1,
                                         'Return' => '13581',
                                         'ShortName' => 'try_recursive_archive',
                                         'Source' => 'serialization.cpp',
                                         'SourceLine' => '110'
                                       },
                            '26151' => {
                                         'Class' => '25392',
                                         'Const' => 1,
                                         'Header' => 'arraylist',
                                         'InLine' => 2,
                                         'Line' => '196',
                                         'MnglName' => '_ZNK4zeno7reflect9ArrayListIPNS0_15IMemberFunctionEE5beginEv',
                                         'Param' => {
                                                      '0' => {
                                                               'name' => 'this',
                                                               'type' => '29922'
                                                             }
                                                    },
                                         'Return' => '29952',
                                         'ShortName' => 'begin'
                                       },
                            '26182' => {
                                         'Class' => '25392',
                                         'Const' => 1,
                                         'Header' => 'arraylist',
                                         'InLine' => 2,
                                         'Line' => '200',
                                         'MnglName' => '_ZNK4zeno7reflect9ArrayListIPNS0_15IMemberFunctionEE3endEv',
                                         'Param' => {
                                                      '0' => {
                                                               'name' => 'this',
                                                               'type' => '29922'
                                                             }
                                                    },
                                         'Return' => '29952',
                                         'ShortName' => 'end'
                                       },
                            '2657' => {
                                        'Class' => '1897',
                                        'Const' => 1,
                                        'Header' => 'string_view',
                                        'InLine' => 2,
                                        'Line' => '289',
                                        'MnglName' => '_ZNKSt17basic_string_viewIcSt11char_traitsIcEE4dataEv',
                                        'Param' => {
                                                     '0' => {
                                                              'name' => 'this',
                                                              'type' => '125958'
                                                            }
                                                   },
                                        'Return' => '2644',
                                        'ShortName' => 'data'
                                      },
                            '26611' => {
                                         'Class' => '26388',
                                         'Const' => 1,
                                         'Header' => 'unique_ptr',
                                         'InLine' => 2,
                                         'Line' => '47',
                                         'MnglName' => '_ZNK4zeno7reflect9UniquePtrINS0_11ISerializerEEptEv',
                                         'Param' => {
                                                      '0' => {
                                                               'name' => 'this',
                                                               'type' => '29992'
                                                             }
                                                    },
                                         'Return' => '29997',
                                         'ShortName' => 'operator->'
                                       },
                            '26734' => {
                                         'Class' => '26388',
                                         'Const' => 1,
                                         'Header' => 'unique_ptr',
                                         'InLine' => 2,
                                         'Line' => '63',
                                         'MnglName' => '_ZNK4zeno7reflect9UniquePtrINS0_11ISerializerEE7is_nullEv',
                                         'Param' => {
                                                      '0' => {
                                                               'name' => 'this',
                                                               'type' => '29992'
                                                             }
                                                    },
                                         'Return' => '13581',
                                         'ShortName' => 'is_null'
                                       },
                            '26765' => {
                                         'Class' => '26388',
                                         'Const' => 1,
                                         'Header' => 'unique_ptr',
                                         'InLine' => 2,
                                         'Line' => '65',
                                         'MnglName' => '_ZNK4zeno7reflect9UniquePtrINS0_11ISerializerEEcvbEv',
                                         'Param' => {
                                                      '0' => {
                                                               'name' => 'this',
                                                               'type' => '29992'
                                                             }
                                                    },
                                         'Return' => '13581',
                                         'ShortName' => 'operator bool'
                                       },
                            '26877' => {
                                         'Class' => '26818',
                                         'Header' => 'serialization.hpp',
                                         'Line' => '71',
                                         'MnglName' => '_ZN4zeno7reflect11ISerializer9serializeERNS0_9UniquePtrINS0_15IWritableStreamEEERKNS0_3AnyE',
                                         'Param' => {
                                                      '0' => {
                                                               'name' => 'this',
                                                               'type' => '29997'
                                                             },
                                                      '1' => {
                                                               'name' => 'p1',
                                                               'type' => '30062'
                                                             },
                                                      '2' => {
                                                               'name' => 'p2',
                                                               'type' => '29763'
                                                             }
                                                    },
                                         'PureVirt' => 1,
                                         'Return' => '13581',
                                         'ShortName' => 'serialize',
                                         'VirtPos' => '2'
                                       },
                            '26924' => {
                                         'Class' => '26818',
                                         'Header' => 'serialization.hpp',
                                         'Line' => '72',
                                         'MnglName' => '_ZN4zeno7reflect11ISerializer11deserializeERKNS0_9UniquePtrINS0_15IReadableStreamEEERNS0_3AnyE',
                                         'Param' => {
                                                      '0' => {
                                                               'name' => 'this',
                                                               'type' => '29997'
                                                             },
                                                      '1' => {
                                                               'name' => 'p1',
                                                               'type' => '30012'
                                                             },
                                                      '2' => {
                                                               'name' => 'p2',
                                                               'type' => '29773'
                                                             }
                                                    },
                                         'PureVirt' => 1,
                                         'Return' => '13581',
                                         'ShortName' => 'deserialize',
                                         'VirtPos' => '3'
                                       },
                            '26971' => {
                                         'Class' => '26818',
                                         'Header' => 'serialization.hpp',
                                         'Line' => '73',
                                         'MnglName' => '_ZN4zeno7reflect11ISerializer9serializeERNS0_9UniquePtrINS0_15IWritableStreamEEENS0_10TypeHandleEPKv',
                                         'Param' => {
                                                      '0' => {
                                                               'name' => 'this',
                                                               'type' => '29997'
                                                             },
                                                      '1' => {
                                                               'name' => 'p1',
                                                               'type' => '30062'
                                                             },
                                                      '2' => {
                                                               'name' => 'p2',
                                                               'type' => '23604'
                                                             },
                                                      '3' => {
                                                               'name' => 'p3',
                                                               'type' => '15261'
                                                             }
                                                    },
                                         'PureVirt' => 1,
                                         'Return' => '13581',
                                         'ShortName' => 'serialize',
                                         'VirtPos' => '4'
                                       },
                            '27023' => {
                                         'Class' => '26818',
                                         'Header' => 'serialization.hpp',
                                         'Line' => '74',
                                         'MnglName' => '_ZN4zeno7reflect11ISerializer11deserializeERNS0_9UniquePtrINS0_15IReadableStreamEEENS0_10TypeHandleEPv',
                                         'Param' => {
                                                      '0' => {
                                                               'name' => 'this',
                                                               'type' => '29997'
                                                             },
                                                      '1' => {
                                                               'name' => 'p1',
                                                               'type' => '30017'
                                                             },
                                                      '2' => {
                                                               'name' => 'p2',
                                                               'type' => '23604'
                                                             },
                                                      '3' => {
                                                               'name' => 'p3',
                                                               'type' => '15293'
                                                             }
                                                    },
                                         'PureVirt' => 1,
                                         'Return' => '13581',
                                         'ShortName' => 'deserialize',
                                         'VirtPos' => '5'
                                       },
                            '27294' => {
                                         'Class' => '27071',
                                         'Const' => 1,
                                         'Header' => 'unique_ptr',
                                         'InLine' => 2,
                                         'Line' => '47',
                                         'MnglName' => '_ZNK4zeno7reflect9UniquePtrINS0_15IReadableStreamEEptEv',
                                         'Param' => {
                                                      '0' => {
                                                               'name' => 'this',
                                                               'type' => '30037'
                                                             }
                                                    },
                                         'Return' => '30042',
                                         'ShortName' => 'operator->'
                                       },
                            '27417' => {
                                         'Class' => '27071',
                                         'Const' => 1,
                                         'Header' => 'unique_ptr',
                                         'InLine' => 2,
                                         'Line' => '63',
                                         'MnglName' => '_ZNK4zeno7reflect9UniquePtrINS0_15IReadableStreamEE7is_nullEv',
                                         'Param' => {
                                                      '0' => {
                                                               'name' => 'this',
                                                               'type' => '30037'
                                                             }
                                                    },
                                         'Return' => '13581',
                                         'ShortName' => 'is_null'
                                       },
                            '27448' => {
                                         'Class' => '27071',
                                         'Const' => 1,
                                         'Header' => 'unique_ptr',
                                         'InLine' => 2,
                                         'Line' => '65',
                                         'MnglName' => '_ZNK4zeno7reflect9UniquePtrINS0_15IReadableStreamEEcvbEv',
                                         'Param' => {
                                                      '0' => {
                                                               'name' => 'this',
                                                               'type' => '30037'
                                                             }
                                                    },
                                         'Return' => '13581',
                                         'ShortName' => 'operator bool'
                                       },
                            '27560' => {
                                         'Class' => '27501',
                                         'Header' => 'serialization.hpp',
                                         'Line' => '41',
                                         'MnglName' => '_ZN4zeno7reflect15IReadableStream4readEPhm',
                                         'Param' => {
                                                      '0' => {
                                                               'name' => 'this',
                                                               'type' => '30042'
                                                             },
                                                      '1' => {
                                                               'name' => 'p1',
                                                               'type' => '30318'
                                                             },
                                                      '2' => {
                                                               'name' => 'p2',
                                                               'type' => '15302'
                                                             }
                                                    },
                                         'PureVirt' => 1,
                                         'Return' => '1',
                                         'ShortName' => 'read',
                                         'VirtPos' => '2'
                                       },
                            '27601' => {
                                         'Class' => '27501',
                                         'Header' => 'serialization.hpp',
                                         'Line' => '43',
                                         'MnglName' => '_ZN4zeno7reflect15IReadableStream9next_byteEv',
                                         'Param' => {
                                                      '0' => {
                                                               'name' => 'this',
                                                               'type' => '30042'
                                                             }
                                                    },
                                         'PureVirt' => 1,
                                         'Return' => '20623',
                                         'ShortName' => 'next_byte',
                                         'VirtPos' => '3'
                                       },
                            '27638' => {
                                         'Class' => '27501',
                                         'Header' => 'serialization.hpp',
                                         'Line' => '45',
                                         'MnglName' => '_ZN4zeno7reflect15IReadableStream8is_validEv',
                                         'Param' => {
                                                      '0' => {
                                                               'name' => 'this',
                                                               'type' => '30042'
                                                             }
                                                    },
                                         'PureVirt' => 1,
                                         'Return' => '13581',
                                         'ShortName' => 'is_valid',
                                         'VirtPos' => '4'
                                       },
                            '27923' => {
                                         'Class' => '27700',
                                         'Const' => 1,
                                         'Header' => 'unique_ptr',
                                         'InLine' => 2,
                                         'Line' => '47',
                                         'MnglName' => '_ZNK4zeno7reflect9UniquePtrINS0_15IWritableStreamEEptEv',
                                         'Param' => {
                                                      '0' => {
                                                               'name' => 'this',
                                                               'type' => '30082'
                                                             }
                                                    },
                                         'Return' => '30087',
                                         'ShortName' => 'operator->'
                                       },
                            '28046' => {
                                         'Class' => '27700',
                                         'Const' => 1,
                                         'Header' => 'unique_ptr',
                                         'InLine' => 2,
                                         'Line' => '63',
                                         'MnglName' => '_ZNK4zeno7reflect9UniquePtrINS0_15IWritableStreamEE7is_nullEv',
                                         'Param' => {
                                                      '0' => {
                                                               'name' => 'this',
                                                               'type' => '30082'
                                                             }
                                                    },
                                         'Return' => '13581',
                                         'ShortName' => 'is_null'
                                       },
                            '28077' => {
                                         'Class' => '27700',
                                         'Const' => 1,
                                         'Header' => 'unique_ptr',
                                         'InLine' => 2,
                                         'Line' => '65',
                                         'MnglName' => '_ZNK4zeno7reflect9UniquePtrINS0_15IWritableStreamEEcvbEv',
                                         'Param' => {
                                                      '0' => {
                                                               'name' => 'this',
                                                               'type' => '30082'
                                                             }
                                                    },
                                         'Return' => '13581',
                                         'ShortName' => 'operator bool'
                                       },
                            '28189' => {
                                         'Class' => '28130',
                                         'Header' => 'serialization.hpp',
                                         'Line' => '56',
                                         'MnglName' => '_ZN4zeno7reflect15IWritableStream10write_byteEh',
                                         'Param' => {
                                                      '0' => {
                                                               'name' => 'this',
                                                               'type' => '30087'
                                                             },
                                                      '1' => {
                                                               'name' => 'p1',
                                                               'type' => '20623'
                                                             }
                                                    },
                                         'PureVirt' => 1,
                                         'Return' => '1',
                                         'ShortName' => 'write_byte',
                                         'VirtPos' => '2'
                                       },
                            '28225' => {
                                         'Class' => '28130',
                                         'Header' => 'serialization.hpp',
                                         'Line' => '58',
                                         'MnglName' => '_ZN4zeno7reflect15IWritableStream5writeEPKhm',
                                         'Param' => {
                                                      '0' => {
                                                               'name' => 'this',
                                                               'type' => '30087'
                                                             },
                                                      '1' => {
                                                               'name' => 'p1',
                                                               'type' => '30313'
                                                             },
                                                      '2' => {
                                                               'name' => 'p2',
                                                               'type' => '15302'
                                                             }
                                                    },
                                         'PureVirt' => 1,
                                         'Return' => '1',
                                         'ShortName' => 'write',
                                         'VirtPos' => '3'
                                       },
                            '28266' => {
                                         'Class' => '28130',
                                         'Header' => 'serialization.hpp',
                                         'Line' => '60',
                                         'MnglName' => '_ZN4zeno7reflect15IWritableStream8is_validEv',
                                         'Param' => {
                                                      '0' => {
                                                               'name' => 'this',
                                                               'type' => '30087'
                                                             }
                                                    },
                                         'PureVirt' => 1,
                                         'Return' => '13581',
                                         'ShortName' => 'is_valid',
                                         'VirtPos' => '4'
                                       },
                            '28372' => {
                                         'Class' => '28328',
                                         'Const' => 1,
                                         'Header' => 'duck',
                                         'InLine' => 2,
                                         'Line' => '30',
                                         'MnglName' => '_ZNK4zeno7reflect21HighOrderCallableTypeIbJRNS0_7ArchiveEEE6invokeERNS0_3AnyES6_RKNS0_9ArrayListIPS5_EE',
                                         'Param' => {
                                                      '0' => {
                                                               'name' => 'this',
                                                               'type' => '30102'
                                                             },
                                                      '1' => {
                                                               'name' => 'obj',
                                                               'type' => '29773'
                                                             },
                                                      '2' => {
                                                               'name' => 'out_result',
                                                               'type' => '29773'
                                                             },
                                                      '3' => {
                                                               'name' => 'args',
                                                               'type' => '29838'
                                                             }
                                                    },
                                         'Return' => '13581',
                                         'ShortName' => 'invoke'
                                       },
                            '28417' => {
                                         'Class' => '28328',
                                         'Const' => 1,
                                         'Header' => 'duck',
                                         'InLine' => 2,
                                         'Line' => '43',
                                         'MnglName' => '_ZNK4zeno7reflect21HighOrderCallableTypeIbJRNS0_7ArchiveEEEclERNS0_3AnyES6_RKNS0_9ArrayListIPS5_EE',
                                         'Param' => {
                                                      '0' => {
                                                               'name' => 'this',
                                                               'type' => '30102'
                                                             },
                                                      '1' => {
                                                               'name' => 'obj',
                                                               'type' => '29773'
                                                             },
                                                      '2' => {
                                                               'name' => 'out_result',
                                                               'type' => '29773'
                                                             },
                                                      '3' => {
                                                               'name' => 'args',
                                                               'type' => '29838'
                                                             }
                                                    },
                                         'Return' => '13581',
                                         'ShortName' => 'operator()'
                                       },
                            '28475' => {
                                         'Class' => '28328',
                                         'Const' => 1,
                                         'Header' => 'duck',
                                         'InLine' => 2,
                                         'Line' => '49',
                                         'MnglName' => '_ZNK4zeno7reflect21HighOrderCallableTypeIbJRNS0_7ArchiveEEE22invoke_member_functionEPNS0_8TypeBaseERNS0_3AnyERKNS0_9ArrayListIPS7_EES8_',
                                         'Param' => {
                                                      '0' => {
                                                               'name' => 'this',
                                                               'type' => '30102'
                                                             },
                                                      '1' => {
                                                               'name' => 'type',
                                                               'type' => '29798'
                                                             },
                                                      '2' => {
                                                               'name' => 'that',
                                                               'type' => '29773'
                                                             },
                                                      '3' => {
                                                               'name' => 'args',
                                                               'type' => '29838'
                                                             },
                                                      '4' => {
                                                               'name' => 'out_result',
                                                               'type' => '29773'
                                                             }
                                                    },
                                         'Private' => 1,
                                         'Return' => '13581',
                                         'ShortName' => 'invoke_member_function'
                                       },
                            '28552' => {
                                         'Data' => 1,
                                         'Header' => 'serialization.hpp',
                                         'Line' => '143',
                                         'MnglName' => '_ZN4zeno7reflect25SerializeFunctionDelegateE',
                                         'NameSpace' => 'zeno::reflect',
                                         'Return' => '28547',
                                         'ShortName' => 'SerializeFunctionDelegate'
                                       },
                            '29329' => {
                                         'Class' => '28570',
                                         'Const' => 1,
                                         'Header' => 'arraylist',
                                         'InLine' => 2,
                                         'Line' => '196',
                                         'MnglName' => '_ZNK4zeno7reflect9ArrayListIPNS0_12IMemberFieldEE5beginEv',
                                         'Param' => {
                                                      '0' => {
                                                               'name' => 'this',
                                                               'type' => '30151'
                                                             }
                                                    },
                                         'Return' => '30181',
                                         'ShortName' => 'begin'
                                       },
                            '29360' => {
                                         'Class' => '28570',
                                         'Const' => 1,
                                         'Header' => 'arraylist',
                                         'InLine' => 2,
                                         'Line' => '200',
                                         'MnglName' => '_ZNK4zeno7reflect9ArrayListIPNS0_12IMemberFieldEE3endEv',
                                         'Param' => {
                                                      '0' => {
                                                               'name' => 'this',
                                                               'type' => '30151'
                                                             }
                                                    },
                                         'Return' => '30181',
                                         'ShortName' => 'end'
                                       },
                            '29537' => {
                                         'Header' => 'type.hpp',
                                         'InLine' => 2,
                                         'Line' => '130',
                                         'MnglName' => '_ZN4zeno7reflect8get_typeIbEENS0_10TypeHandleEv',
                                         'NameSpace' => 'zeno::reflect',
                                         'Return' => '23604',
                                         'ShortName' => 'get_type<bool>',
                                         'TParam' => {
                                                       '0' => {
                                                                'key' => 'T',
                                                                'type' => '13581'
                                                              }
                                                     }
                                       },
                            '29565' => {
                                         'Header' => 'duck',
                                         'InLine' => 2,
                                         'Line' => '22',
                                         'MnglName' => '_ZN4zeno7reflect15get_args_lengthIJRNS0_7ArchiveEEEEmv',
                                         'NameSpace' => 'zeno::reflect',
                                         'Return' => '15302',
                                         'ShortName' => 'get_args_length<zeno::reflect::Archive&>',
                                         'TParam' => {
                                                       '0' => {
                                                                'key' => undef,
                                                                'type' => '29883'
                                                              }
                                                     }
                                       },
                            '29597' => {
                                         'Header' => 'any',
                                         'InLine' => 2,
                                         'Line' => '290',
                                         'MnglName' => '_ZN4zeno7reflect8make_anyINS0_7ArchiveEEENS0_3AnyEPNS0_3any18TEnableAnyFromThisIT_EE',
                                         'NameSpace' => 'zeno::reflect',
                                         'Param' => {
                                                      '0' => {
                                                               'name' => 'that',
                                                               'type' => '30256'
                                                             }
                                                    },
                                         'Return' => '22250',
                                         'ShortName' => 'make_any<zeno::reflect::Archive>',
                                         'TParam' => {
                                                       '0' => {
                                                                'key' => 'T',
                                                                'type' => '24945'
                                                              }
                                                     }
                                       },
                            '30995' => {
                                         'Artificial' => 1,
                                         'Class' => '24945',
                                         'Destructor' => 1,
                                         'Header' => 'serialization.hpp',
                                         'InLine' => 1,
                                         'Line' => '79',
                                         'MnglName' => '_ZN4zeno7reflect7ArchiveD0Ev',
                                         'Param' => {
                                                      '0' => {
                                                               'name' => 'this',
                                                               'type' => '30251'
                                                             }
                                                    },
                                         'ShortName' => 'Archive',
                                         'Virt' => 1
                                       },
                            '30996' => {
                                         'Artificial' => 1,
                                         'Class' => '24945',
                                         'Destructor' => 1,
                                         'Header' => 'serialization.hpp',
                                         'InLine' => 1,
                                         'Line' => '79',
                                         'MnglName' => '_ZN4zeno7reflect7ArchiveD1Ev',
                                         'Param' => {
                                                      '0' => {
                                                               'name' => 'this',
                                                               'type' => '30251'
                                                             }
                                                    },
                                         'ShortName' => 'Archive',
                                         'Virt' => 1
                                       },
                            '31039' => {
                                         'Artificial' => 1,
                                         'Class' => '24945',
                                         'Destructor' => 1,
                                         'Header' => 'serialization.hpp',
                                         'InLine' => 1,
                                         'Line' => '79',
                                         'MnglName' => '_ZN4zeno7reflect7ArchiveD2Ev',
                                         'Param' => {
                                                      '0' => {
                                                               'name' => 'this',
                                                               'type' => '30251'
                                                             }
                                                    },
                                         'ShortName' => 'Archive',
                                         'Virt' => 1
                                       },
                            '31716' => {
                                         'Artificial' => 1,
                                         'Class' => '22250',
                                         'Constructor' => 1,
                                         'Header' => 'any',
                                         'InLine' => 1,
                                         'Line' => '165',
                                         'MnglName' => '_ZN4zeno7reflect3AnyC2INS0_7ArchiveEEEPNS0_3any18TEnableAnyFromThisIT_EE',
                                         'Param' => {
                                                      '0' => {
                                                               'name' => 'this',
                                                               'type' => '29758'
                                                             },
                                                      '1' => {
                                                               'name' => 'that',
                                                               'type' => '30256'
                                                             }
                                                    },
                                         'ShortName' => 'Any<zeno::reflect::Archive>',
                                         'TParam' => {
                                                       '0' => {
                                                                'key' => 'T',
                                                                'type' => '24945'
                                                              }
                                                     }
                                       },
                            '31717' => {
                                         'Artificial' => 1,
                                         'Class' => '22250',
                                         'Constructor' => 1,
                                         'Header' => 'any',
                                         'InLine' => 1,
                                         'Line' => '165',
                                         'MnglName' => '_ZN4zeno7reflect3AnyC1INS0_7ArchiveEEEPNS0_3any18TEnableAnyFromThisIT_EE',
                                         'Param' => {
                                                      '0' => {
                                                               'name' => 'this',
                                                               'type' => '29758'
                                                             },
                                                      '1' => {
                                                               'name' => 'that',
                                                               'type' => '30256'
                                                             }
                                                    },
                                         'ShortName' => 'Any<zeno::reflect::Archive>',
                                         'TParam' => {
                                                       '0' => {
                                                                'key' => 'T',
                                                                'type' => '24945'
                                                              }
                                                     }
                                       },
                            '32502' => {
                                         'Artificial' => 1,
                                         'Class' => '23988',
                                         'Destructor' => 1,
                                         'Header' => 'arraylist',
                                         'InLine' => 1,
                                         'Line' => '51',
                                         'MnglName' => '_ZN4zeno7reflect9ArrayListIPNS0_3AnyEED2Ev',
                                         'Param' => {
                                                      '0' => {
                                                               'name' => 'this',
                                                               'type' => '29833'
                                                             }
                                                    },
                                         'ShortName' => 'ArrayList'
                                       },
                            '32503' => {
                                         'Artificial' => 1,
                                         'Class' => '23988',
                                         'Destructor' => 1,
                                         'Header' => 'arraylist',
                                         'InLine' => 1,
                                         'Line' => '51',
                                         'MnglName' => '_ZN4zeno7reflect9ArrayListIPNS0_3AnyEED0Ev',
                                         'Param' => {
                                                      '0' => {
                                                               'name' => 'this',
                                                               'type' => '29833'
                                                             }
                                                    },
                                         'ShortName' => 'ArrayList'
                                       },
                            '32630' => {
                                         'Artificial' => 1,
                                         'Class' => '23988',
                                         'Constructor' => 1,
                                         'Header' => 'arraylist',
                                         'InLine' => 1,
                                         'Line' => '45',
                                         'MnglName' => '_ZN4zeno7reflect9ArrayListIPNS0_3AnyEEC2ESt16initializer_listIS3_E',
                                         'Param' => {
                                                      '0' => {
                                                               'name' => 'this',
                                                               'type' => '29833'
                                                             },
                                                      '1' => {
                                                               'name' => 'init',
                                                               'type' => '12886'
                                                             }
                                                    },
                                         'ShortName' => 'ArrayList'
                                       },
                            '32631' => {
                                         'Artificial' => 1,
                                         'Class' => '23988',
                                         'Constructor' => 1,
                                         'Header' => 'arraylist',
                                         'InLine' => 1,
                                         'Line' => '45',
                                         'MnglName' => '_ZN4zeno7reflect9ArrayListIPNS0_3AnyEEC1ESt16initializer_listIS3_E',
                                         'Param' => {
                                                      '0' => {
                                                               'name' => 'this',
                                                               'type' => '29833'
                                                             },
                                                      '1' => {
                                                               'name' => 'init',
                                                               'type' => '12886'
                                                             }
                                                    },
                                         'ShortName' => 'ArrayList'
                                       },
                            '33245' => {
                                         'Artificial' => 1,
                                         'Class' => '27700',
                                         'Constructor' => 1,
                                         'Header' => 'unique_ptr',
                                         'InLine' => 1,
                                         'Line' => '22',
                                         'MnglName' => '_ZN4zeno7reflect9UniquePtrINS0_15IWritableStreamEEC2EOS3_',
                                         'Param' => {
                                                      '0' => {
                                                               'name' => 'this',
                                                               'type' => '30052'
                                                             },
                                                      '1' => {
                                                               'name' => 'moving',
                                                               'type' => '30067'
                                                             }
                                                    },
                                         'ShortName' => 'UniquePtr'
                                       },
                            '33246' => {
                                         'Artificial' => 1,
                                         'Class' => '27700',
                                         'Constructor' => 1,
                                         'Header' => 'unique_ptr',
                                         'InLine' => 1,
                                         'Line' => '22',
                                         'MnglName' => '_ZN4zeno7reflect9UniquePtrINS0_15IWritableStreamEEC1EOS3_',
                                         'Param' => {
                                                      '0' => {
                                                               'name' => 'this',
                                                               'type' => '30052'
                                                             },
                                                      '1' => {
                                                               'name' => 'moving',
                                                               'type' => '30067'
                                                             }
                                                    },
                                         'ShortName' => 'UniquePtr'
                                       },
                            '33333' => {
                                         'Artificial' => 1,
                                         'Class' => '27071',
                                         'Constructor' => 1,
                                         'Header' => 'unique_ptr',
                                         'InLine' => 1,
                                         'Line' => '22',
                                         'MnglName' => '_ZN4zeno7reflect9UniquePtrINS0_15IReadableStreamEEC2EOS3_',
                                         'Param' => {
                                                      '0' => {
                                                               'name' => 'this',
                                                               'type' => '30007'
                                                             },
                                                      '1' => {
                                                               'name' => 'moving',
                                                               'type' => '30022'
                                                             }
                                                    },
                                         'ShortName' => 'UniquePtr'
                                       },
                            '33334' => {
                                         'Artificial' => 1,
                                         'Class' => '27071',
                                         'Constructor' => 1,
                                         'Header' => 'unique_ptr',
                                         'InLine' => 1,
                                         'Line' => '22',
                                         'MnglName' => '_ZN4zeno7reflect9UniquePtrINS0_15IReadableStreamEEC1EOS3_',
                                         'Param' => {
                                                      '0' => {
                                                               'name' => 'this',
                                                               'type' => '30007'
                                                             },
                                                      '1' => {
                                                               'name' => 'moving',
                                                               'type' => '30022'
                                                             }
                                                    },
                                         'ShortName' => 'UniquePtr'
                                       },
                            '33421' => {
                                         'Artificial' => 1,
                                         'Class' => '26388',
                                         'Constructor' => 1,
                                         'Header' => 'unique_ptr',
                                         'InLine' => 1,
                                         'Line' => '22',
                                         'MnglName' => '_ZN4zeno7reflect9UniquePtrINS0_11ISerializerEEC2EOS3_',
                                         'Param' => {
                                                      '0' => {
                                                               'name' => 'this',
                                                               'type' => '29962'
                                                             },
                                                      '1' => {
                                                               'name' => 'moving',
                                                               'type' => '29977'
                                                             }
                                                    },
                                         'ShortName' => 'UniquePtr'
                                       },
                            '33422' => {
                                         'Artificial' => 1,
                                         'Class' => '26388',
                                         'Constructor' => 1,
                                         'Header' => 'unique_ptr',
                                         'InLine' => 1,
                                         'Line' => '22',
                                         'MnglName' => '_ZN4zeno7reflect9UniquePtrINS0_11ISerializerEEC1EOS3_',
                                         'Param' => {
                                                      '0' => {
                                                               'name' => 'this',
                                                               'type' => '29962'
                                                             },
                                                      '1' => {
                                                               'name' => 'moving',
                                                               'type' => '29977'
                                                             }
                                                    },
                                         'ShortName' => 'UniquePtr'
                                       },
                            '33677' => {
                                         'Artificial' => 1,
                                         'Class' => '27700',
                                         'Destructor' => 1,
                                         'Header' => 'unique_ptr',
                                         'InLine' => 1,
                                         'Line' => '42',
                                         'MnglName' => '_ZN4zeno7reflect9UniquePtrINS0_15IWritableStreamEED2Ev',
                                         'Param' => {
                                                      '0' => {
                                                               'name' => 'this',
                                                               'type' => '30052'
                                                             }
                                                    },
                                         'ShortName' => 'UniquePtr'
                                       },
                            '33678' => {
                                         'Artificial' => 1,
                                         'Class' => '27700',
                                         'Destructor' => 1,
                                         'Header' => 'unique_ptr',
                                         'InLine' => 1,
                                         'Line' => '42',
                                         'MnglName' => '_ZN4zeno7reflect9UniquePtrINS0_15IWritableStreamEED0Ev',
                                         'Param' => {
                                                      '0' => {
                                                               'name' => 'this',
                                                               'type' => '30052'
                                                             }
                                                    },
                                         'ShortName' => 'UniquePtr'
                                       },
                            '33754' => {
                                         'Artificial' => 1,
                                         'Class' => '27071',
                                         'Destructor' => 1,
                                         'Header' => 'unique_ptr',
                                         'InLine' => 1,
                                         'Line' => '42',
                                         'MnglName' => '_ZN4zeno7reflect9UniquePtrINS0_15IReadableStreamEED2Ev',
                                         'Param' => {
                                                      '0' => {
                                                               'name' => 'this',
                                                               'type' => '30007'
                                                             }
                                                    },
                                         'ShortName' => 'UniquePtr'
                                       },
                            '33755' => {
                                         'Artificial' => 1,
                                         'Class' => '27071',
                                         'Destructor' => 1,
                                         'Header' => 'unique_ptr',
                                         'InLine' => 1,
                                         'Line' => '42',
                                         'MnglName' => '_ZN4zeno7reflect9UniquePtrINS0_15IReadableStreamEED0Ev',
                                         'Param' => {
                                                      '0' => {
                                                               'name' => 'this',
                                                               'type' => '30007'
                                                             }
                                                    },
                                         'ShortName' => 'UniquePtr'
                                       },
                            '33831' => {
                                         'Artificial' => 1,
                                         'Class' => '26388',
                                         'Destructor' => 1,
                                         'Header' => 'unique_ptr',
                                         'InLine' => 1,
                                         'Line' => '42',
                                         'MnglName' => '_ZN4zeno7reflect9UniquePtrINS0_11ISerializerEED2Ev',
                                         'Param' => {
                                                      '0' => {
                                                               'name' => 'this',
                                                               'type' => '29962'
                                                             }
                                                    },
                                         'ShortName' => 'UniquePtr'
                                       },
                            '33832' => {
                                         'Artificial' => 1,
                                         'Class' => '26388',
                                         'Destructor' => 1,
                                         'Header' => 'unique_ptr',
                                         'InLine' => 1,
                                         'Line' => '42',
                                         'MnglName' => '_ZN4zeno7reflect9UniquePtrINS0_11ISerializerEED0Ev',
                                         'Param' => {
                                                      '0' => {
                                                               'name' => 'this',
                                                               'type' => '29962'
                                                             }
                                                    },
                                         'ShortName' => 'UniquePtr'
                                       },
                            '34883' => {
                                         'Class' => '24945',
                                         'Constructor' => 1,
                                         'Header' => 'serialization.hpp',
                                         'MnglName' => '_ZN4zeno7reflect7ArchiveC2ENS0_9UniquePtrINS0_11ISerializerEEENS2_INS0_15IReadableStreamEEENS2_INS0_15IWritableStreamEEE',
                                         'Param' => {
                                                      '0' => {
                                                               'name' => 'this',
                                                               'type' => '30251'
                                                             },
                                                      '1' => {
                                                               'name' => 'serializer',
                                                               'type' => '26388'
                                                             },
                                                      '2' => {
                                                               'name' => 'read_stream',
                                                               'type' => '27071'
                                                             },
                                                      '3' => {
                                                               'name' => 'write_stream',
                                                               'type' => '27700'
                                                             }
                                                    },
                                         'ShortName' => 'Archive',
                                         'Source' => 'serialization.cpp',
                                         'SourceLine' => '12'
                                       },
                            '34884' => {
                                         'Class' => '24945',
                                         'Constructor' => 1,
                                         'Header' => 'serialization.hpp',
                                         'MnglName' => '_ZN4zeno7reflect7ArchiveC1ENS0_9UniquePtrINS0_11ISerializerEEENS2_INS0_15IReadableStreamEEENS2_INS0_15IWritableStreamEEE',
                                         'Param' => {
                                                      '0' => {
                                                               'name' => 'this',
                                                               'type' => '30251'
                                                             },
                                                      '1' => {
                                                               'name' => 'serializer',
                                                               'type' => '26388'
                                                             },
                                                      '2' => {
                                                               'name' => 'read_stream',
                                                               'type' => '27071'
                                                             },
                                                      '3' => {
                                                               'name' => 'write_stream',
                                                               'type' => '27700'
                                                             }
                                                    },
                                         'ShortName' => 'Archive',
                                         'Source' => 'serialization.cpp',
                                         'SourceLine' => '12'
                                       },
                            '34987' => {
                                         'Artificial' => 1,
                                         'Class' => '23164',
                                         'Destructor' => 1,
                                         'Header' => 'any',
                                         'InLine' => 1,
                                         'Line' => '47',
                                         'MnglName' => '_ZN4zeno7reflect3any18TEnableAnyFromThisINS0_7ArchiveEED0Ev',
                                         'Param' => {
                                                      '0' => {
                                                               'name' => 'this',
                                                               'type' => '30261'
                                                             }
                                                    },
                                         'ShortName' => 'TEnableAnyFromThis',
                                         'Virt' => 1
                                       },
                            '34988' => {
                                         'Artificial' => 1,
                                         'Class' => '23164',
                                         'Destructor' => 1,
                                         'Header' => 'any',
                                         'InLine' => 1,
                                         'Line' => '47',
                                         'MnglName' => '_ZN4zeno7reflect3any18TEnableAnyFromThisINS0_7ArchiveEED1Ev',
                                         'Param' => {
                                                      '0' => {
                                                               'name' => 'this',
                                                               'type' => '30261'
                                                             }
                                                    },
                                         'ShortName' => 'TEnableAnyFromThis',
                                         'Virt' => 1
                                       },
                            '35031' => {
                                         'Artificial' => 1,
                                         'Class' => '23164',
                                         'Destructor' => 1,
                                         'Header' => 'any',
                                         'InLine' => 1,
                                         'Line' => '47',
                                         'MnglName' => '_ZN4zeno7reflect3any18TEnableAnyFromThisINS0_7ArchiveEED2Ev',
                                         'Param' => {
                                                      '0' => {
                                                               'name' => 'this',
                                                               'type' => '30261'
                                                             }
                                                    },
                                         'ShortName' => 'TEnableAnyFromThis',
                                         'Virt' => 1
                                       },
                            '35099' => {
                                         'Artificial' => 1,
                                         'Class' => '23164',
                                         'Constructor' => 1,
                                         'Header' => 'any',
                                         'InLine' => 1,
                                         'Line' => '47',
                                         'MnglName' => '_ZN4zeno7reflect3any18TEnableAnyFromThisINS0_7ArchiveEEC2Ev',
                                         'Param' => {
                                                      '0' => {
                                                               'name' => 'this',
                                                               'type' => '30261'
                                                             }
                                                    },
                                         'ShortName' => 'TEnableAnyFromThis'
                                       },
                            '35100' => {
                                         'Artificial' => 1,
                                         'Class' => '23164',
                                         'Constructor' => 1,
                                         'Header' => 'any',
                                         'InLine' => 1,
                                         'Line' => '47',
                                         'MnglName' => '_ZN4zeno7reflect3any18TEnableAnyFromThisINS0_7ArchiveEEC1Ev',
                                         'Param' => {
                                                      '0' => {
                                                               'name' => 'this',
                                                               'type' => '30261'
                                                             }
                                                    },
                                         'ShortName' => 'TEnableAnyFromThis'
                                       },
                            '35313' => {
                                         'Artificial' => 1,
                                         'Class' => '22816',
                                         'Constructor' => 1,
                                         'Header' => 'any',
                                         'InLine' => 1,
                                         'Line' => '26',
                                         'MnglName' => '_ZN4zeno7reflect3any10IContainerC2Ev',
                                         'Param' => {
                                                      '0' => {
                                                               'name' => 'this',
                                                               'type' => '29793'
                                                             }
                                                    },
                                         'ShortName' => 'IContainer'
                                       },
                            '35314' => {
                                         'Artificial' => 1,
                                         'Class' => '22816',
                                         'Constructor' => 1,
                                         'Header' => 'any',
                                         'InLine' => 1,
                                         'Line' => '26',
                                         'MnglName' => '_ZN4zeno7reflect3any10IContainerC1Ev',
                                         'Param' => {
                                                      '0' => {
                                                               'name' => 'this',
                                                               'type' => '29793'
                                                             }
                                                    },
                                         'ShortName' => 'IContainer'
                                       },
                            '35405' => {
                                         'Artificial' => 1,
                                         'Class' => '22250',
                                         'Constructor' => 1,
                                         'Header' => 'any',
                                         'InLine' => 1,
                                         'Line' => '132',
                                         'MnglName' => '_ZN4zeno7reflect3AnyC2Ev',
                                         'Param' => {
                                                      '0' => {
                                                               'name' => 'this',
                                                               'type' => '29758'
                                                             }
                                                    },
                                         'ShortName' => 'Any'
                                       },
                            '35406' => {
                                         'Artificial' => 1,
                                         'Class' => '22250',
                                         'Constructor' => 1,
                                         'Header' => 'any',
                                         'InLine' => 1,
                                         'Line' => '132',
                                         'MnglName' => '_ZN4zeno7reflect3AnyC1Ev',
                                         'Param' => {
                                                      '0' => {
                                                               'name' => 'this',
                                                               'type' => '29758'
                                                             }
                                                    },
                                         'ShortName' => 'Any'
                                       },
                            '35794' => {
                                         'Artificial' => 1,
                                         'Class' => '22250',
                                         'Constructor' => 1,
                                         'Header' => 'any',
                                         'InLine' => 1,
                                         'Line' => '140',
                                         'MnglName' => '_ZN4zeno7reflect3AnyC2EOS1_',
                                         'Param' => {
                                                      '0' => {
                                                               'name' => 'this',
                                                               'type' => '29758'
                                                             },
                                                      '1' => {
                                                               'name' => 'other',
                                                               'type' => '29768'
                                                             }
                                                    },
                                         'ShortName' => 'Any'
                                       },
                            '35795' => {
                                         'Artificial' => 1,
                                         'Class' => '22250',
                                         'Constructor' => 1,
                                         'Header' => 'any',
                                         'InLine' => 1,
                                         'Line' => '140',
                                         'MnglName' => '_ZN4zeno7reflect3AnyC1EOS1_',
                                         'Param' => {
                                                      '0' => {
                                                               'name' => 'this',
                                                               'type' => '29758'
                                                             },
                                                      '1' => {
                                                               'name' => 'other',
                                                               'type' => '29768'
                                                             }
                                                    },
                                         'ShortName' => 'Any'
                                       },
                            '35879' => {
                                         'Artificial' => 1,
                                         'Class' => '22250',
                                         'Destructor' => 1,
                                         'Header' => 'any',
                                         'InLine' => 1,
                                         'Line' => '128',
                                         'MnglName' => '_ZN4zeno7reflect3AnyD2Ev',
                                         'Param' => {
                                                      '0' => {
                                                               'name' => 'this',
                                                               'type' => '29758'
                                                             }
                                                    },
                                         'ShortName' => 'Any'
                                       },
                            '35880' => {
                                         'Artificial' => 1,
                                         'Class' => '22250',
                                         'Destructor' => 1,
                                         'Header' => 'any',
                                         'InLine' => 1,
                                         'Line' => '128',
                                         'MnglName' => '_ZN4zeno7reflect3AnyD0Ev',
                                         'Param' => {
                                                      '0' => {
                                                               'name' => 'this',
                                                               'type' => '29758'
                                                             }
                                                    },
                                         'ShortName' => 'Any'
                                       },
                            '35956' => {
                                         'Artificial' => 1,
                                         'Class' => '22816',
                                         'Destructor' => 1,
                                         'Header' => 'any',
                                         'InLine' => 1,
                                         'Line' => '28',
                                         'MnglName' => '_ZN4zeno7reflect3any10IContainerD0Ev',
                                         'Param' => {
                                                      '0' => {
                                                               'name' => 'this',
                                                               'type' => '29793'
                                                             }
                                                    },
                                         'ShortName' => 'IContainer',
                                         'Virt' => 1
                                       },
                            '35957' => {
                                         'Artificial' => 1,
                                         'Class' => '22816',
                                         'Destructor' => 1,
                                         'Header' => 'any',
                                         'InLine' => 1,
                                         'Line' => '28',
                                         'MnglName' => '_ZN4zeno7reflect3any10IContainerD1Ev',
                                         'Param' => {
                                                      '0' => {
                                                               'name' => 'this',
                                                               'type' => '29793'
                                                             }
                                                    },
                                         'ShortName' => 'IContainer',
                                         'Virt' => 1
                                       },
                            '36000' => {
                                         'Artificial' => 1,
                                         'Class' => '22816',
                                         'Destructor' => 1,
                                         'Header' => 'any',
                                         'InLine' => 1,
                                         'Line' => '28',
                                         'MnglName' => '_ZN4zeno7reflect3any10IContainerD2Ev',
                                         'Param' => {
                                                      '0' => {
                                                               'name' => 'this',
                                                               'type' => '29793'
                                                             }
                                                    },
                                         'ShortName' => 'IContainer',
                                         'Virt' => 1
                                       },
                            '36044' => {
                                         'Header' => 'new',
                                         'InLine' => 2,
                                         'Line' => '179',
                                         'MnglName' => '_ZnwmPv',
                                         'Param' => {
                                                      '0' => {
                                                               'name' => 'p1',
                                                               'type' => '55'
                                                             },
                                                      '1' => {
                                                               'name' => '__p',
                                                               'type' => '15293'
                                                             }
                                                    },
                                         'Return' => '15293',
                                         'ShortName' => 'operator new'
                                       },
                            '407' => {
                                       'Class' => '302',
                                       'Header' => 'new_allocator.h',
                                       'InLine' => 2,
                                       'Line' => '126',
                                       'MnglName' => '_ZNSt15__new_allocatorIcE8allocateEmPKv',
                                       'Param' => {
                                                    '0' => {
                                                             'name' => 'this',
                                                             'type' => '57452'
                                                           },
                                                    '1' => {
                                                             'name' => '__n',
                                                             'type' => '448'
                                                           },
                                                    '2' => {
                                                             'name' => 'p2',
                                                             'type' => '15261'
                                                           }
                                                  },
                                       'Return' => '15239',
                                       'ShortName' => 'allocate'
                                     },
                            '461' => {
                                       'Class' => '302',
                                       'Header' => 'new_allocator.h',
                                       'InLine' => 2,
                                       'Line' => '156',
                                       'MnglName' => '_ZNSt15__new_allocatorIcE10deallocateEPcm',
                                       'Param' => {
                                                    '0' => {
                                                             'name' => 'this',
                                                             'type' => '57452'
                                                           },
                                                    '1' => {
                                                             'name' => '__p',
                                                             'type' => '15239'
                                                           },
                                                    '2' => {
                                                             'name' => '__n',
                                                             'type' => '448'
                                                           }
                                                  },
                                       'Return' => '1',
                                       'ShortName' => 'deallocate'
                                     },
                            '49283' => {
                                         'Class' => '5196',
                                         'Header' => 'basic_string.tcc',
                                         'InLine' => 2,
                                         'Line' => '221',
                                         'MnglName' => '_ZNSt7__cxx1112basic_stringIcSt11char_traitsIcESaIcEE12_M_constructIPcEEvT_S7_St20forward_iterator_tag',
                                         'Param' => {
                                                      '0' => {
                                                               'name' => 'this',
                                                               'type' => '59782'
                                                             },
                                                      '1' => {
                                                               'name' => '__beg',
                                                               'type' => '15239'
                                                             },
                                                      '2' => {
                                                               'name' => '__end',
                                                               'type' => '15239'
                                                             },
                                                      '3' => {
                                                               'name' => 'p3',
                                                               'type' => '37944'
                                                             }
                                                    },
                                         'Private' => 1,
                                         'Return' => '1',
                                         'ShortName' => '_M_construct<char*>',
                                         'TParam' => {
                                                       '0' => {
                                                                'key' => '_FwdIterator',
                                                                'type' => '15239'
                                                              }
                                                     }
                                       },
                            '49688' => {
                                         'Class' => '49663',
                                         'Header' => 'ptr_traits.h',
                                         'InLine' => 2,
                                         'Line' => '134',
                                         'MnglName' => '_ZNSt19__ptr_traits_ptr_toIPccLb0EE10pointer_toERc',
                                         'Param' => {
                                                      '0' => {
                                                               'name' => '__r',
                                                               'type' => '59827'
                                                             }
                                                    },
                                         'Return' => '49676',
                                         'ShortName' => 'pointer_to',
                                         'Static' => 1
                                       },
                            '50793' => {
                                         'Class' => '50768',
                                         'Header' => 'ptr_traits.h',
                                         'InLine' => 2,
                                         'Line' => '134',
                                         'MnglName' => '_ZNSt19__ptr_traits_ptr_toIPKcS0_Lb0EE10pointer_toERS0_',
                                         'Param' => {
                                                      '0' => {
                                                               'name' => '__r',
                                                               'type' => '76682'
                                                             }
                                                    },
                                         'Return' => '50781',
                                         'ShortName' => 'pointer_to',
                                         'Static' => 1
                                       },
                            '51755' => {
                                         'Header' => 'move.h',
                                         'InLine' => 2,
                                         'Line' => '51',
                                         'MnglName' => '_ZSt11__addressofIKcEPT_RS1_',
                                         'NameSpace' => 'std',
                                         'Param' => {
                                                      '0' => {
                                                               'name' => '__r',
                                                               'type' => '20613'
                                                             }
                                                    },
                                         'Return' => '15986',
                                         'ShortName' => '__addressof<char const>',
                                         'TParam' => {
                                                       '0' => {
                                                                'key' => '_Tp',
                                                                'type' => '15256'
                                                              }
                                                     }
                                       },
                            '51830' => {
                                         'Header' => 'move.h',
                                         'InLine' => 2,
                                         'Line' => '162',
                                         'MnglName' => '_ZSt9addressofIKcEPT_RS1_',
                                         'NameSpace' => 'std',
                                         'Param' => {
                                                      '0' => {
                                                               'name' => '__r',
                                                               'type' => '20613'
                                                             }
                                                    },
                                         'Return' => '15986',
                                         'ShortName' => 'addressof<char const>',
                                         'TParam' => {
                                                       '0' => {
                                                                'key' => '_Tp',
                                                                'type' => '15256'
                                                              }
                                                     }
                                       },
                            '51865' => {
                                         'Header' => 'move.h',
                                         'InLine' => 2,
                                         'Line' => '70',
                                         'MnglName' => '_ZSt7forwardIRmEOT_RNSt16remove_referenceIS1_E4typeE',
                                         'NameSpace' => 'std',
                                         'Param' => {
                                                      '0' => {
                                                               'name' => '__t',
                                                               'type' => '88148'
                                                             }
                                                    },
                                         'Return' => '76433',
                                         'ShortName' => 'forward<unsigned long&>',
                                         'TParam' => {
                                                       '0' => {
                                                                'key' => '_Tp',
                                                                'type' => '76433'
                                                              }
                                                     }
                                       },
                            '51900' => {
                                         'Header' => 'move.h',
                                         'InLine' => 2,
                                         'Line' => '70',
                                         'MnglName' => '_ZSt7forwardIRjEOT_RNSt16remove_referenceIS1_E4typeE',
                                         'NameSpace' => 'std',
                                         'Param' => {
                                                      '0' => {
                                                               'name' => '__t',
                                                               'type' => '88284'
                                                             }
                                                    },
                                         'Return' => '76423',
                                         'ShortName' => 'forward<unsigned int&>',
                                         'TParam' => {
                                                       '0' => {
                                                                'key' => '_Tp',
                                                                'type' => '76423'
                                                              }
                                                     }
                                       },
                            '51935' => {
                                         'Header' => 'move.h',
                                         'InLine' => 2,
                                         'Line' => '70',
                                         'MnglName' => '_ZSt7forwardIRtEOT_RNSt16remove_referenceIS1_E4typeE',
                                         'NameSpace' => 'std',
                                         'Param' => {
                                                      '0' => {
                                                               'name' => '__t',
                                                               'type' => '88420'
                                                             }
                                                    },
                                         'Return' => '76413',
                                         'ShortName' => 'forward<unsigned short&>',
                                         'TParam' => {
                                                       '0' => {
                                                                'key' => '_Tp',
                                                                'type' => '76413'
                                                              }
                                                     }
                                       },
                            '51970' => {
                                         'Header' => 'move.h',
                                         'InLine' => 2,
                                         'Line' => '70',
                                         'MnglName' => '_ZSt7forwardIRhEOT_RNSt16remove_referenceIS1_E4typeE',
                                         'NameSpace' => 'std',
                                         'Param' => {
                                                      '0' => {
                                                               'name' => '__t',
                                                               'type' => '88556'
                                                             }
                                                    },
                                         'Return' => '76403',
                                         'ShortName' => 'forward<unsigned char&>',
                                         'TParam' => {
                                                       '0' => {
                                                                'key' => '_Tp',
                                                                'type' => '76403'
                                                              }
                                                     }
                                       },
                            '52005' => {
                                         'Header' => 'move.h',
                                         'InLine' => 2,
                                         'Line' => '70',
                                         'MnglName' => '_ZSt7forwardIRlEOT_RNSt16remove_referenceIS1_E4typeE',
                                         'NameSpace' => 'std',
                                         'Param' => {
                                                      '0' => {
                                                               'name' => '__t',
                                                               'type' => '88692'
                                                             }
                                                    },
                                         'Return' => '76393',
                                         'ShortName' => 'forward<long&>',
                                         'TParam' => {
                                                       '0' => {
                                                                'key' => '_Tp',
                                                                'type' => '76393'
                                                              }
                                                     }
                                       },
                            '52040' => {
                                         'Header' => 'move.h',
                                         'InLine' => 2,
                                         'Line' => '70',
                                         'MnglName' => '_ZSt7forwardIRiEOT_RNSt16remove_referenceIS1_E4typeE',
                                         'NameSpace' => 'std',
                                         'Param' => {
                                                      '0' => {
                                                               'name' => '__t',
                                                               'type' => '88828'
                                                             }
                                                    },
                                         'Return' => '76383',
                                         'ShortName' => 'forward<int&>',
                                         'TParam' => {
                                                       '0' => {
                                                                'key' => '_Tp',
                                                                'type' => '76383'
                                                              }
                                                     }
                                       },
                            '52075' => {
                                         'Header' => 'move.h',
                                         'InLine' => 2,
                                         'Line' => '70',
                                         'MnglName' => '_ZSt7forwardIRsEOT_RNSt16remove_referenceIS1_E4typeE',
                                         'NameSpace' => 'std',
                                         'Param' => {
                                                      '0' => {
                                                               'name' => '__t',
                                                               'type' => '88964'
                                                             }
                                                    },
                                         'Return' => '76373',
                                         'ShortName' => 'forward<short&>',
                                         'TParam' => {
                                                       '0' => {
                                                                'key' => '_Tp',
                                                                'type' => '76373'
                                                              }
                                                     }
                                       },
                            '52110' => {
                                         'Header' => 'move.h',
                                         'InLine' => 2,
                                         'Line' => '70',
                                         'MnglName' => '_ZSt7forwardIRaEOT_RNSt16remove_referenceIS1_E4typeE',
                                         'NameSpace' => 'std',
                                         'Param' => {
                                                      '0' => {
                                                               'name' => '__t',
                                                               'type' => '89100'
                                                             }
                                                    },
                                         'Return' => '76363',
                                         'ShortName' => 'forward<signed char&>',
                                         'TParam' => {
                                                       '0' => {
                                                                'key' => '_Tp',
                                                                'type' => '76363'
                                                              }
                                                     }
                                       },
                            '52145' => {
                                         'Header' => 'move.h',
                                         'InLine' => 2,
                                         'Line' => '70',
                                         'MnglName' => '_ZSt7forwardIRdEOT_RNSt16remove_referenceIS1_E4typeE',
                                         'NameSpace' => 'std',
                                         'Param' => {
                                                      '0' => {
                                                               'name' => '__t',
                                                               'type' => '89315'
                                                             }
                                                    },
                                         'Return' => '76453',
                                         'ShortName' => 'forward<double&>',
                                         'TParam' => {
                                                       '0' => {
                                                                'key' => '_Tp',
                                                                'type' => '76453'
                                                              }
                                                     }
                                       },
                            '52180' => {
                                         'Header' => 'move.h',
                                         'InLine' => 2,
                                         'Line' => '70',
                                         'MnglName' => '_ZSt7forwardIRfEOT_RNSt16remove_referenceIS1_E4typeE',
                                         'NameSpace' => 'std',
                                         'Param' => {
                                                      '0' => {
                                                               'name' => '__t',
                                                               'type' => '89451'
                                                             }
                                                    },
                                         'Return' => '76443',
                                         'ShortName' => 'forward<float&>',
                                         'TParam' => {
                                                       '0' => {
                                                                'key' => '_Tp',
                                                                'type' => '76443'
                                                              }
                                                     }
                                       },
                            '52250' => {
                                         'Header' => 'move.h',
                                         'InLine' => 2,
                                         'Line' => '70',
                                         'MnglName' => '_ZSt7forwardIRcEOT_RNSt16remove_referenceIS1_E4typeE',
                                         'NameSpace' => 'std',
                                         'Param' => {
                                                      '0' => {
                                                               'name' => '__t',
                                                               'type' => '90492'
                                                             }
                                                    },
                                         'Return' => '29878',
                                         'ShortName' => 'forward<char&>',
                                         'TParam' => {
                                                       '0' => {
                                                                'key' => '_Tp',
                                                                'type' => '29878'
                                                              }
                                                     }
                                       },
                            '52285' => {
                                         'Header' => 'move.h',
                                         'InLine' => 2,
                                         'Line' => '70',
                                         'MnglName' => '_ZSt7forwardIRNSt7__cxx1112basic_stringIcSt11char_traitsIcESaIcEEEEOT_RNSt16remove_referenceIS7_E4typeE',
                                         'NameSpace' => 'std',
                                         'Param' => {
                                                      '0' => {
                                                               'name' => '__t',
                                                               'type' => '90822'
                                                             }
                                                    },
                                         'Return' => '20598',
                                         'ShortName' => 'forward<std::__cxx11::basic_string<char>&>',
                                         'TParam' => {
                                                       '0' => {
                                                                'key' => '_Tp',
                                                                'type' => '20598'
                                                              }
                                                     }
                                       },
                            '52320' => {
                                         'Header' => 'stl_construct.h',
                                         'InLine' => 2,
                                         'Line' => '94',
                                         'MnglName' => '_ZSt12construct_atIcJRcEEDTgsnwcvPvLi0E_T_pispcl7declvalIT0_EEEEPS2_DpOS3_',
                                         'NameSpace' => 'std',
                                         'Param' => {
                                                      '0' => {
                                                               'name' => '__location',
                                                               'type' => '15239'
                                                             },
                                                      '1' => {
                                                               'name' => 'p2',
                                                               'type' => '29878'
                                                             }
                                                    },
                                         'Return' => '15239',
                                         'ShortName' => 'construct_at<char, char&>',
                                         'TParam' => {
                                                       '0' => {
                                                                'key' => '_Tp',
                                                                'type' => '15249'
                                                              },
                                                       '1' => {
                                                                'key' => undef,
                                                                'type' => '29878'
                                                              }
                                                     }
                                       },
                            '52375' => {
                                         'Header' => 'move.h',
                                         'InLine' => 2,
                                         'Line' => '70',
                                         'MnglName' => '_ZSt7forwardIRKcEOT_RNSt16remove_referenceIS2_E4typeE',
                                         'NameSpace' => 'std',
                                         'Param' => {
                                                      '0' => {
                                                               'name' => '__t',
                                                               'type' => '94174'
                                                             }
                                                    },
                                         'Return' => '20613',
                                         'ShortName' => 'forward<char const&>',
                                         'TParam' => {
                                                       '0' => {
                                                                'key' => '_Tp',
                                                                'type' => '20613'
                                                              }
                                                     }
                                       },
                            '52445' => {
                                         'Header' => 'stl_construct.h',
                                         'InLine' => 2,
                                         'Line' => '94',
                                         'MnglName' => '_ZSt12construct_atIcJRKcEEDTgsnwcvPvLi0E_T_pispcl7declvalIT0_EEEEPS3_DpOS4_',
                                         'NameSpace' => 'std',
                                         'Param' => {
                                                      '0' => {
                                                               'name' => '__location',
                                                               'type' => '15239'
                                                             },
                                                      '1' => {
                                                               'name' => 'p2',
                                                               'type' => '20613'
                                                             }
                                                    },
                                         'Return' => '15239',
                                         'ShortName' => 'construct_at<char, char const&>',
                                         'TParam' => {
                                                       '0' => {
                                                                'key' => '_Tp',
                                                                'type' => '15249'
                                                              },
                                                       '1' => {
                                                                'key' => undef,
                                                                'type' => '20613'
                                                              }
                                                     }
                                       },
                            '52500' => {
                                         'Header' => 'move.h',
                                         'InLine' => 2,
                                         'Line' => '126',
                                         'MnglName' => '_ZSt4moveIRSaIcEEONSt16remove_referenceIT_E4typeEOS3_',
                                         'NameSpace' => 'std',
                                         'Param' => {
                                                      '0' => {
                                                               'name' => '__t',
                                                               'type' => '15283'
                                                             }
                                                    },
                                         'Return' => '103906',
                                         'ShortName' => 'move<std::allocator<char>&>',
                                         'TParam' => {
                                                       '0' => {
                                                                'key' => '_Tp',
                                                                'type' => '15283'
                                                              }
                                                     }
                                       },
                            '52535' => {
                                         'Header' => 'move.h',
                                         'InLine' => 2,
                                         'Line' => '51',
                                         'MnglName' => '_ZSt11__addressofIcEPT_RS0_',
                                         'NameSpace' => 'std',
                                         'Param' => {
                                                      '0' => {
                                                               'name' => '__r',
                                                               'type' => '29878'
                                                             }
                                                    },
                                         'Return' => '15239',
                                         'ShortName' => '__addressof<char>',
                                         'TParam' => {
                                                       '0' => {
                                                                'key' => '_Tp',
                                                                'type' => '15249'
                                                              }
                                                     }
                                       },
                            '52570' => {
                                         'Header' => 'move.h',
                                         'InLine' => 2,
                                         'Line' => '162',
                                         'MnglName' => '_ZSt9addressofIcEPT_RS0_',
                                         'NameSpace' => 'std',
                                         'Param' => {
                                                      '0' => {
                                                               'name' => '__r',
                                                               'type' => '29878'
                                                             }
                                                    },
                                         'Return' => '15239',
                                         'ShortName' => 'addressof<char>',
                                         'TParam' => {
                                                       '0' => {
                                                                'key' => '_Tp',
                                                                'type' => '15249'
                                                              }
                                                     }
                                       },
                            '52605' => {
                                         'Header' => 'type_traits',
                                         'InLine' => 2,
                                         'Line' => '3817',
                                         'MnglName' => '_ZSt21is_constant_evaluatedv',
                                         'NameSpace' => 'std',
                                         'Return' => '13581',
                                         'ShortName' => 'is_constant_evaluated'
                                       },
                            '5394' => {
                                        'Class' => '5196',
                                        'Header' => 'basic_string.h',
                                        'InLine' => 2,
                                        'Line' => '129',
                                        'MnglName' => '_ZNSt7__cxx1112basic_stringIcSt11char_traitsIcESaIcEE11_S_allocateERS3_m',
                                        'Param' => {
                                                     '0' => {
                                                              'name' => '__a',
                                                              'type' => '20558'
                                                            },
                                                     '1' => {
                                                              'name' => '__n',
                                                              'type' => '5381'
                                                            }
                                                   },
                                        'Private' => 1,
                                        'Return' => '5313',
                                        'ShortName' => '_S_allocate',
                                        'Static' => 1
                                      },
                            '5449' => {
                                        'Class' => '5196',
                                        'Header' => 'basic_string.h',
                                        'InLine' => 2,
                                        'Line' => '158',
                                        'MnglName' => '_ZNSt7__cxx1112basic_stringIcSt11char_traitsIcESaIcEE17_S_to_string_viewESt17basic_string_viewIcS2_E',
                                        'Param' => {
                                                     '0' => {
                                                              'name' => '__svt',
                                                              'type' => '5437'
                                                            }
                                                   },
                                        'Private' => 1,
                                        'Return' => '5437',
                                        'ShortName' => '_S_to_string_view',
                                        'Static' => 1
                                      },
                            '55510' => {
                                         'Class' => '55295',
                                         'Header' => 'char_traits.h',
                                         'InLine' => 2,
                                         'Line' => '222',
                                         'MnglName' => '_ZN9__gnu_cxx11char_traitsIcE4moveEPcPKcm',
                                         'Param' => {
                                                      '0' => {
                                                               'name' => '__s1',
                                                               'type' => '57437'
                                                             },
                                                      '1' => {
                                                               'name' => '__s2',
                                                               'type' => '57432'
                                                             },
                                                      '2' => {
                                                               'name' => '__n',
                                                               'type' => '55'
                                                             }
                                                    },
                                         'Return' => '57437',
                                         'ShortName' => 'move',
                                         'Static' => 1
                                       },
                            '55546' => {
                                         'Class' => '55295',
                                         'Header' => 'char_traits.h',
                                         'InLine' => 2,
                                         'Line' => '253',
                                         'MnglName' => '_ZN9__gnu_cxx11char_traitsIcE4copyEPcPKcm',
                                         'Param' => {
                                                      '0' => {
                                                               'name' => '__s1',
                                                               'type' => '57437'
                                                             },
                                                      '1' => {
                                                               'name' => '__s2',
                                                               'type' => '57432'
                                                             },
                                                      '2' => {
                                                               'name' => '__n',
                                                               'type' => '55'
                                                             }
                                                    },
                                         'Return' => '57437',
                                         'ShortName' => 'copy',
                                         'Static' => 1
                                       },
                            '55582' => {
                                         'Class' => '55295',
                                         'Header' => 'char_traits.h',
                                         'InLine' => 2,
                                         'Line' => '273',
                                         'MnglName' => '_ZN9__gnu_cxx11char_traitsIcE6assignEPcmc',
                                         'Param' => {
                                                      '0' => {
                                                               'name' => '__s',
                                                               'type' => '57437'
                                                             },
                                                      '1' => {
                                                               'name' => '__n',
                                                               'type' => '55'
                                                             },
                                                      '2' => {
                                                               'name' => '__a',
                                                               'type' => '55335'
                                                             }
                                                    },
                                         'Return' => '57437',
                                         'ShortName' => 'assign',
                                         'Static' => 1
                                       },
                            '5601' => {
                                        'Class' => '5196',
                                        'Header' => 'basic_string.h',
                                        'InLine' => 2,
                                        'Line' => '217',
                                        'MnglName' => '_ZNSt7__cxx1112basic_stringIcSt11char_traitsIcESaIcEE7_M_dataEPc',
                                        'Param' => {
                                                     '0' => {
                                                              'name' => 'this',
                                                              'type' => '59782'
                                                            },
                                                     '1' => {
                                                              'name' => '__p',
                                                              'type' => '5313'
                                                            }
                                                   },
                                        'Private' => 1,
                                        'Return' => '1',
                                        'ShortName' => '_M_data'
                                      },
                            '5632' => {
                                        'Class' => '5196',
                                        'Header' => 'basic_string.h',
                                        'InLine' => 2,
                                        'Line' => '222',
                                        'MnglName' => '_ZNSt7__cxx1112basic_stringIcSt11char_traitsIcESaIcEE9_M_lengthEm',
                                        'Param' => {
                                                     '0' => {
                                                              'name' => 'this',
                                                              'type' => '59782'
                                                            },
                                                     '1' => {
                                                              'name' => '__length',
                                                              'type' => '5381'
                                                            }
                                                   },
                                        'Private' => 1,
                                        'Return' => '1',
                                        'ShortName' => '_M_length'
                                      },
                            '5663' => {
                                        'Class' => '5196',
                                        'Const' => 1,
                                        'Header' => 'basic_string.h',
                                        'InLine' => 2,
                                        'Line' => '227',
                                        'MnglName' => '_ZNKSt7__cxx1112basic_stringIcSt11char_traitsIcESaIcEE7_M_dataEv',
                                        'Param' => {
                                                     '0' => {
                                                              'name' => 'this',
                                                              'type' => '59792'
                                                            }
                                                   },
                                        'Private' => 1,
                                        'Return' => '5313',
                                        'ShortName' => '_M_data'
                                      },
                            '5693' => {
                                        'Class' => '5196',
                                        'Header' => 'basic_string.h',
                                        'InLine' => 2,
                                        'Line' => '232',
                                        'MnglName' => '_ZNSt7__cxx1112basic_stringIcSt11char_traitsIcESaIcEE13_M_local_dataEv',
                                        'Param' => {
                                                     '0' => {
                                                              'name' => 'this',
                                                              'type' => '59782'
                                                            }
                                                   },
                                        'Private' => 1,
                                        'Return' => '5313',
                                        'ShortName' => '_M_local_data'
                                      },
                            '5736' => {
                                        'Class' => '5196',
                                        'Const' => 1,
                                        'Header' => 'basic_string.h',
                                        'InLine' => 2,
                                        'Line' => '243',
                                        'MnglName' => '_ZNKSt7__cxx1112basic_stringIcSt11char_traitsIcESaIcEE13_M_local_dataEv',
                                        'Param' => {
                                                     '0' => {
                                                              'name' => 'this',
                                                              'type' => '59792'
                                                            }
                                                   },
                                        'Private' => 1,
                                        'Return' => '5723',
                                        'ShortName' => '_M_local_data'
                                      },
                            '5766' => {
                                        'Class' => '5196',
                                        'Header' => 'basic_string.h',
                                        'InLine' => 2,
                                        'Line' => '254',
                                        'MnglName' => '_ZNSt7__cxx1112basic_stringIcSt11char_traitsIcESaIcEE11_M_capacityEm',
                                        'Param' => {
                                                     '0' => {
                                                              'name' => 'this',
                                                              'type' => '59782'
                                                            },
                                                     '1' => {
                                                              'name' => '__capacity',
                                                              'type' => '5381'
                                                            }
                                                   },
                                        'Private' => 1,
                                        'Return' => '1',
                                        'ShortName' => '_M_capacity'
                                      },
                            '5797' => {
                                        'Class' => '5196',
                                        'Header' => 'basic_string.h',
                                        'InLine' => 2,
                                        'Line' => '259',
                                        'MnglName' => '_ZNSt7__cxx1112basic_stringIcSt11char_traitsIcESaIcEE13_M_set_lengthEm',
                                        'Param' => {
                                                     '0' => {
                                                              'name' => 'this',
                                                              'type' => '59782'
                                                            },
                                                     '1' => {
                                                              'name' => '__n',
                                                              'type' => '5381'
                                                            }
                                                   },
                                        'Private' => 1,
                                        'Return' => '1',
                                        'ShortName' => '_M_set_length'
                                      },
                            '5827' => {
                                        'Class' => '5196',
                                        'Const' => 1,
                                        'Header' => 'basic_string.h',
                                        'InLine' => 2,
                                        'Line' => '267',
                                        'MnglName' => '_ZNKSt7__cxx1112basic_stringIcSt11char_traitsIcESaIcEE11_M_is_localEv',
                                        'Param' => {
                                                     '0' => {
                                                              'name' => 'this',
                                                              'type' => '59792'
                                                            }
                                                   },
                                        'Private' => 1,
                                        'Return' => '13581',
                                        'ShortName' => '_M_is_local'
                                      },
                            '5856' => {
                                        'Class' => '5196',
                                        'Header' => 'basic_string.tcc',
                                        'InLine' => 2,
                                        'Line' => '138',
                                        'MnglName' => '_ZNSt7__cxx1112basic_stringIcSt11char_traitsIcESaIcEE9_M_createERmm',
                                        'Param' => {
                                                     '0' => {
                                                              'name' => 'this',
                                                              'type' => '59782'
                                                            },
                                                     '1' => {
                                                              'name' => '__capacity',
                                                              'type' => '20573'
                                                            },
                                                     '2' => {
                                                              'name' => '__old_capacity',
                                                              'type' => '5381'
                                                            }
                                                   },
                                        'Private' => 1,
                                        'Return' => '5313',
                                        'ShortName' => '_M_create'
                                      },
                            '5895' => {
                                        'Class' => '5196',
                                        'Header' => 'basic_string.h',
                                        'InLine' => 2,
                                        'Line' => '285',
                                        'MnglName' => '_ZNSt7__cxx1112basic_stringIcSt11char_traitsIcESaIcEE10_M_disposeEv',
                                        'Param' => {
                                                     '0' => {
                                                              'name' => 'this',
                                                              'type' => '59782'
                                                            }
                                                   },
                                        'Private' => 1,
                                        'Return' => '1',
                                        'ShortName' => '_M_dispose'
                                      },
                            '5920' => {
                                        'Class' => '5196',
                                        'Header' => 'basic_string.h',
                                        'InLine' => 2,
                                        'Line' => '293',
                                        'MnglName' => '_ZNSt7__cxx1112basic_stringIcSt11char_traitsIcESaIcEE10_M_destroyEm',
                                        'Param' => {
                                                     '0' => {
                                                              'name' => 'this',
                                                              'type' => '59782'
                                                            },
                                                     '1' => {
                                                              'name' => '__size',
                                                              'type' => '5381'
                                                            }
                                                   },
                                        'Private' => 1,
                                        'Return' => '1',
                                        'ShortName' => '_M_destroy'
                                      },
                            '5950' => {
                                        'Class' => '5196',
                                        'Header' => 'basic_string.tcc',
                                        'InLine' => 2,
                                        'Line' => '257',
                                        'MnglName' => '_ZNSt7__cxx1112basic_stringIcSt11char_traitsIcESaIcEE12_M_constructEmc',
                                        'Param' => {
                                                     '0' => {
                                                              'name' => 'this',
                                                              'type' => '59782'
                                                            },
                                                     '1' => {
                                                              'name' => '__n',
                                                              'type' => '5381'
                                                            },
                                                     '2' => {
                                                              'name' => '__c',
                                                              'type' => '15249'
                                                            }
                                                   },
                                        'Private' => 1,
                                        'Return' => '1',
                                        'ShortName' => '_M_construct'
                                      },
                            '6003' => {
                                        'Class' => '5196',
                                        'Header' => 'basic_string.h',
                                        'InLine' => 2,
                                        'Line' => '341',
                                        'MnglName' => '_ZNSt7__cxx1112basic_stringIcSt11char_traitsIcESaIcEE16_M_get_allocatorEv',
                                        'Param' => {
                                                     '0' => {
                                                              'name' => 'this',
                                                              'type' => '59782'
                                                            }
                                                   },
                                        'Private' => 1,
                                        'Return' => '20578',
                                        'ShortName' => '_M_get_allocator'
                                      },
                            '6032' => {
                                        'Class' => '5196',
                                        'Const' => 1,
                                        'Header' => 'basic_string.h',
                                        'InLine' => 2,
                                        'Line' => '346',
                                        'MnglName' => '_ZNKSt7__cxx1112basic_stringIcSt11char_traitsIcESaIcEE16_M_get_allocatorEv',
                                        'Param' => {
                                                     '0' => {
                                                              'name' => 'this',
                                                              'type' => '59792'
                                                            }
                                                   },
                                        'Private' => 1,
                                        'Return' => '20583',
                                        'ShortName' => '_M_get_allocator'
                                      },
                            '6154' => {
                                        'Class' => '5196',
                                        'Const' => 1,
                                        'Header' => 'basic_string.h',
                                        'InLine' => 2,
                                        'Line' => '402',
                                        'MnglName' => '_ZNKSt7__cxx1112basic_stringIcSt11char_traitsIcESaIcEE15_M_check_lengthEmmPKc',
                                        'Param' => {
                                                     '0' => {
                                                              'name' => 'this',
                                                              'type' => '59792'
                                                            },
                                                     '1' => {
                                                              'name' => '__n1',
                                                              'type' => '5381'
                                                            },
                                                     '2' => {
                                                              'name' => '__n2',
                                                              'type' => '5381'
                                                            },
                                                     '3' => {
                                                              'name' => '__s',
                                                              'type' => '15986'
                                                            }
                                                   },
                                        'Private' => 1,
                                        'Return' => '1',
                                        'ShortName' => '_M_check_length'
                                      },
                            '61632' => {
                                         'Class' => '22250',
                                         'Header' => 'any',
                                         'InLine' => 2,
                                         'Line' => '188',
                                         'MnglName' => '_ZN4zeno7reflect3Any7emplaceImJRmEEEvDpOT0_',
                                         'Param' => {
                                                      '0' => {
                                                               'name' => 'this',
                                                               'type' => '29758'
                                                             },
                                                      '1' => {
                                                               'name' => 'p1',
                                                               'type' => '76433'
                                                             }
                                                    },
                                         'Return' => '1',
                                         'ShortName' => 'emplace<unsigned long, unsigned long&>',
                                         'TParam' => {
                                                       '0' => {
                                                                'key' => 'T',
                                                                'type' => '15088'
                                                              },
                                                       '1' => {
                                                                'key' => undef,
                                                                'type' => '76433'
                                                              }
                                                     }
                                       },
                            '61685' => {
                                         'Class' => '22250',
                                         'Header' => 'any',
                                         'InLine' => 2,
                                         'Line' => '188',
                                         'MnglName' => '_ZN4zeno7reflect3Any7emplaceIjJRjEEEvDpOT0_',
                                         'Param' => {
                                                      '0' => {
                                                               'name' => 'this',
                                                               'type' => '29758'
                                                             },
                                                      '1' => {
                                                               'name' => 'p1',
                                                               'type' => '76423'
                                                             }
                                                    },
                                         'Return' => '1',
                                         'ShortName' => 'emplace<unsigned int, unsigned int&>',
                                         'TParam' => {
                                                       '0' => {
                                                                'key' => 'T',
                                                                'type' => '13574'
                                                              },
                                                       '1' => {
                                                                'key' => undef,
                                                                'type' => '76423'
                                                              }
                                                     }
                                       },
                            '61738' => {
                                         'Class' => '22250',
                                         'Header' => 'any',
                                         'InLine' => 2,
                                         'Line' => '188',
                                         'MnglName' => '_ZN4zeno7reflect3Any7emplaceItJRtEEEvDpOT0_',
                                         'Param' => {
                                                      '0' => {
                                                               'name' => 'this',
                                                               'type' => '29758'
                                                             },
                                                      '1' => {
                                                               'name' => 'p1',
                                                               'type' => '76413'
                                                             }
                                                    },
                                         'Return' => '1',
                                         'ShortName' => 'emplace<unsigned short, unsigned short&>',
                                         'TParam' => {
                                                       '0' => {
                                                                'key' => 'T',
                                                                'type' => '15081'
                                                              },
                                                       '1' => {
                                                                'key' => undef,
                                                                'type' => '76413'
                                                              }
                                                     }
                                       },
                            '61791' => {
                                         'Class' => '22250',
                                         'Header' => 'any',
                                         'InLine' => 2,
                                         'Line' => '188',
                                         'MnglName' => '_ZN4zeno7reflect3Any7emplaceIhJRhEEEvDpOT0_',
                                         'Param' => {
                                                      '0' => {
                                                               'name' => 'this',
                                                               'type' => '29758'
                                                             },
                                                      '1' => {
                                                               'name' => 'p1',
                                                               'type' => '76403'
                                                             }
                                                    },
                                         'Return' => '1',
                                         'ShortName' => 'emplace<unsigned char, unsigned char&>',
                                         'TParam' => {
                                                       '0' => {
                                                                'key' => 'T',
                                                                'type' => '15074'
                                                              },
                                                       '1' => {
                                                                'key' => undef,
                                                                'type' => '76403'
                                                              }
                                                     }
                                       },
                            '61844' => {
                                         'Class' => '22250',
                                         'Header' => 'any',
                                         'InLine' => 2,
                                         'Line' => '188',
                                         'MnglName' => '_ZN4zeno7reflect3Any7emplaceIlJRlEEEvDpOT0_',
                                         'Param' => {
                                                      '0' => {
                                                               'name' => 'this',
                                                               'type' => '29758'
                                                             },
                                                      '1' => {
                                                               'name' => 'p1',
                                                               'type' => '76393'
                                                             }
                                                    },
                                         'Return' => '1',
                                         'ShortName' => 'emplace<long, long&>',
                                         'TParam' => {
                                                       '0' => {
                                                                'key' => 'T',
                                                                'type' => '15128'
                                                              },
                                                       '1' => {
                                                                'key' => undef,
                                                                'type' => '76393'
                                                              }
                                                     }
                                       },
                            '61897' => {
                                         'Class' => '22250',
                                         'Header' => 'any',
                                         'InLine' => 2,
                                         'Line' => '188',
                                         'MnglName' => '_ZN4zeno7reflect3Any7emplaceIiJRiEEEvDpOT0_',
                                         'Param' => {
                                                      '0' => {
                                                               'name' => 'this',
                                                               'type' => '29758'
                                                             },
                                                      '1' => {
                                                               'name' => 'p1',
                                                               'type' => '76383'
                                                             }
                                                    },
                                         'Return' => '1',
                                         'ShortName' => 'emplace<int, int&>',
                                         'TParam' => {
                                                       '0' => {
                                                                'key' => 'T',
                                                                'type' => '15116'
                                                              },
                                                       '1' => {
                                                                'key' => undef,
                                                                'type' => '76383'
                                                              }
                                                     }
                                       },
                            '61950' => {
                                         'Class' => '22250',
                                         'Header' => 'any',
                                         'InLine' => 2,
                                         'Line' => '188',
                                         'MnglName' => '_ZN4zeno7reflect3Any7emplaceIsJRsEEEvDpOT0_',
                                         'Param' => {
                                                      '0' => {
                                                               'name' => 'this',
                                                               'type' => '29758'
                                                             },
                                                      '1' => {
                                                               'name' => 'p1',
                                                               'type' => '76373'
                                                             }
                                                    },
                                         'Return' => '1',
                                         'ShortName' => 'emplace<short, short&>',
                                         'TParam' => {
                                                       '0' => {
                                                                'key' => 'T',
                                                                'type' => '15109'
                                                              },
                                                       '1' => {
                                                                'key' => undef,
                                                                'type' => '76373'
                                                              }
                                                     }
                                       },
                            '62003' => {
                                         'Class' => '22250',
                                         'Header' => 'any',
                                         'InLine' => 2,
                                         'Line' => '188',
                                         'MnglName' => '_ZN4zeno7reflect3Any7emplaceIaJRaEEEvDpOT0_',
                                         'Param' => {
                                                      '0' => {
                                                               'name' => 'this',
                                                               'type' => '29758'
                                                             },
                                                      '1' => {
                                                               'name' => 'p1',
                                                               'type' => '76363'
                                                             }
                                                    },
                                         'Return' => '1',
                                         'ShortName' => 'emplace<signed char, signed char&>',
                                         'TParam' => {
                                                       '0' => {
                                                                'key' => 'T',
                                                                'type' => '15102'
                                                              },
                                                       '1' => {
                                                                'key' => undef,
                                                                'type' => '76363'
                                                              }
                                                     }
                                       },
                            '62056' => {
                                         'Class' => '22250',
                                         'Header' => 'any',
                                         'InLine' => 2,
                                         'Line' => '188',
                                         'MnglName' => '_ZN4zeno7reflect3Any7emplaceIcJRcEEEvDpOT0_',
                                         'Param' => {
                                                      '0' => {
                                                               'name' => 'this',
                                                               'type' => '29758'
                                                             },
                                                      '1' => {
                                                               'name' => 'p1',
                                                               'type' => '29878'
                                                             }
                                                    },
                                         'Return' => '1',
                                         'ShortName' => 'emplace<char, char&>',
                                         'TParam' => {
                                                       '0' => {
                                                                'key' => 'T',
                                                                'type' => '15249'
                                                              },
                                                       '1' => {
                                                                'key' => undef,
                                                                'type' => '29878'
                                                              }
                                                     }
                                       },
                            '62109' => {
                                         'Class' => '22250',
                                         'Header' => 'any',
                                         'InLine' => 2,
                                         'Line' => '188',
                                         'MnglName' => '_ZN4zeno7reflect3Any7emplaceIdJRdEEEvDpOT0_',
                                         'Param' => {
                                                      '0' => {
                                                               'name' => 'this',
                                                               'type' => '29758'
                                                             },
                                                      '1' => {
                                                               'name' => 'p1',
                                                               'type' => '76453'
                                                             }
                                                    },
                                         'Return' => '1',
                                         'ShortName' => 'emplace<double, double&>',
                                         'TParam' => {
                                                       '0' => {
                                                                'key' => 'T',
                                                                'type' => '15149'
                                                              },
                                                       '1' => {
                                                                'key' => undef,
                                                                'type' => '76453'
                                                              }
                                                     }
                                       },
                            '62162' => {
                                         'Class' => '22250',
                                         'Header' => 'any',
                                         'InLine' => 2,
                                         'Line' => '188',
                                         'MnglName' => '_ZN4zeno7reflect3Any7emplaceIfJRfEEEvDpOT0_',
                                         'Param' => {
                                                      '0' => {
                                                               'name' => 'this',
                                                               'type' => '29758'
                                                             },
                                                      '1' => {
                                                               'name' => 'p1',
                                                               'type' => '76443'
                                                             }
                                                    },
                                         'Return' => '1',
                                         'ShortName' => 'emplace<float, float&>',
                                         'TParam' => {
                                                       '0' => {
                                                                'key' => 'T',
                                                                'type' => '15156'
                                                              },
                                                       '1' => {
                                                                'key' => undef,
                                                                'type' => '76443'
                                                              }
                                                     }
                                       },
                            '62215' => {
                                         'Class' => '22250',
                                         'Header' => 'any',
                                         'InLine' => 2,
                                         'Line' => '188',
                                         'MnglName' => '_ZN4zeno7reflect3Any7emplaceINSt7__cxx1112basic_stringIcSt11char_traitsIcESaIcEEEJRS8_EEEvDpOT0_',
                                         'Param' => {
                                                      '0' => {
                                                               'name' => 'this',
                                                               'type' => '29758'
                                                             },
                                                      '1' => {
                                                               'name' => 'p1',
                                                               'type' => '20598'
                                                             }
                                                    },
                                         'Return' => '1',
                                         'ShortName' => 'emplace<std::__cxx11::basic_string<char>, std::__cxx11::basic_string<char>&>',
                                         'TParam' => {
                                                       '0' => {
                                                                'key' => 'T',
                                                                'type' => '5196'
                                                              },
                                                       '1' => {
                                                                'key' => undef,
                                                                'type' => '20598'
                                                              }
                                                     }
                                       },
                            '6267' => {
                                        'Class' => '5196',
                                        'Header' => 'basic_string.h',
                                        'InLine' => 2,
                                        'Line' => '430',
                                        'MnglName' => '_ZNSt7__cxx1112basic_stringIcSt11char_traitsIcESaIcEE7_S_copyEPcPKcm',
                                        'Param' => {
                                                     '0' => {
                                                              'name' => '__d',
                                                              'type' => '15239'
                                                            },
                                                     '1' => {
                                                              'name' => '__s',
                                                              'type' => '15986'
                                                            },
                                                     '2' => {
                                                              'name' => '__n',
                                                              'type' => '5381'
                                                            }
                                                   },
                                        'Private' => 1,
                                        'Return' => '1',
                                        'ShortName' => '_S_copy',
                                        'Static' => 1
                                      },
                            '6299' => {
                                        'Class' => '5196',
                                        'Header' => 'basic_string.h',
                                        'InLine' => 2,
                                        'Line' => '440',
                                        'MnglName' => '_ZNSt7__cxx1112basic_stringIcSt11char_traitsIcESaIcEE7_S_moveEPcPKcm',
                                        'Param' => {
                                                     '0' => {
                                                              'name' => '__d',
                                                              'type' => '15239'
                                                            },
                                                     '1' => {
                                                              'name' => '__s',
                                                              'type' => '15986'
                                                            },
                                                     '2' => {
                                                              'name' => '__n',
                                                              'type' => '5381'
                                                            }
                                                   },
                                        'Private' => 1,
                                        'Return' => '1',
                                        'ShortName' => '_S_move',
                                        'Static' => 1
                                      },
                            '63190' => {
                                         'Class' => '63087',
                                         'Const' => 1,
                                         'Header' => 'any',
                                         'InLine' => 2,
                                         'Line' => '427',
                                         'MnglName' => '_ZNK4zeno7reflect3any14ValueContainerImE4typeEv',
                                         'Param' => {
                                                      '0' => {
                                                               'name' => 'this',
                                                               'type' => '76812'
                                                             }
                                                    },
                                         'Return' => '29699',
                                         'ShortName' => 'type',
                                         'Virt' => 1,
                                         'VirtPos' => '2'
                                       },
                            '63227' => {
                                         'Class' => '63087',
                                         'Const' => 1,
                                         'Header' => 'any',
                                         'InLine' => 2,
                                         'Line' => '431',
                                         'MnglName' => '_ZNK4zeno7reflect3any14ValueContainerImE7is_typeERKNS0_12RTTITypeInfoE',
                                         'Param' => {
                                                      '0' => {
                                                               'name' => 'this',
                                                               'type' => '76812'
                                                             },
                                                      '1' => {
                                                               'name' => 'other_type',
                                                               'type' => '29699'
                                                             }
                                                    },
                                         'Return' => '13581',
                                         'ShortName' => 'is_type',
                                         'Virt' => 1,
                                         'VirtPos' => '3'
                                       },
                            '63269' => {
                                         'Class' => '63087',
                                         'Const' => 1,
                                         'Header' => 'any',
                                         'InLine' => 2,
                                         'Line' => '439',
                                         'MnglName' => '_ZNK4zeno7reflect3any14ValueContainerImE17is_convertible_toERKNS0_12RTTITypeInfoE',
                                         'Param' => {
                                                      '0' => {
                                                               'name' => 'this',
                                                               'type' => '76812'
                                                             },
                                                      '1' => {
                                                               'name' => 'other_type',
                                                               'type' => '29699'
                                                             }
                                                    },
                                         'Return' => '22194',
                                         'ShortName' => 'is_convertible_to',
                                         'Virt' => 1,
                                         'VirtPos' => '5'
                                       },
                            '6331' => {
                                        'Class' => '5196',
                                        'Header' => 'basic_string.h',
                                        'InLine' => 2,
                                        'Line' => '450',
                                        'MnglName' => '_ZNSt7__cxx1112basic_stringIcSt11char_traitsIcESaIcEE9_S_assignEPcmc',
                                        'Param' => {
                                                     '0' => {
                                                              'name' => '__d',
                                                              'type' => '15239'
                                                            },
                                                     '1' => {
                                                              'name' => '__n',
                                                              'type' => '5381'
                                                            },
                                                     '2' => {
                                                              'name' => '__c',
                                                              'type' => '15249'
                                                            }
                                                   },
                                        'Private' => 1,
                                        'Return' => '1',
                                        'ShortName' => '_S_assign',
                                        'Static' => 1
                                      },
                            '63311' => {
                                         'Class' => '63087',
                                         'Const' => 1,
                                         'Header' => 'any',
                                         'InLine' => 2,
                                         'Line' => '471',
                                         'MnglName' => '_ZNK4zeno7reflect3any14ValueContainerImE5cloneEv',
                                         'Param' => {
                                                      '0' => {
                                                               'name' => 'this',
                                                               'type' => '76812'
                                                             }
                                                    },
                                         'Return' => '29788',
                                         'ShortName' => 'clone',
                                         'Virt' => 1,
                                         'VirtPos' => '4'
                                       },
                            '63348' => {
                                         'Class' => '63087',
                                         'Const' => 1,
                                         'Header' => 'any',
                                         'InLine' => 2,
                                         'Line' => '479',
                                         'MnglName' => '_ZNK4zeno7reflect3any14ValueContainerImE19get_data_ptr_unsafeEv',
                                         'Param' => {
                                                      '0' => {
                                                               'name' => 'this',
                                                               'type' => '76812'
                                                             }
                                                    },
                                         'Return' => '15293',
                                         'ShortName' => 'get_data_ptr_unsafe',
                                         'Virt' => 1,
                                         'VirtPos' => '6'
                                       },
                            '63385' => {
                                         'Class' => '63087',
                                         'Header' => 'any',
                                         'InLine' => 2,
                                         'Line' => '483',
                                         'MnglName' => '_ZN4zeno7reflect3any14ValueContainerImE19is_enable_from_thisEv',
                                         'Param' => {
                                                      '0' => {
                                                               'name' => 'this',
                                                               'type' => '76792'
                                                             }
                                                    },
                                         'Return' => '13581',
                                         'ShortName' => 'is_enable_from_this',
                                         'Virt' => 1,
                                         'VirtPos' => '7'
                                       },
                            '63673' => {
                                         'Class' => '63570',
                                         'Const' => 1,
                                         'Header' => 'any',
                                         'InLine' => 2,
                                         'Line' => '427',
                                         'MnglName' => '_ZNK4zeno7reflect3any14ValueContainerIjE4typeEv',
                                         'Param' => {
                                                      '0' => {
                                                               'name' => 'this',
                                                               'type' => '76842'
                                                             }
                                                    },
                                         'Return' => '29699',
                                         'ShortName' => 'type',
                                         'Virt' => 1,
                                         'VirtPos' => '2'
                                       },
                            '63710' => {
                                         'Class' => '63570',
                                         'Const' => 1,
                                         'Header' => 'any',
                                         'InLine' => 2,
                                         'Line' => '431',
                                         'MnglName' => '_ZNK4zeno7reflect3any14ValueContainerIjE7is_typeERKNS0_12RTTITypeInfoE',
                                         'Param' => {
                                                      '0' => {
                                                               'name' => 'this',
                                                               'type' => '76842'
                                                             },
                                                      '1' => {
                                                               'name' => 'other_type',
                                                               'type' => '29699'
                                                             }
                                                    },
                                         'Return' => '13581',
                                         'ShortName' => 'is_type',
                                         'Virt' => 1,
                                         'VirtPos' => '3'
                                       },
                            '63752' => {
                                         'Class' => '63570',
                                         'Const' => 1,
                                         'Header' => 'any',
                                         'InLine' => 2,
                                         'Line' => '439',
                                         'MnglName' => '_ZNK4zeno7reflect3any14ValueContainerIjE17is_convertible_toERKNS0_12RTTITypeInfoE',
                                         'Param' => {
                                                      '0' => {
                                                               'name' => 'this',
                                                               'type' => '76842'
                                                             },
                                                      '1' => {
                                                               'name' => 'other_type',
                                                               'type' => '29699'
                                                             }
                                                    },
                                         'Return' => '22194',
                                         'ShortName' => 'is_convertible_to',
                                         'Virt' => 1,
                                         'VirtPos' => '5'
                                       },
                            '63794' => {
                                         'Class' => '63570',
                                         'Const' => 1,
                                         'Header' => 'any',
                                         'InLine' => 2,
                                         'Line' => '471',
                                         'MnglName' => '_ZNK4zeno7reflect3any14ValueContainerIjE5cloneEv',
                                         'Param' => {
                                                      '0' => {
                                                               'name' => 'this',
                                                               'type' => '76842'
                                                             }
                                                    },
                                         'Return' => '29788',
                                         'ShortName' => 'clone',
                                         'Virt' => 1,
                                         'VirtPos' => '4'
                                       },
                            '63831' => {
                                         'Class' => '63570',
                                         'Const' => 1,
                                         'Header' => 'any',
                                         'InLine' => 2,
                                         'Line' => '479',
                                         'MnglName' => '_ZNK4zeno7reflect3any14ValueContainerIjE19get_data_ptr_unsafeEv',
                                         'Param' => {
                                                      '0' => {
                                                               'name' => 'this',
                                                               'type' => '76842'
                                                             }
                                                    },
                                         'Return' => '15293',
                                         'ShortName' => 'get_data_ptr_unsafe',
                                         'Virt' => 1,
                                         'VirtPos' => '6'
                                       },
                            '63868' => {
                                         'Class' => '63570',
                                         'Header' => 'any',
                                         'InLine' => 2,
                                         'Line' => '483',
                                         'MnglName' => '_ZN4zeno7reflect3any14ValueContainerIjE19is_enable_from_thisEv',
                                         'Param' => {
                                                      '0' => {
                                                               'name' => 'this',
                                                               'type' => '76822'
                                                             }
                                                    },
                                         'Return' => '13581',
                                         'ShortName' => 'is_enable_from_this',
                                         'Virt' => 1,
                                         'VirtPos' => '7'
                                       },
                            '64156' => {
                                         'Class' => '64053',
                                         'Const' => 1,
                                         'Header' => 'any',
                                         'InLine' => 2,
                                         'Line' => '427',
                                         'MnglName' => '_ZNK4zeno7reflect3any14ValueContainerItE4typeEv',
                                         'Param' => {
                                                      '0' => {
                                                               'name' => 'this',
                                                               'type' => '76872'
                                                             }
                                                    },
                                         'Return' => '29699',
                                         'ShortName' => 'type',
                                         'Virt' => 1,
                                         'VirtPos' => '2'
                                       },
                            '64193' => {
                                         'Class' => '64053',
                                         'Const' => 1,
                                         'Header' => 'any',
                                         'InLine' => 2,
                                         'Line' => '431',
                                         'MnglName' => '_ZNK4zeno7reflect3any14ValueContainerItE7is_typeERKNS0_12RTTITypeInfoE',
                                         'Param' => {
                                                      '0' => {
                                                               'name' => 'this',
                                                               'type' => '76872'
                                                             },
                                                      '1' => {
                                                               'name' => 'other_type',
                                                               'type' => '29699'
                                                             }
                                                    },
                                         'Return' => '13581',
                                         'ShortName' => 'is_type',
                                         'Virt' => 1,
                                         'VirtPos' => '3'
                                       },
                            '64235' => {
                                         'Class' => '64053',
                                         'Const' => 1,
                                         'Header' => 'any',
                                         'InLine' => 2,
                                         'Line' => '439',
                                         'MnglName' => '_ZNK4zeno7reflect3any14ValueContainerItE17is_convertible_toERKNS0_12RTTITypeInfoE',
                                         'Param' => {
                                                      '0' => {
                                                               'name' => 'this',
                                                               'type' => '76872'
                                                             },
                                                      '1' => {
                                                               'name' => 'other_type',
                                                               'type' => '29699'
                                                             }
                                                    },
                                         'Return' => '22194',
                                         'ShortName' => 'is_convertible_to',
                                         'Virt' => 1,
                                         'VirtPos' => '5'
                                       },
                            '64277' => {
                                         'Class' => '64053',
                                         'Const' => 1,
                                         'Header' => 'any',
                                         'InLine' => 2,
                                         'Line' => '471',
                                         'MnglName' => '_ZNK4zeno7reflect3any14ValueContainerItE5cloneEv',
                                         'Param' => {
                                                      '0' => {
                                                               'name' => 'this',
                                                               'type' => '76872'
                                                             }
                                                    },
                                         'Return' => '29788',
                                         'ShortName' => 'clone',
                                         'Virt' => 1,
                                         'VirtPos' => '4'
                                       },
                            '64314' => {
                                         'Class' => '64053',
                                         'Const' => 1,
                                         'Header' => 'any',
                                         'InLine' => 2,
                                         'Line' => '479',
                                         'MnglName' => '_ZNK4zeno7reflect3any14ValueContainerItE19get_data_ptr_unsafeEv',
                                         'Param' => {
                                                      '0' => {
                                                               'name' => 'this',
                                                               'type' => '76872'
                                                             }
                                                    },
                                         'Return' => '15293',
                                         'ShortName' => 'get_data_ptr_unsafe',
                                         'Virt' => 1,
                                         'VirtPos' => '6'
                                       },
                            '64351' => {
                                         'Class' => '64053',
                                         'Header' => 'any',
                                         'InLine' => 2,
                                         'Line' => '483',
                                         'MnglName' => '_ZN4zeno7reflect3any14ValueContainerItE19is_enable_from_thisEv',
                                         'Param' => {
                                                      '0' => {
                                                               'name' => 'this',
                                                               'type' => '76852'
                                                             }
                                                    },
                                         'Return' => '13581',
                                         'ShortName' => 'is_enable_from_this',
                                         'Virt' => 1,
                                         'VirtPos' => '7'
                                       },
                            '6453' => {
                                        'Class' => '5196',
                                        'Header' => 'basic_string.h',
                                        'InLine' => 2,
                                        'Line' => '482',
                                        'MnglName' => '_ZNSt7__cxx1112basic_stringIcSt11char_traitsIcESaIcEE13_S_copy_charsEPcS5_S5_',
                                        'Param' => {
                                                     '0' => {
                                                              'name' => '__p',
                                                              'type' => '15239'
                                                            },
                                                     '1' => {
                                                              'name' => '__k1',
                                                              'type' => '15239'
                                                            },
                                                     '2' => {
                                                              'name' => '__k2',
                                                              'type' => '15239'
                                                            }
                                                   },
                                        'Private' => 1,
                                        'Return' => '1',
                                        'ShortName' => '_S_copy_chars',
                                        'Static' => 1
                                      },
                            '64639' => {
                                         'Class' => '64536',
                                         'Const' => 1,
                                         'Header' => 'any',
                                         'InLine' => 2,
                                         'Line' => '427',
                                         'MnglName' => '_ZNK4zeno7reflect3any14ValueContainerIhE4typeEv',
                                         'Param' => {
                                                      '0' => {
                                                               'name' => 'this',
                                                               'type' => '76902'
                                                             }
                                                    },
                                         'Return' => '29699',
                                         'ShortName' => 'type',
                                         'Virt' => 1,
                                         'VirtPos' => '2'
                                       },
                            '64676' => {
                                         'Class' => '64536',
                                         'Const' => 1,
                                         'Header' => 'any',
                                         'InLine' => 2,
                                         'Line' => '431',
                                         'MnglName' => '_ZNK4zeno7reflect3any14ValueContainerIhE7is_typeERKNS0_12RTTITypeInfoE',
                                         'Param' => {
                                                      '0' => {
                                                               'name' => 'this',
                                                               'type' => '76902'
                                                             },
                                                      '1' => {
                                                               'name' => 'other_type',
                                                               'type' => '29699'
                                                             }
                                                    },
                                         'Return' => '13581',
                                         'ShortName' => 'is_type',
                                         'Virt' => 1,
                                         'VirtPos' => '3'
                                       },
                            '64718' => {
                                         'Class' => '64536',
                                         'Const' => 1,
                                         'Header' => 'any',
                                         'InLine' => 2,
                                         'Line' => '439',
                                         'MnglName' => '_ZNK4zeno7reflect3any14ValueContainerIhE17is_convertible_toERKNS0_12RTTITypeInfoE',
                                         'Param' => {
                                                      '0' => {
                                                               'name' => 'this',
                                                               'type' => '76902'
                                                             },
                                                      '1' => {
                                                               'name' => 'other_type',
                                                               'type' => '29699'
                                                             }
                                                    },
                                         'Return' => '22194',
                                         'ShortName' => 'is_convertible_to',
                                         'Virt' => 1,
                                         'VirtPos' => '5'
                                       },
                            '64760' => {
                                         'Class' => '64536',
                                         'Const' => 1,
                                         'Header' => 'any',
                                         'InLine' => 2,
                                         'Line' => '471',
                                         'MnglName' => '_ZNK4zeno7reflect3any14ValueContainerIhE5cloneEv',
                                         'Param' => {
                                                      '0' => {
                                                               'name' => 'this',
                                                               'type' => '76902'
                                                             }
                                                    },
                                         'Return' => '29788',
                                         'ShortName' => 'clone',
                                         'Virt' => 1,
                                         'VirtPos' => '4'
                                       },
                            '64797' => {
                                         'Class' => '64536',
                                         'Const' => 1,
                                         'Header' => 'any',
                                         'InLine' => 2,
                                         'Line' => '479',
                                         'MnglName' => '_ZNK4zeno7reflect3any14ValueContainerIhE19get_data_ptr_unsafeEv',
                                         'Param' => {
                                                      '0' => {
                                                               'name' => 'this',
                                                               'type' => '76902'
                                                             }
                                                    },
                                         'Return' => '15293',
                                         'ShortName' => 'get_data_ptr_unsafe',
                                         'Virt' => 1,
                                         'VirtPos' => '6'
                                       },
                            '64834' => {
                                         'Class' => '64536',
                                         'Header' => 'any',
                                         'InLine' => 2,
                                         'Line' => '483',
                                         'MnglName' => '_ZN4zeno7reflect3any14ValueContainerIhE19is_enable_from_thisEv',
                                         'Param' => {
                                                      '0' => {
                                                               'name' => 'this',
                                                               'type' => '76882'
                                                             }
                                                    },
                                         'Return' => '13581',
                                         'ShortName' => 'is_enable_from_this',
                                         'Virt' => 1,
                                         'VirtPos' => '7'
                                       },
                            '6485' => {
                                        'Class' => '5196',
                                        'Header' => 'basic_string.h',
                                        'InLine' => 2,
                                        'Line' => '487',
                                        'MnglName' => '_ZNSt7__cxx1112basic_stringIcSt11char_traitsIcESaIcEE13_S_copy_charsEPcPKcS7_',
                                        'Param' => {
                                                     '0' => {
                                                              'name' => '__p',
                                                              'type' => '15239'
                                                            },
                                                     '1' => {
                                                              'name' => '__k1',
                                                              'type' => '15986'
                                                            },
                                                     '2' => {
                                                              'name' => '__k2',
                                                              'type' => '15986'
                                                            }
                                                   },
                                        'Private' => 1,
                                        'Return' => '1',
                                        'ShortName' => '_S_copy_chars',
                                        'Static' => 1
                                      },
                            '65122' => {
                                         'Class' => '65019',
                                         'Const' => 1,
                                         'Header' => 'any',
                                         'InLine' => 2,
                                         'Line' => '427',
                                         'MnglName' => '_ZNK4zeno7reflect3any14ValueContainerIlE4typeEv',
                                         'Param' => {
                                                      '0' => {
                                                               'name' => 'this',
                                                               'type' => '76932'
                                                             }
                                                    },
                                         'Return' => '29699',
                                         'ShortName' => 'type',
                                         'Virt' => 1,
                                         'VirtPos' => '2'
                                       },
                            '65159' => {
                                         'Class' => '65019',
                                         'Const' => 1,
                                         'Header' => 'any',
                                         'InLine' => 2,
                                         'Line' => '431',
                                         'MnglName' => '_ZNK4zeno7reflect3any14ValueContainerIlE7is_typeERKNS0_12RTTITypeInfoE',
                                         'Param' => {
                                                      '0' => {
                                                               'name' => 'this',
                                                               'type' => '76932'
                                                             },
                                                      '1' => {
                                                               'name' => 'other_type',
                                                               'type' => '29699'
                                                             }
                                                    },
                                         'Return' => '13581',
                                         'ShortName' => 'is_type',
                                         'Virt' => 1,
                                         'VirtPos' => '3'
                                       },
                            '65201' => {
                                         'Class' => '65019',
                                         'Const' => 1,
                                         'Header' => 'any',
                                         'InLine' => 2,
                                         'Line' => '439',
                                         'MnglName' => '_ZNK4zeno7reflect3any14ValueContainerIlE17is_convertible_toERKNS0_12RTTITypeInfoE',
                                         'Param' => {
                                                      '0' => {
                                                               'name' => 'this',
                                                               'type' => '76932'
                                                             },
                                                      '1' => {
                                                               'name' => 'other_type',
                                                               'type' => '29699'
                                                             }
                                                    },
                                         'Return' => '22194',
                                         'ShortName' => 'is_convertible_to',
                                         'Virt' => 1,
                                         'VirtPos' => '5'
                                       },
                            '65243' => {
                                         'Class' => '65019',
                                         'Const' => 1,
                                         'Header' => 'any',
                                         'InLine' => 2,
                                         'Line' => '471',
                                         'MnglName' => '_ZNK4zeno7reflect3any14ValueContainerIlE5cloneEv',
                                         'Param' => {
                                                      '0' => {
                                                               'name' => 'this',
                                                               'type' => '76932'
                                                             }
                                                    },
                                         'Return' => '29788',
                                         'ShortName' => 'clone',
                                         'Virt' => 1,
                                         'VirtPos' => '4'
                                       },
                            '65280' => {
                                         'Class' => '65019',
                                         'Const' => 1,
                                         'Header' => 'any',
                                         'InLine' => 2,
                                         'Line' => '479',
                                         'MnglName' => '_ZNK4zeno7reflect3any14ValueContainerIlE19get_data_ptr_unsafeEv',
                                         'Param' => {
                                                      '0' => {
                                                               'name' => 'this',
                                                               'type' => '76932'
                                                             }
                                                    },
                                         'Return' => '15293',
                                         'ShortName' => 'get_data_ptr_unsafe',
                                         'Virt' => 1,
                                         'VirtPos' => '6'
                                       },
                            '65317' => {
                                         'Class' => '65019',
                                         'Header' => 'any',
                                         'InLine' => 2,
                                         'Line' => '483',
                                         'MnglName' => '_ZN4zeno7reflect3any14ValueContainerIlE19is_enable_from_thisEv',
                                         'Param' => {
                                                      '0' => {
                                                               'name' => 'this',
                                                               'type' => '76912'
                                                             }
                                                    },
                                         'Return' => '13581',
                                         'ShortName' => 'is_enable_from_this',
                                         'Virt' => 1,
                                         'VirtPos' => '7'
                                       },
                            '65605' => {
                                         'Class' => '65502',
                                         'Const' => 1,
                                         'Header' => 'any',
                                         'InLine' => 2,
                                         'Line' => '427',
                                         'MnglName' => '_ZNK4zeno7reflect3any14ValueContainerIsE4typeEv',
                                         'Param' => {
                                                      '0' => {
                                                               'name' => 'this',
                                                               'type' => '76962'
                                                             }
                                                    },
                                         'Return' => '29699',
                                         'ShortName' => 'type',
                                         'Virt' => 1,
                                         'VirtPos' => '2'
                                       },
                            '65642' => {
                                         'Class' => '65502',
                                         'Const' => 1,
                                         'Header' => 'any',
                                         'InLine' => 2,
                                         'Line' => '431',
                                         'MnglName' => '_ZNK4zeno7reflect3any14ValueContainerIsE7is_typeERKNS0_12RTTITypeInfoE',
                                         'Param' => {
                                                      '0' => {
                                                               'name' => 'this',
                                                               'type' => '76962'
                                                             },
                                                      '1' => {
                                                               'name' => 'other_type',
                                                               'type' => '29699'
                                                             }
                                                    },
                                         'Return' => '13581',
                                         'ShortName' => 'is_type',
                                         'Virt' => 1,
                                         'VirtPos' => '3'
                                       },
                            '65684' => {
                                         'Class' => '65502',
                                         'Const' => 1,
                                         'Header' => 'any',
                                         'InLine' => 2,
                                         'Line' => '439',
                                         'MnglName' => '_ZNK4zeno7reflect3any14ValueContainerIsE17is_convertible_toERKNS0_12RTTITypeInfoE',
                                         'Param' => {
                                                      '0' => {
                                                               'name' => 'this',
                                                               'type' => '76962'
                                                             },
                                                      '1' => {
                                                               'name' => 'other_type',
                                                               'type' => '29699'
                                                             }
                                                    },
                                         'Return' => '22194',
                                         'ShortName' => 'is_convertible_to',
                                         'Virt' => 1,
                                         'VirtPos' => '5'
                                       },
                            '65726' => {
                                         'Class' => '65502',
                                         'Const' => 1,
                                         'Header' => 'any',
                                         'InLine' => 2,
                                         'Line' => '471',
                                         'MnglName' => '_ZNK4zeno7reflect3any14ValueContainerIsE5cloneEv',
                                         'Param' => {
                                                      '0' => {
                                                               'name' => 'this',
                                                               'type' => '76962'
                                                             }
                                                    },
                                         'Return' => '29788',
                                         'ShortName' => 'clone',
                                         'Virt' => 1,
                                         'VirtPos' => '4'
                                       },
                            '65763' => {
                                         'Class' => '65502',
                                         'Const' => 1,
                                         'Header' => 'any',
                                         'InLine' => 2,
                                         'Line' => '479',
                                         'MnglName' => '_ZNK4zeno7reflect3any14ValueContainerIsE19get_data_ptr_unsafeEv',
                                         'Param' => {
                                                      '0' => {
                                                               'name' => 'this',
                                                               'type' => '76962'
                                                             }
                                                    },
                                         'Return' => '15293',
                                         'ShortName' => 'get_data_ptr_unsafe',
                                         'Virt' => 1,
                                         'VirtPos' => '6'
                                       },
                            '6579' => {
                                        'Class' => '5196',
                                        'Header' => 'basic_string.tcc',
                                        'InLine' => 2,
                                        'Line' => '325',
                                        'MnglName' => '_ZNSt7__cxx1112basic_stringIcSt11char_traitsIcESaIcEE9_M_mutateEmmPKcm',
                                        'Param' => {
                                                     '0' => {
                                                              'name' => 'this',
                                                              'type' => '59782'
                                                            },
                                                     '1' => {
                                                              'name' => '__pos',
                                                              'type' => '5381'
                                                            },
                                                     '2' => {
                                                              'name' => '__len1',
                                                              'type' => '5381'
                                                            },
                                                     '3' => {
                                                              'name' => '__s',
                                                              'type' => '15986'
                                                            },
                                                     '4' => {
                                                              'name' => '__len2',
                                                              'type' => '5381'
                                                            }
                                                   },
                                        'Private' => 1,
                                        'Return' => '1',
                                        'ShortName' => '_M_mutate'
                                      },
                            '65800' => {
                                         'Class' => '65502',
                                         'Header' => 'any',
                                         'InLine' => 2,
                                         'Line' => '483',
                                         'MnglName' => '_ZN4zeno7reflect3any14ValueContainerIsE19is_enable_from_thisEv',
                                         'Param' => {
                                                      '0' => {
                                                               'name' => 'this',
                                                               'type' => '76942'
                                                             }
                                                    },
                                         'Return' => '13581',
                                         'ShortName' => 'is_enable_from_this',
                                         'Virt' => 1,
                                         'VirtPos' => '7'
                                       },
                            '66088' => {
                                         'Class' => '65985',
                                         'Const' => 1,
                                         'Header' => 'any',
                                         'InLine' => 2,
                                         'Line' => '427',
                                         'MnglName' => '_ZNK4zeno7reflect3any14ValueContainerIaE4typeEv',
                                         'Param' => {
                                                      '0' => {
                                                               'name' => 'this',
                                                               'type' => '76992'
                                                             }
                                                    },
                                         'Return' => '29699',
                                         'ShortName' => 'type',
                                         'Virt' => 1,
                                         'VirtPos' => '2'
                                       },
                            '66125' => {
                                         'Class' => '65985',
                                         'Const' => 1,
                                         'Header' => 'any',
                                         'InLine' => 2,
                                         'Line' => '431',
                                         'MnglName' => '_ZNK4zeno7reflect3any14ValueContainerIaE7is_typeERKNS0_12RTTITypeInfoE',
                                         'Param' => {
                                                      '0' => {
                                                               'name' => 'this',
                                                               'type' => '76992'
                                                             },
                                                      '1' => {
                                                               'name' => 'other_type',
                                                               'type' => '29699'
                                                             }
                                                    },
                                         'Return' => '13581',
                                         'ShortName' => 'is_type',
                                         'Virt' => 1,
                                         'VirtPos' => '3'
                                       },
                            '66167' => {
                                         'Class' => '65985',
                                         'Const' => 1,
                                         'Header' => 'any',
                                         'InLine' => 2,
                                         'Line' => '439',
                                         'MnglName' => '_ZNK4zeno7reflect3any14ValueContainerIaE17is_convertible_toERKNS0_12RTTITypeInfoE',
                                         'Param' => {
                                                      '0' => {
                                                               'name' => 'this',
                                                               'type' => '76992'
                                                             },
                                                      '1' => {
                                                               'name' => 'other_type',
                                                               'type' => '29699'
                                                             }
                                                    },
                                         'Return' => '22194',
                                         'ShortName' => 'is_convertible_to',
                                         'Virt' => 1,
                                         'VirtPos' => '5'
                                       },
                            '66209' => {
                                         'Class' => '65985',
                                         'Const' => 1,
                                         'Header' => 'any',
                                         'InLine' => 2,
                                         'Line' => '471',
                                         'MnglName' => '_ZNK4zeno7reflect3any14ValueContainerIaE5cloneEv',
                                         'Param' => {
                                                      '0' => {
                                                               'name' => 'this',
                                                               'type' => '76992'
                                                             }
                                                    },
                                         'Return' => '29788',
                                         'ShortName' => 'clone',
                                         'Virt' => 1,
                                         'VirtPos' => '4'
                                       },
                            '66246' => {
                                         'Class' => '65985',
                                         'Const' => 1,
                                         'Header' => 'any',
                                         'InLine' => 2,
                                         'Line' => '479',
                                         'MnglName' => '_ZNK4zeno7reflect3any14ValueContainerIaE19get_data_ptr_unsafeEv',
                                         'Param' => {
                                                      '0' => {
                                                               'name' => 'this',
                                                               'type' => '76992'
                                                             }
                                                    },
                                         'Return' => '15293',
                                         'ShortName' => 'get_data_ptr_unsafe',
                                         'Virt' => 1,
                                         'VirtPos' => '6'
                                       },
                            '66283' => {
                                         'Class' => '65985',
                                         'Header' => 'any',
                                         'InLine' => 2,
                                         'Line' => '483',
                                         'MnglName' => '_ZN4zeno7reflect3any14ValueContainerIaE19is_enable_from_thisEv',
                                         'Param' => {
                                                      '0' => {
                                                               'name' => 'this',
                                                               'type' => '76972'
                                                             }
                                                    },
                                         'Return' => '13581',
                                         'ShortName' => 'is_enable_from_this',
                                         'Virt' => 1,
                                         'VirtPos' => '7'
                                       },
                            '66571' => {
                                         'Class' => '66468',
                                         'Const' => 1,
                                         'Header' => 'any',
                                         'InLine' => 2,
                                         'Line' => '427',
                                         'MnglName' => '_ZNK4zeno7reflect3any14ValueContainerIcE4typeEv',
                                         'Param' => {
                                                      '0' => {
                                                               'name' => 'this',
                                                               'type' => '77022'
                                                             }
                                                    },
                                         'Return' => '29699',
                                         'ShortName' => 'type',
                                         'Virt' => 1,
                                         'VirtPos' => '2'
                                       },
                            '66608' => {
                                         'Class' => '66468',
                                         'Const' => 1,
                                         'Header' => 'any',
                                         'InLine' => 2,
                                         'Line' => '431',
                                         'MnglName' => '_ZNK4zeno7reflect3any14ValueContainerIcE7is_typeERKNS0_12RTTITypeInfoE',
                                         'Param' => {
                                                      '0' => {
                                                               'name' => 'this',
                                                               'type' => '77022'
                                                             },
                                                      '1' => {
                                                               'name' => 'other_type',
                                                               'type' => '29699'
                                                             }
                                                    },
                                         'Return' => '13581',
                                         'ShortName' => 'is_type',
                                         'Virt' => 1,
                                         'VirtPos' => '3'
                                       },
                            '66650' => {
                                         'Class' => '66468',
                                         'Const' => 1,
                                         'Header' => 'any',
                                         'InLine' => 2,
                                         'Line' => '439',
                                         'MnglName' => '_ZNK4zeno7reflect3any14ValueContainerIcE17is_convertible_toERKNS0_12RTTITypeInfoE',
                                         'Param' => {
                                                      '0' => {
                                                               'name' => 'this',
                                                               'type' => '77022'
                                                             },
                                                      '1' => {
                                                               'name' => 'other_type',
                                                               'type' => '29699'
                                                             }
                                                    },
                                         'Return' => '22194',
                                         'ShortName' => 'is_convertible_to',
                                         'Virt' => 1,
                                         'VirtPos' => '5'
                                       },
                            '66692' => {
                                         'Class' => '66468',
                                         'Const' => 1,
                                         'Header' => 'any',
                                         'InLine' => 2,
                                         'Line' => '471',
                                         'MnglName' => '_ZNK4zeno7reflect3any14ValueContainerIcE5cloneEv',
                                         'Param' => {
                                                      '0' => {
                                                               'name' => 'this',
                                                               'type' => '77022'
                                                             }
                                                    },
                                         'Return' => '29788',
                                         'ShortName' => 'clone',
                                         'Virt' => 1,
                                         'VirtPos' => '4'
                                       },
                            '66729' => {
                                         'Class' => '66468',
                                         'Const' => 1,
                                         'Header' => 'any',
                                         'InLine' => 2,
                                         'Line' => '479',
                                         'MnglName' => '_ZNK4zeno7reflect3any14ValueContainerIcE19get_data_ptr_unsafeEv',
                                         'Param' => {
                                                      '0' => {
                                                               'name' => 'this',
                                                               'type' => '77022'
                                                             }
                                                    },
                                         'Return' => '15293',
                                         'ShortName' => 'get_data_ptr_unsafe',
                                         'Virt' => 1,
                                         'VirtPos' => '6'
                                       },
                            '66766' => {
                                         'Class' => '66468',
                                         'Header' => 'any',
                                         'InLine' => 2,
                                         'Line' => '483',
                                         'MnglName' => '_ZN4zeno7reflect3any14ValueContainerIcE19is_enable_from_thisEv',
                                         'Param' => {
                                                      '0' => {
                                                               'name' => 'this',
                                                               'type' => '77002'
                                                             }
                                                    },
                                         'Return' => '13581',
                                         'ShortName' => 'is_enable_from_this',
                                         'Virt' => 1,
                                         'VirtPos' => '7'
                                       },
                            '67054' => {
                                         'Class' => '66951',
                                         'Const' => 1,
                                         'Header' => 'any',
                                         'InLine' => 2,
                                         'Line' => '427',
                                         'MnglName' => '_ZNK4zeno7reflect3any14ValueContainerIdE4typeEv',
                                         'Param' => {
                                                      '0' => {
                                                               'name' => 'this',
                                                               'type' => '77052'
                                                             }
                                                    },
                                         'Return' => '29699',
                                         'ShortName' => 'type',
                                         'Virt' => 1,
                                         'VirtPos' => '2'
                                       },
                            '67091' => {
                                         'Class' => '66951',
                                         'Const' => 1,
                                         'Header' => 'any',
                                         'InLine' => 2,
                                         'Line' => '431',
                                         'MnglName' => '_ZNK4zeno7reflect3any14ValueContainerIdE7is_typeERKNS0_12RTTITypeInfoE',
                                         'Param' => {
                                                      '0' => {
                                                               'name' => 'this',
                                                               'type' => '77052'
                                                             },
                                                      '1' => {
                                                               'name' => 'other_type',
                                                               'type' => '29699'
                                                             }
                                                    },
                                         'Return' => '13581',
                                         'ShortName' => 'is_type',
                                         'Virt' => 1,
                                         'VirtPos' => '3'
                                       },
                            '67133' => {
                                         'Class' => '66951',
                                         'Const' => 1,
                                         'Header' => 'any',
                                         'InLine' => 2,
                                         'Line' => '439',
                                         'MnglName' => '_ZNK4zeno7reflect3any14ValueContainerIdE17is_convertible_toERKNS0_12RTTITypeInfoE',
                                         'Param' => {
                                                      '0' => {
                                                               'name' => 'this',
                                                               'type' => '77052'
                                                             },
                                                      '1' => {
                                                               'name' => 'other_type',
                                                               'type' => '29699'
                                                             }
                                                    },
                                         'Return' => '22194',
                                         'ShortName' => 'is_convertible_to',
                                         'Virt' => 1,
                                         'VirtPos' => '5'
                                       },
                            '67175' => {
                                         'Class' => '66951',
                                         'Const' => 1,
                                         'Header' => 'any',
                                         'InLine' => 2,
                                         'Line' => '471',
                                         'MnglName' => '_ZNK4zeno7reflect3any14ValueContainerIdE5cloneEv',
                                         'Param' => {
                                                      '0' => {
                                                               'name' => 'this',
                                                               'type' => '77052'
                                                             }
                                                    },
                                         'Return' => '29788',
                                         'ShortName' => 'clone',
                                         'Virt' => 1,
                                         'VirtPos' => '4'
                                       },
                            '67212' => {
                                         'Class' => '66951',
                                         'Const' => 1,
                                         'Header' => 'any',
                                         'InLine' => 2,
                                         'Line' => '479',
                                         'MnglName' => '_ZNK4zeno7reflect3any14ValueContainerIdE19get_data_ptr_unsafeEv',
                                         'Param' => {
                                                      '0' => {
                                                               'name' => 'this',
                                                               'type' => '77052'
                                                             }
                                                    },
                                         'Return' => '15293',
                                         'ShortName' => 'get_data_ptr_unsafe',
                                         'Virt' => 1,
                                         'VirtPos' => '6'
                                       },
                            '67249' => {
                                         'Class' => '66951',
                                         'Header' => 'any',
                                         'InLine' => 2,
                                         'Line' => '483',
                                         'MnglName' => '_ZN4zeno7reflect3any14ValueContainerIdE19is_enable_from_thisEv',
                                         'Param' => {
                                                      '0' => {
                                                               'name' => 'this',
                                                               'type' => '77032'
                                                             }
                                                    },
                                         'Return' => '13581',
                                         'ShortName' => 'is_enable_from_this',
                                         'Virt' => 1,
                                         'VirtPos' => '7'
                                       },
                            '67537' => {
                                         'Class' => '67434',
                                         'Const' => 1,
                                         'Header' => 'any',
                                         'InLine' => 2,
                                         'Line' => '427',
                                         'MnglName' => '_ZNK4zeno7reflect3any14ValueContainerIfE4typeEv',
                                         'Param' => {
                                                      '0' => {
                                                               'name' => 'this',
                                                               'type' => '77082'
                                                             }
                                                    },
                                         'Return' => '29699',
                                         'ShortName' => 'type',
                                         'Virt' => 1,
                                         'VirtPos' => '2'
                                       },
                            '67574' => {
                                         'Class' => '67434',
                                         'Const' => 1,
                                         'Header' => 'any',
                                         'InLine' => 2,
                                         'Line' => '431',
                                         'MnglName' => '_ZNK4zeno7reflect3any14ValueContainerIfE7is_typeERKNS0_12RTTITypeInfoE',
                                         'Param' => {
                                                      '0' => {
                                                               'name' => 'this',
                                                               'type' => '77082'
                                                             },
                                                      '1' => {
                                                               'name' => 'other_type',
                                                               'type' => '29699'
                                                             }
                                                    },
                                         'Return' => '13581',
                                         'ShortName' => 'is_type',
                                         'Virt' => 1,
                                         'VirtPos' => '3'
                                       },
                            '67616' => {
                                         'Class' => '67434',
                                         'Const' => 1,
                                         'Header' => 'any',
                                         'InLine' => 2,
                                         'Line' => '439',
                                         'MnglName' => '_ZNK4zeno7reflect3any14ValueContainerIfE17is_convertible_toERKNS0_12RTTITypeInfoE',
                                         'Param' => {
                                                      '0' => {
                                                               'name' => 'this',
                                                               'type' => '77082'
                                                             },
                                                      '1' => {
                                                               'name' => 'other_type',
                                                               'type' => '29699'
                                                             }
                                                    },
                                         'Return' => '22194',
                                         'ShortName' => 'is_convertible_to',
                                         'Virt' => 1,
                                         'VirtPos' => '5'
                                       },
                            '67658' => {
                                         'Class' => '67434',
                                         'Const' => 1,
                                         'Header' => 'any',
                                         'InLine' => 2,
                                         'Line' => '471',
                                         'MnglName' => '_ZNK4zeno7reflect3any14ValueContainerIfE5cloneEv',
                                         'Param' => {
                                                      '0' => {
                                                               'name' => 'this',
                                                               'type' => '77082'
                                                             }
                                                    },
                                         'Return' => '29788',
                                         'ShortName' => 'clone',
                                         'Virt' => 1,
                                         'VirtPos' => '4'
                                       },
                            '67695' => {
                                         'Class' => '67434',
                                         'Const' => 1,
                                         'Header' => 'any',
                                         'InLine' => 2,
                                         'Line' => '479',
                                         'MnglName' => '_ZNK4zeno7reflect3any14ValueContainerIfE19get_data_ptr_unsafeEv',
                                         'Param' => {
                                                      '0' => {
                                                               'name' => 'this',
                                                               'type' => '77082'
                                                             }
                                                    },
                                         'Return' => '15293',
                                         'ShortName' => 'get_data_ptr_unsafe',
                                         'Virt' => 1,
                                         'VirtPos' => '6'
                                       },
                            '67732' => {
                                         'Class' => '67434',
                                         'Header' => 'any',
                                         'InLine' => 2,
                                         'Line' => '483',
                                         'MnglName' => '_ZN4zeno7reflect3any14ValueContainerIfE19is_enable_from_thisEv',
                                         'Param' => {
                                                      '0' => {
                                                               'name' => 'this',
                                                               'type' => '77062'
                                                             }
                                                    },
                                         'Return' => '13581',
                                         'ShortName' => 'is_enable_from_this',
                                         'Virt' => 1,
                                         'VirtPos' => '7'
                                       },
                            '68020' => {
                                         'Class' => '67917',
                                         'Const' => 1,
                                         'Header' => 'any',
                                         'InLine' => 2,
                                         'Line' => '427',
                                         'MnglName' => '_ZNK4zeno7reflect3any14ValueContainerIiE4typeEv',
                                         'Param' => {
                                                      '0' => {
                                                               'name' => 'this',
                                                               'type' => '77112'
                                                             }
                                                    },
                                         'Return' => '29699',
                                         'ShortName' => 'type',
                                         'Virt' => 1,
                                         'VirtPos' => '2'
                                       },
                            '68057' => {
                                         'Class' => '67917',
                                         'Const' => 1,
                                         'Header' => 'any',
                                         'InLine' => 2,
                                         'Line' => '431',
                                         'MnglName' => '_ZNK4zeno7reflect3any14ValueContainerIiE7is_typeERKNS0_12RTTITypeInfoE',
                                         'Param' => {
                                                      '0' => {
                                                               'name' => 'this',
                                                               'type' => '77112'
                                                             },
                                                      '1' => {
                                                               'name' => 'other_type',
                                                               'type' => '29699'
                                                             }
                                                    },
                                         'Return' => '13581',
                                         'ShortName' => 'is_type',
                                         'Virt' => 1,
                                         'VirtPos' => '3'
                                       },
                            '68099' => {
                                         'Class' => '67917',
                                         'Const' => 1,
                                         'Header' => 'any',
                                         'InLine' => 2,
                                         'Line' => '439',
                                         'MnglName' => '_ZNK4zeno7reflect3any14ValueContainerIiE17is_convertible_toERKNS0_12RTTITypeInfoE',
                                         'Param' => {
                                                      '0' => {
                                                               'name' => 'this',
                                                               'type' => '77112'
                                                             },
                                                      '1' => {
                                                               'name' => 'other_type',
                                                               'type' => '29699'
                                                             }
                                                    },
                                         'Return' => '22194',
                                         'ShortName' => 'is_convertible_to',
                                         'Virt' => 1,
                                         'VirtPos' => '5'
                                       },
                            '68141' => {
                                         'Class' => '67917',
                                         'Const' => 1,
                                         'Header' => 'any',
                                         'InLine' => 2,
                                         'Line' => '471',
                                         'MnglName' => '_ZNK4zeno7reflect3any14ValueContainerIiE5cloneEv',
                                         'Param' => {
                                                      '0' => {
                                                               'name' => 'this',
                                                               'type' => '77112'
                                                             }
                                                    },
                                         'Return' => '29788',
                                         'ShortName' => 'clone',
                                         'Virt' => 1,
                                         'VirtPos' => '4'
                                       },
                            '68178' => {
                                         'Class' => '67917',
                                         'Const' => 1,
                                         'Header' => 'any',
                                         'InLine' => 2,
                                         'Line' => '479',
                                         'MnglName' => '_ZNK4zeno7reflect3any14ValueContainerIiE19get_data_ptr_unsafeEv',
                                         'Param' => {
                                                      '0' => {
                                                               'name' => 'this',
                                                               'type' => '77112'
                                                             }
                                                    },
                                         'Return' => '15293',
                                         'ShortName' => 'get_data_ptr_unsafe',
                                         'Virt' => 1,
                                         'VirtPos' => '6'
                                       },
                            '68215' => {
                                         'Class' => '67917',
                                         'Header' => 'any',
                                         'InLine' => 2,
                                         'Line' => '483',
                                         'MnglName' => '_ZN4zeno7reflect3any14ValueContainerIiE19is_enable_from_thisEv',
                                         'Param' => {
                                                      '0' => {
                                                               'name' => 'this',
                                                               'type' => '77092'
                                                             }
                                                    },
                                         'Return' => '13581',
                                         'ShortName' => 'is_enable_from_this',
                                         'Virt' => 1,
                                         'VirtPos' => '7'
                                       },
                            '68503' => {
                                         'Class' => '68400',
                                         'Const' => 1,
                                         'Header' => 'any',
                                         'InLine' => 2,
                                         'Line' => '427',
                                         'MnglName' => '_ZNK4zeno7reflect3any14ValueContainerINSt7__cxx1112basic_stringIcSt11char_traitsIcESaIcEEEE4typeEv',
                                         'Param' => {
                                                      '0' => {
                                                               'name' => 'this',
                                                               'type' => '77142'
                                                             }
                                                    },
                                         'Return' => '29699',
                                         'ShortName' => 'type',
                                         'Virt' => 1,
                                         'VirtPos' => '2'
                                       },
                            '68540' => {
                                         'Class' => '68400',
                                         'Const' => 1,
                                         'Header' => 'any',
                                         'InLine' => 2,
                                         'Line' => '431',
                                         'MnglName' => '_ZNK4zeno7reflect3any14ValueContainerINSt7__cxx1112basic_stringIcSt11char_traitsIcESaIcEEEE7is_typeERKNS0_12RTTITypeInfoE',
                                         'Param' => {
                                                      '0' => {
                                                               'name' => 'this',
                                                               'type' => '77142'
                                                             },
                                                      '1' => {
                                                               'name' => 'other_type',
                                                               'type' => '29699'
                                                             }
                                                    },
                                         'Return' => '13581',
                                         'ShortName' => 'is_type',
                                         'Virt' => 1,
                                         'VirtPos' => '3'
                                       },
                            '68582' => {
                                         'Class' => '68400',
                                         'Const' => 1,
                                         'Header' => 'any',
                                         'InLine' => 2,
                                         'Line' => '439',
                                         'MnglName' => '_ZNK4zeno7reflect3any14ValueContainerINSt7__cxx1112basic_stringIcSt11char_traitsIcESaIcEEEE17is_convertible_toERKNS0_12RTTITypeInfoE',
                                         'Param' => {
                                                      '0' => {
                                                               'name' => 'this',
                                                               'type' => '77142'
                                                             },
                                                      '1' => {
                                                               'name' => 'other_type',
                                                               'type' => '29699'
                                                             }
                                                    },
                                         'Return' => '22194',
                                         'ShortName' => 'is_convertible_to',
                                         'Virt' => 1,
                                         'VirtPos' => '5'
                                       },
                            '68624' => {
                                         'Class' => '68400',
                                         'Const' => 1,
                                         'Header' => 'any',
                                         'InLine' => 2,
                                         'Line' => '471',
                                         'MnglName' => '_ZNK4zeno7reflect3any14ValueContainerINSt7__cxx1112basic_stringIcSt11char_traitsIcESaIcEEEE5cloneEv',
                                         'Param' => {
                                                      '0' => {
                                                               'name' => 'this',
                                                               'type' => '77142'
                                                             }
                                                    },
                                         'Return' => '29788',
                                         'ShortName' => 'clone',
                                         'Virt' => 1,
                                         'VirtPos' => '4'
                                       },
                            '68661' => {
                                         'Class' => '68400',
                                         'Const' => 1,
                                         'Header' => 'any',
                                         'InLine' => 2,
                                         'Line' => '479',
                                         'MnglName' => '_ZNK4zeno7reflect3any14ValueContainerINSt7__cxx1112basic_stringIcSt11char_traitsIcESaIcEEEE19get_data_ptr_unsafeEv',
                                         'Param' => {
                                                      '0' => {
                                                               'name' => 'this',
                                                               'type' => '77142'
                                                             }
                                                    },
                                         'Return' => '15293',
                                         'ShortName' => 'get_data_ptr_unsafe',
                                         'Virt' => 1,
                                         'VirtPos' => '6'
                                       },
                            '68698' => {
                                         'Class' => '68400',
                                         'Header' => 'any',
                                         'InLine' => 2,
                                         'Line' => '483',
                                         'MnglName' => '_ZN4zeno7reflect3any14ValueContainerINSt7__cxx1112basic_stringIcSt11char_traitsIcESaIcEEEE19is_enable_from_thisEv',
                                         'Param' => {
                                                      '0' => {
                                                               'name' => 'this',
                                                               'type' => '77122'
                                                             }
                                                    },
                                         'Return' => '13581',
                                         'ShortName' => 'is_enable_from_this',
                                         'Virt' => 1,
                                         'VirtPos' => '7'
                                       },
                            '71836' => {
                                         'Class' => '71736',
                                         'InLine' => 2,
                                         'Line' => '24',
                                         'MnglName' => '_ZN4zeno7reflect23DefaultBinarySerializer9serializeERNS0_9UniquePtrINS0_15IWritableStreamEEERKNS0_3AnyE',
                                         'Param' => {
                                                      '0' => {
                                                               'name' => 'this',
                                                               'type' => '76677'
                                                             },
                                                      '1' => {
                                                               'name' => 'out_stream',
                                                               'type' => '30062'
                                                             },
                                                      '2' => {
                                                               'name' => 'input',
                                                               'type' => '29763'
                                                             }
                                                    },
                                         'Return' => '13581',
                                         'ShortName' => 'serialize',
                                         'Source' => 'binary_serialization.cpp',
                                         'Virt' => 1,
                                         'VirtPos' => '2'
                                       },
                            '71883' => {
                                         'Class' => '71736',
                                         'InLine' => 2,
                                         'Line' => '64',
                                         'MnglName' => '_ZN4zeno7reflect23DefaultBinarySerializer11deserializeERKNS0_9UniquePtrINS0_15IReadableStreamEEERNS0_3AnyE',
                                         'Param' => {
                                                      '0' => {
                                                               'name' => 'this',
                                                               'type' => '76677'
                                                             },
                                                      '1' => {
                                                               'name' => 'data_stream',
                                                               'type' => '30012'
                                                             },
                                                      '2' => {
                                                               'name' => 'output',
                                                               'type' => '29773'
                                                             }
                                                    },
                                         'Return' => '13581',
                                         'ShortName' => 'deserialize',
                                         'Source' => 'binary_serialization.cpp',
                                         'Virt' => 1,
                                         'VirtPos' => '3'
                                       },
                            '71930' => {
                                         'Class' => '71736',
                                         'InLine' => 2,
                                         'Line' => '104',
                                         'MnglName' => '_ZN4zeno7reflect23DefaultBinarySerializer9serializeERNS0_9UniquePtrINS0_15IWritableStreamEEENS0_10TypeHandleEPKv',
                                         'Param' => {
                                                      '0' => {
                                                               'name' => 'this',
                                                               'type' => '76677'
                                                             },
                                                      '1' => {
                                                               'name' => 'out_stream',
                                                               'type' => '30062'
                                                             },
                                                      '2' => {
                                                               'name' => 'reflect_type',
                                                               'type' => '23978'
                                                             },
                                                      '3' => {
                                                               'name' => 'input',
                                                               'type' => '15261'
                                                             }
                                                    },
                                         'Return' => '13581',
                                         'ShortName' => 'serialize',
                                         'Source' => 'binary_serialization.cpp',
                                         'Virt' => 1,
                                         'VirtPos' => '4'
                                       },
                            '71982' => {
                                         'Class' => '71736',
                                         'InLine' => 2,
                                         'Line' => '138',
                                         'MnglName' => '_ZN4zeno7reflect23DefaultBinarySerializer11deserializeERNS0_9UniquePtrINS0_15IReadableStreamEEENS0_10TypeHandleEPv',
                                         'Param' => {
                                                      '0' => {
                                                               'name' => 'this',
                                                               'type' => '76677'
                                                             },
                                                      '1' => {
                                                               'name' => 'data_stream',
                                                               'type' => '30017'
                                                             },
                                                      '2' => {
                                                               'name' => 'reflect_type',
                                                               'type' => '23978'
                                                             },
                                                      '3' => {
                                                               'name' => 'output',
                                                               'type' => '15293'
                                                             }
                                                    },
                                         'Return' => '13581',
                                         'ShortName' => 'deserialize',
                                         'Source' => 'binary_serialization.cpp',
                                         'Virt' => 1,
                                         'VirtPos' => '5'
                                       },
                            '72034' => {
                                         'Class' => '71736',
                                         'InLine' => 2,
                                         'Line' => '214',
                                         'MnglName' => '_ZN4zeno7reflect23DefaultBinarySerializer16serialize_stringERNS0_9UniquePtrINS0_15IWritableStreamEEERKNS0_3AnyE',
                                         'Param' => {
                                                      '0' => {
                                                               'name' => 'this',
                                                               'type' => '76677'
                                                             },
                                                      '1' => {
                                                               'name' => 'out_stream',
                                                               'type' => '30062'
                                                             },
                                                      '2' => {
                                                               'name' => 'input',
                                                               'type' => '29763'
                                                             }
                                                    },
                                         'Private' => 1,
                                         'Return' => '13581',
                                         'ShortName' => 'serialize_string',
                                         'Source' => 'binary_serialization.cpp'
                                       },
                            '72074' => {
                                         'Class' => '71736',
                                         'InLine' => 2,
                                         'Line' => '225',
                                         'MnglName' => '_ZN4zeno7reflect23DefaultBinarySerializer16serialize_stringERNS0_9UniquePtrINS0_15IWritableStreamEEEPKNSt7__cxx1112basic_stringIcSt11char_traitsIcESaIcEEE',
                                         'Param' => {
                                                      '0' => {
                                                               'name' => 'this',
                                                               'type' => '76677'
                                                             },
                                                      '1' => {
                                                               'name' => 'out_stream',
                                                               'type' => '30062'
                                                             },
                                                      '2' => {
                                                               'name' => 'input',
                                                               'type' => '77157'
                                                             }
                                                    },
                                         'Private' => 1,
                                         'Return' => '13581',
                                         'ShortName' => 'serialize_string',
                                         'Source' => 'binary_serialization.cpp'
                                       },
                            '72114' => {
                                         'Class' => '71736',
                                         'InLine' => 2,
                                         'Line' => '237',
                                         'MnglName' => '_ZN4zeno7reflect23DefaultBinarySerializer18deserialize_stringERKNS0_9UniquePtrINS0_15IReadableStreamEEERNS0_3AnyE',
                                         'Param' => {
                                                      '0' => {
                                                               'name' => 'this',
                                                               'type' => '76677'
                                                             },
                                                      '1' => {
                                                               'name' => 'data_stream',
                                                               'type' => '30012'
                                                             },
                                                      '2' => {
                                                               'name' => 'output',
                                                               'type' => '29773'
                                                             }
                                                    },
                                         'Private' => 1,
                                         'Return' => '13581',
                                         'ShortName' => 'deserialize_string',
                                         'Source' => 'binary_serialization.cpp'
                                       },
                            '72154' => {
                                         'Class' => '71736',
                                         'InLine' => 2,
                                         'Line' => '247',
                                         'MnglName' => '_ZN4zeno7reflect23DefaultBinarySerializer18deserialize_stringERKNS0_9UniquePtrINS0_15IReadableStreamEEEPNSt7__cxx1112basic_stringIcSt11char_traitsIcESaIcEEE',
                                         'Param' => {
                                                      '0' => {
                                                               'name' => 'this',
                                                               'type' => '76677'
                                                             },
                                                      '1' => {
                                                               'name' => 'data_stream',
                                                               'type' => '30012'
                                                             },
                                                      '2' => {
                                                               'name' => 'output',
                                                               'type' => '77162'
                                                             }
                                                    },
                                         'Private' => 1,
                                         'Return' => '13581',
                                         'ShortName' => 'deserialize_string',
                                         'Source' => 'binary_serialization.cpp'
                                       },
                            '72226' => {
                                         'Class' => '71736',
                                         'InLine' => 2,
                                         'Line' => '206',
                                         'MnglName' => '_ZN4zeno7reflect23DefaultBinarySerializer22deserialize_basic_typeImEEbRKNS0_9UniquePtrINS0_15IReadableStreamEEEPv',
                                         'Param' => {
                                                      '0' => {
                                                               'name' => 'this',
                                                               'type' => '76677'
                                                             },
                                                      '1' => {
                                                               'name' => 'data_stream',
                                                               'type' => '30012'
                                                             },
                                                      '2' => {
                                                               'name' => 'output',
                                                               'type' => '15293'
                                                             }
                                                    },
                                         'Private' => 1,
                                         'Return' => '13581',
                                         'ShortName' => 'deserialize_basic_type<unsigned long>',
                                         'Source' => 'binary_serialization.cpp',
                                         'TParam' => {
                                                       '0' => {
                                                                'key' => 'T',
                                                                'type' => '15088'
                                                              }
                                                     }
                                       },
                            '72273' => {
                                         'Class' => '71736',
                                         'InLine' => 2,
                                         'Line' => '206',
                                         'MnglName' => '_ZN4zeno7reflect23DefaultBinarySerializer22deserialize_basic_typeIjEEbRKNS0_9UniquePtrINS0_15IReadableStreamEEEPv',
                                         'Param' => {
                                                      '0' => {
                                                               'name' => 'this',
                                                               'type' => '76677'
                                                             },
                                                      '1' => {
                                                               'name' => 'data_stream',
                                                               'type' => '30012'
                                                             },
                                                      '2' => {
                                                               'name' => 'output',
                                                               'type' => '15293'
                                                             }
                                                    },
                                         'Private' => 1,
                                         'Return' => '13581',
                                         'ShortName' => 'deserialize_basic_type<unsigned int>',
                                         'Source' => 'binary_serialization.cpp',
                                         'TParam' => {
                                                       '0' => {
                                                                'key' => 'T',
                                                                'type' => '13574'
                                                              }
                                                     }
                                       },
                            '72320' => {
                                         'Class' => '71736',
                                         'InLine' => 2,
                                         'Line' => '206',
                                         'MnglName' => '_ZN4zeno7reflect23DefaultBinarySerializer22deserialize_basic_typeItEEbRKNS0_9UniquePtrINS0_15IReadableStreamEEEPv',
                                         'Param' => {
                                                      '0' => {
                                                               'name' => 'this',
                                                               'type' => '76677'
                                                             },
                                                      '1' => {
                                                               'name' => 'data_stream',
                                                               'type' => '30012'
                                                             },
                                                      '2' => {
                                                               'name' => 'output',
                                                               'type' => '15293'
                                                             }
                                                    },
                                         'Private' => 1,
                                         'Return' => '13581',
                                         'ShortName' => 'deserialize_basic_type<unsigned short>',
                                         'Source' => 'binary_serialization.cpp',
                                         'TParam' => {
                                                       '0' => {
                                                                'key' => 'T',
                                                                'type' => '15081'
                                                              }
                                                     }
                                       },
                            '72367' => {
                                         'Class' => '71736',
                                         'InLine' => 2,
                                         'Line' => '206',
                                         'MnglName' => '_ZN4zeno7reflect23DefaultBinarySerializer22deserialize_basic_typeIhEEbRKNS0_9UniquePtrINS0_15IReadableStreamEEEPv',
                                         'Param' => {
                                                      '0' => {
                                                               'name' => 'this',
                                                               'type' => '76677'
                                                             },
                                                      '1' => {
                                                               'name' => 'data_stream',
                                                               'type' => '30012'
                                                             },
                                                      '2' => {
                                                               'name' => 'output',
                                                               'type' => '15293'
                                                             }
                                                    },
                                         'Private' => 1,
                                         'Return' => '13581',
                                         'ShortName' => 'deserialize_basic_type<unsigned char>',
                                         'Source' => 'binary_serialization.cpp',
                                         'TParam' => {
                                                       '0' => {
                                                                'key' => 'T',
                                                                'type' => '15074'
                                                              }
                                                     }
                                       },
                            '72414' => {
                                         'Class' => '71736',
                                         'InLine' => 2,
                                         'Line' => '206',
                                         'MnglName' => '_ZN4zeno7reflect23DefaultBinarySerializer22deserialize_basic_typeIlEEbRKNS0_9UniquePtrINS0_15IReadableStreamEEEPv',
                                         'Param' => {
                                                      '0' => {
                                                               'name' => 'this',
                                                               'type' => '76677'
                                                             },
                                                      '1' => {
                                                               'name' => 'data_stream',
                                                               'type' => '30012'
                                                             },
                                                      '2' => {
                                                               'name' => 'output',
                                                               'type' => '15293'
                                                             }
                                                    },
                                         'Private' => 1,
                                         'Return' => '13581',
                                         'ShortName' => 'deserialize_basic_type<long>',
                                         'Source' => 'binary_serialization.cpp',
                                         'TParam' => {
                                                       '0' => {
                                                                'key' => 'T',
                                                                'type' => '15128'
                                                              }
                                                     }
                                       },
                            '72461' => {
                                         'Class' => '71736',
                                         'InLine' => 2,
                                         'Line' => '206',
                                         'MnglName' => '_ZN4zeno7reflect23DefaultBinarySerializer22deserialize_basic_typeIiEEbRKNS0_9UniquePtrINS0_15IReadableStreamEEEPv',
                                         'Param' => {
                                                      '0' => {
                                                               'name' => 'this',
                                                               'type' => '76677'
                                                             },
                                                      '1' => {
                                                               'name' => 'data_stream',
                                                               'type' => '30012'
                                                             },
                                                      '2' => {
                                                               'name' => 'output',
                                                               'type' => '15293'
                                                             }
                                                    },
                                         'Private' => 1,
                                         'Return' => '13581',
                                         'ShortName' => 'deserialize_basic_type<int>',
                                         'Source' => 'binary_serialization.cpp',
                                         'TParam' => {
                                                       '0' => {
                                                                'key' => 'T',
                                                                'type' => '15116'
                                                              }
                                                     }
                                       },
                            '72508' => {
                                         'Class' => '71736',
                                         'InLine' => 2,
                                         'Line' => '206',
                                         'MnglName' => '_ZN4zeno7reflect23DefaultBinarySerializer22deserialize_basic_typeIsEEbRKNS0_9UniquePtrINS0_15IReadableStreamEEEPv',
                                         'Param' => {
                                                      '0' => {
                                                               'name' => 'this',
                                                               'type' => '76677'
                                                             },
                                                      '1' => {
                                                               'name' => 'data_stream',
                                                               'type' => '30012'
                                                             },
                                                      '2' => {
                                                               'name' => 'output',
                                                               'type' => '15293'
                                                             }
                                                    },
                                         'Private' => 1,
                                         'Return' => '13581',
                                         'ShortName' => 'deserialize_basic_type<short>',
                                         'Source' => 'binary_serialization.cpp',
                                         'TParam' => {
                                                       '0' => {
                                                                'key' => 'T',
                                                                'type' => '15109'
                                                              }
                                                     }
                                       },
                            '72555' => {
                                         'Class' => '71736',
                                         'InLine' => 2,
                                         'Line' => '206',
                                         'MnglName' => '_ZN4zeno7reflect23DefaultBinarySerializer22deserialize_basic_typeIaEEbRKNS0_9UniquePtrINS0_15IReadableStreamEEEPv',
                                         'Param' => {
                                                      '0' => {
                                                               'name' => 'this',
                                                               'type' => '76677'
                                                             },
                                                      '1' => {
                                                               'name' => 'data_stream',
                                                               'type' => '30012'
                                                             },
                                                      '2' => {
                                                               'name' => 'output',
                                                               'type' => '15293'
                                                             }
                                                    },
                                         'Private' => 1,
                                         'Return' => '13581',
                                         'ShortName' => 'deserialize_basic_type<signed char>',
                                         'Source' => 'binary_serialization.cpp',
                                         'TParam' => {
                                                       '0' => {
                                                                'key' => 'T',
                                                                'type' => '15102'
                                                              }
                                                     }
                                       },
                            '72602' => {
                                         'Class' => '71736',
                                         'InLine' => 2,
                                         'Line' => '206',
                                         'MnglName' => '_ZN4zeno7reflect23DefaultBinarySerializer22deserialize_basic_typeIcEEbRKNS0_9UniquePtrINS0_15IReadableStreamEEEPv',
                                         'Param' => {
                                                      '0' => {
                                                               'name' => 'this',
                                                               'type' => '76677'
                                                             },
                                                      '1' => {
                                                               'name' => 'data_stream',
                                                               'type' => '30012'
                                                             },
                                                      '2' => {
                                                               'name' => 'output',
                                                               'type' => '15293'
                                                             }
                                                    },
                                         'Private' => 1,
                                         'Return' => '13581',
                                         'ShortName' => 'deserialize_basic_type<char>',
                                         'Source' => 'binary_serialization.cpp',
                                         'TParam' => {
                                                       '0' => {
                                                                'key' => 'T',
                                                                'type' => '15249'
                                                              }
                                                     }
                                       },
                            '72649' => {
                                         'Class' => '71736',
                                         'InLine' => 2,
                                         'Line' => '206',
                                         'MnglName' => '_ZN4zeno7reflect23DefaultBinarySerializer22deserialize_basic_typeIdEEbRKNS0_9UniquePtrINS0_15IReadableStreamEEEPv',
                                         'Param' => {
                                                      '0' => {
                                                               'name' => 'this',
                                                               'type' => '76677'
                                                             },
                                                      '1' => {
                                                               'name' => 'data_stream',
                                                               'type' => '30012'
                                                             },
                                                      '2' => {
                                                               'name' => 'output',
                                                               'type' => '15293'
                                                             }
                                                    },
                                         'Private' => 1,
                                         'Return' => '13581',
                                         'ShortName' => 'deserialize_basic_type<double>',
                                         'Source' => 'binary_serialization.cpp',
                                         'TParam' => {
                                                       '0' => {
                                                                'key' => 'T',
                                                                'type' => '15149'
                                                              }
                                                     }
                                       },
                            '72696' => {
                                         'Class' => '71736',
                                         'InLine' => 2,
                                         'Line' => '206',
                                         'MnglName' => '_ZN4zeno7reflect23DefaultBinarySerializer22deserialize_basic_typeIfEEbRKNS0_9UniquePtrINS0_15IReadableStreamEEEPv',
                                         'Param' => {
                                                      '0' => {
                                                               'name' => 'this',
                                                               'type' => '76677'
                                                             },
                                                      '1' => {
                                                               'name' => 'data_stream',
                                                               'type' => '30012'
