$VAR1 = {
          'ABI_DUMPER_VERSION' => '1.3',
          'ABI_DUMP_VERSION' => '3.5',
          'Arch' => 'x86_64',
          'ClangVersion' => '18.1.8',
          'Headers' => {
                         '__stddef_size_t.h' => 1,
                         'alloc_traits.h' => 1,
                         'allocator.h' => 1,
                         'any' => 1,
                         'arraylist' => 1,
                         'basic_string.h' => 1,
                         'basic_string.tcc' => 1,
                         'c++allocator.h' => 1,
                         'c++config.h' => 1,
                         'char_traits.h' => 1,
                         'duck' => 1,
                         'enable_if.hpp' => 1,
                         'initializer_list' => 1,
                         'ios_base.h' => 1,
                         'iosfwd' => 1,
                         'move.hpp' => 1,
                         'new_allocator.h' => 1,
                         'ptr_traits.h' => 1,
                         'reference.hpp' => 1,
                         'serialization.hpp' => 1,
                         'stdint-uintn.h' => 1,
                         'stl_iterator_base_types.h' => 1,
                         'string_view' => 1,
                         'stringfwd.h' => 1,
                         'type.hpp' => 1,
                         'typeinfo.hpp' => 1,
                         'types.h' => 1,
                         'unique_ptr' => 1
                       },
          'Language' => 'C++',
          'LibraryName' => 'libReflectSerialization.so',
          'LibraryVersion' => '1',
          'MissedOffsets' => '1',
          'MissedRegs' => '1',
          'NameSpaces' => {
                            '__gnu_cxx' => 1,
                            'std' => 1,
                            'std::__cxx11' => 1,
                            'std::__exception_ptr' => 1,
                            'zeno::reflect' => 1,
                            'zeno::reflect::any' => 1
                          },
          'Needed' => {
                        'libc.so.6' => 1,
                        'libgcc_s.so.1' => 1,
                        'liblibreflect.so' => 1,
                        'libm.so.6' => 1,
                        'libstdc++.so.6' => 1
                      },
          'Sources' => {
                         'binary_serialization.cpp' => 1,
                         'file_stream.cpp' => 1,
                         'serialization.cpp' => 1
                       },
          'SymbolInfo' => {
                            '1001' => {
                                        'Class' => '872',
                                        'Const' => 1,
                                        'Header' => 'any',
                                        'InLine' => 2,
                                        'Line' => '98',
                                        'MnglName' => '_ZNK4zeno7reflect3any18TEnableAnyFromThisINS0_7ArchiveEE19get_data_ptr_unsafeEv',
                                        'Param' => {
                                                     '0' => {
                                                              'name' => 'this',
                                                              'type' => '5550'
                                                            }
                                                   },
                                        'Return' => '5549',
                                        'ShortName' => 'get_data_ptr_unsafe',
                                        'Virt' => 1,
                                        'VirtPos' => '6'
                                      },
                            '1025' => {
                                        'Class' => '872',
                                        'Header' => 'any',
                                        'InLine' => 2,
                                        'Line' => '102',
                                        'MnglName' => '_ZN4zeno7reflect3any18TEnableAnyFromThisINS0_7ArchiveEE19is_enable_from_thisEv',
                                        'Param' => {
                                                     '0' => {
                                                              'name' => 'this',
                                                              'type' => '5560'
                                                            }
                                                   },
                                        'Return' => '3663',
                                        'ShortName' => 'is_enable_from_this',
                                        'Virt' => 1,
                                        'VirtPos' => '7'
                                      },
                            '1049' => {
                                        'Class' => '872',
                                        'Header' => 'any',
                                        'InLine' => 2,
                                        'Line' => '667',
                                        'MnglName' => '_ZN4zeno7reflect3any18TEnableAnyFromThisINS0_7ArchiveEE6to_anyEv',
                                        'Param' => {
                                                     '0' => {
                                                              'name' => 'this',
                                                              'type' => '5560'
                                                            }
                                                   },
                                        'Return' => '1639',
                                        'ShortName' => 'to_any'
                                      },
                            '1066' => {
                                        'Artificial' => 1,
                                        'Class' => '872',
                                        'Constructor' => 1,
                                        'Header' => 'any',
                                        'Line' => '46',
                                        'MnglName' => '_ZN4zeno7reflect3any18TEnableAnyFromThisINS0_7ArchiveEEC2Ev',
                                        'Param' => {
                                                     '0' => {
                                                              'name' => 'this',
                                                              'type' => '5560'
                                                            }
                                                   },
                                        'ShortName' => 'TEnableAnyFromThis'
                                      },
                            '1075' => {
                                        'Artificial' => 1,
                                        'Class' => '872',
                                        'Destructor' => 1,
                                        'Header' => 'any',
                                        'Line' => '46',
                                        'MnglName' => '_ZN4zeno7reflect3any18TEnableAnyFromThisINS0_7ArchiveEED0Ev',
                                        'Param' => {
                                                     '0' => {
                                                              'name' => 'this',
                                                              'type' => '5560'
                                                            }
                                                   },
                                        'ShortName' => '~TEnableAnyFromThis',
                                        'Virt' => 1,
                                        'VirtPos' => '0'
                                      },
                            '1110' => {
                                        'Class' => '1093',
                                        'Destructor' => 1,
                                        'Header' => 'any',
                                        'Line' => '27',
                                        'MnglName' => '_ZN4zeno7reflect3any10IContainerD0Ev',
                                        'Param' => {
                                                     '0' => {
                                                              'name' => 'this',
                                                              'type' => '3692'
                                                            }
                                                   },
                                        'ShortName' => '~IContainer',
                                        'Virt' => 1,
                                        'VirtPos' => '0'
                                      },
                            '1129' => {
                                        'Class' => '1093',
                                        'Const' => 1,
                                        'Header' => 'any',
                                        'Line' => '28',
                                        'MnglName' => '_ZNK4zeno7reflect3any10IContainer4typeEv',
                                        'Param' => {
                                                     '0' => {
                                                              'name' => 'this',
                                                              'type' => '5534'
                                                            }
                                                   },
                                        'PureVirt' => 1,
                                        'Return' => '3697',
                                        'ShortName' => 'type',
                                        'VirtPos' => '2'
                                      },
                            '1153' => {
                                        'Class' => '1093',
                                        'Const' => 1,
                                        'Header' => 'any',
                                        'Line' => '29',
                                        'MnglName' => '_ZNK4zeno7reflect3any10IContainer7is_typeERKNS0_12RTTITypeInfoE',
                                        'Param' => {
                                                     '0' => {
                                                              'name' => 'this',
                                                              'type' => '5534'
                                                            },
                                                     '1' => {
                                                              'name' => 'p1',
                                                              'type' => '3697'
                                                            }
                                                   },
                                        'PureVirt' => 1,
                                        'Return' => '3663',
                                        'ShortName' => 'is_type',
                                        'VirtPos' => '3'
                                      },
                            '1182' => {
                                        'Class' => '1093',
                                        'Const' => 1,
                                        'Header' => 'any',
                                        'Line' => '30',
                                        'MnglName' => '_ZNK4zeno7reflect3any10IContainer5cloneEv',
                                        'Param' => {
                                                     '0' => {
                                                              'name' => 'this',
                                                              'type' => '5534'
                                                            }
                                                   },
                                        'PureVirt' => 1,
                                        'Return' => '3692',
                                        'ShortName' => 'clone',
                                        'VirtPos' => '4'
                                      },
                            '1206' => {
                                        'Class' => '1093',
                                        'Const' => 1,
                                        'Header' => 'any',
                                        'Line' => '31',
                                        'MnglName' => '_ZNK4zeno7reflect3any10IContainer17is_convertible_toERKNS0_12RTTITypeInfoE',
                                        'Param' => {
                                                     '0' => {
                                                              'name' => 'this',
                                                              'type' => '5534'
                                                            },
                                                     '1' => {
                                                              'name' => 'p1',
                                                              'type' => '3697'
                                                            }
                                                   },
                                        'PureVirt' => 1,
                                        'Return' => '1611',
                                        'ShortName' => 'is_convertible_to',
                                        'VirtPos' => '5'
                                      },
                            '1235' => {
                                        'Class' => '1093',
                                        'Const' => 1,
                                        'Header' => 'any',
                                        'Line' => '32',
                                        'MnglName' => '_ZNK4zeno7reflect3any10IContainer19get_data_ptr_unsafeEv',
                                        'Param' => {
                                                     '0' => {
                                                              'name' => 'this',
                                                              'type' => '5534'
                                                            }
                                                   },
                                        'PureVirt' => 1,
                                        'Return' => '5549',
                                        'ShortName' => 'get_data_ptr_unsafe',
                                        'VirtPos' => '6'
                                      },
                            '1259' => {
                                        'Class' => '1093',
                                        'Header' => 'any',
                                        'Line' => '33',
                                        'MnglName' => '_ZN4zeno7reflect3any10IContainer19is_enable_from_thisEv',
                                        'Param' => {
                                                     '0' => {
                                                              'name' => 'this',
                                                              'type' => '3692'
                                                            }
                                                   },
                                        'PureVirt' => 1,
                                        'Return' => '3663',
                                        'ShortName' => 'is_enable_from_this',
                                        'VirtPos' => '7'
                                      },
                            '1283' => {
                                        'Artificial' => 1,
                                        'Class' => '1093',
                                        'Constructor' => 1,
                                        'Header' => 'any',
                                        'Line' => '25',
                                        'MnglName' => '_ZN4zeno7reflect3any10IContainerC2Ev',
                                        'Param' => {
                                                     '0' => {
                                                              'name' => 'this',
                                                              'type' => '3692'
                                                            }
                                                   },
                                        'ShortName' => 'IContainer'
                                      },
                            '14186' => {
                                         'Class' => '1294',
                                         'Constructor' => 1,
                                         'Header' => 'typeinfo.hpp',
                                         'Line' => '30',
                                         'MnglName' => '_ZN4zeno7reflect12RTTITypeInfoC2EPKcmmm',
                                         'Param' => {
                                                      '0' => {
                                                               'name' => 'this',
                                                               'type' => '3724'
                                                             },
                                                      '1' => {
                                                               'name' => 'in_name',
                                                               'type' => '3707'
                                                             },
                                                      '2' => {
                                                               'name' => 'hashcode',
                                                               'type' => '3731'
                                                             },
                                                      '3' => {
                                                               'name' => 'flags',
                                                               'type' => '3712'
                                                             },
                                                      '4' => {
                                                               'name' => 'decayed_hash',
                                                               'type' => '3712'
                                                             }
                                                    },
                                         'ShortName' => 'RTTITypeInfo'
                                       },
                            '15088' => {
                                         'Class' => '14978',
                                         'Destructor' => 1,
                                         'Header' => 'unique_ptr',
                                         'Line' => '42',
                                         'MnglName' => '_ZN4zeno7reflect9UniquePtrINS0_23DefaultBinarySerializerEED2Ev',
                                         'Param' => {
                                                      '0' => {
                                                               'name' => 'this',
                                                               'type' => '36089'
                                                             }
                                                    },
                                         'ShortName' => '~UniquePtr'
                                       },
                            '15227' => {
                                         'Class' => '14978',
                                         'Constructor' => 1,
                                         'Header' => 'unique_ptr',
                                         'Line' => '17',
                                         'MnglName' => '_ZN4zeno7reflect9UniquePtrINS0_23DefaultBinarySerializerEEC2IS2_EEPT_',
                                         'Param' => {
                                                      '0' => {
                                                               'name' => 'this',
                                                               'type' => '36089'
                                                             },
                                                      '1' => {
                                                               'name' => 'p',
                                                               'type' => '36064'
                                                             }
                                                    },
                                         'ShortName' => 'UniquePtr<zeno::reflect::DefaultBinarySerializer>',
                                         'TParam' => {
                                                       '0' => {
                                                                'key' => 'U',
                                                                'type' => '15252'
                                                              }
                                                     }
                                       },
                            '15270' => {
                                         'Class' => '15252',
                                         'InLine' => 2,
                                         'Line' => '24',
                                         'MnglName' => '_ZN4zeno7reflect23DefaultBinarySerializer9serializeERNS0_9UniquePtrINS0_15IWritableStreamEEERKNS0_3AnyE',
                                         'Param' => {
                                                      '0' => {
                                                               'name' => 'this',
                                                               'type' => '36064'
                                                             },
                                                      '1' => {
                                                               'name' => 'out_stream',
                                                               'type' => '5697'
                                                             },
                                                      '2' => {
                                                               'name' => 'input',
                                                               'type' => '5570'
                                                             }
                                                    },
                                         'Return' => '3663',
                                         'ShortName' => 'serialize',
                                         'Source' => 'binary_serialization.cpp',
                                         'Virt' => 1,
                                         'VirtPos' => '2'
                                       },
                            '15306' => {
                                         'Class' => '15252',
                                         'InLine' => 2,
                                         'Line' => '64',
                                         'MnglName' => '_ZN4zeno7reflect23DefaultBinarySerializer11deserializeERKNS0_9UniquePtrINS0_15IReadableStreamEEERNS0_3AnyE',
                                         'Param' => {
                                                      '0' => {
                                                               'name' => 'this',
                                                               'type' => '36064'
                                                             },
                                                      '1' => {
                                                               'name' => 'data_stream',
                                                               'type' => '5647'
                                                             },
                                                      '2' => {
                                                               'name' => 'output',
                                                               'type' => '5585'
                                                             }
                                                    },
                                         'Return' => '3663',
                                         'ShortName' => 'deserialize',
                                         'Source' => 'binary_serialization.cpp',
                                         'Virt' => 1,
                                         'VirtPos' => '3'
                                       },
                            '15342' => {
                                         'Class' => '15252',
                                         'InLine' => 2,
                                         'Line' => '104',
                                         'MnglName' => '_ZN4zeno7reflect23DefaultBinarySerializer9serializeERNS0_9UniquePtrINS0_15IWritableStreamEEENS0_10TypeHandleEPKv',
                                         'Param' => {
                                                      '0' => {
                                                               'name' => 'this',
                                                               'type' => '36064'
                                                             },
                                                      '1' => {
                                                               'name' => 'out_stream',
                                                               'type' => '5697'
                                                             },
                                                      '2' => {
                                                               'name' => 'reflect_type',
                                                               'type' => '36054'
                                                             },
                                                      '3' => {
                                                               'name' => 'input',
                                                               'type' => '6042'
                                                             }
                                                    },
                                         'Return' => '3663',
                                         'ShortName' => 'serialize',
                                         'Source' => 'binary_serialization.cpp',
                                         'Virt' => 1,
                                         'VirtPos' => '4'
                                       },
                            '15383' => {
                                         'Class' => '15252',
                                         'InLine' => 2,
                                         'Line' => '138',
                                         'MnglName' => '_ZN4zeno7reflect23DefaultBinarySerializer11deserializeERNS0_9UniquePtrINS0_15IReadableStreamEEENS0_10TypeHandleEPv',
                                         'Param' => {
                                                      '0' => {
                                                               'name' => 'this',
                                                               'type' => '36064'
                                                             },
                                                      '1' => {
                                                               'name' => 'data_stream',
                                                               'type' => '5657'
                                                             },
                                                      '2' => {
                                                               'name' => 'reflect_type',
                                                               'type' => '36054'
                                                             },
                                                      '3' => {
                                                               'name' => 'output',
                                                               'type' => '5549'
                                                             }
                                                    },
                                         'Return' => '3663',
                                         'ShortName' => 'deserialize',
                                         'Source' => 'binary_serialization.cpp',
                                         'Virt' => 1,
                                         'VirtPos' => '5'
                                       },
                            '15424' => {
                                         'Class' => '15252',
                                         'InLine' => 2,
                                         'Line' => '214',
                                         'MnglName' => '_ZN4zeno7reflect23DefaultBinarySerializer16serialize_stringERNS0_9UniquePtrINS0_15IWritableStreamEEERKNS0_3AnyE',
                                         'Param' => {
                                                      '0' => {
                                                               'name' => 'this',
                                                               'type' => '36064'
                                                             },
                                                      '1' => {
                                                               'name' => 'out_stream',
                                                               'type' => '5697'
                                                             },
                                                      '2' => {
                                                               'name' => 'input',
                                                               'type' => '5570'
                                                             }
                                                    },
                                         'Private' => 1,
                                         'Return' => '3663',
                                         'ShortName' => 'serialize_string',
                                         'Source' => 'binary_serialization.cpp'
                                       },
                            '15451' => {
                                         'Class' => '15252',
                                         'InLine' => 2,
                                         'Line' => '225',
                                         'MnglName' => '_ZN4zeno7reflect23DefaultBinarySerializer16serialize_stringERNS0_9UniquePtrINS0_15IWritableStreamEEEPKNSt7__cxx1112basic_stringIcSt11char_traitsIcESaIcEEE',
                                         'Param' => {
                                                      '0' => {
                                                               'name' => 'this',
                                                               'type' => '36064'
                                                             },
                                                      '1' => {
                                                               'name' => 'out_stream',
                                                               'type' => '5697'
                                                             },
                                                      '2' => {
                                                               'name' => 'input',
                                                               'type' => '36069'
                                                             }
                                                    },
                                         'Private' => 1,
                                         'Return' => '3663',
                                         'ShortName' => 'serialize_string',
                                         'Source' => 'binary_serialization.cpp'
                                       },
                            '15478' => {
                                         'Class' => '15252',
                                         'InLine' => 2,
                                         'Line' => '237',
                                         'MnglName' => '_ZN4zeno7reflect23DefaultBinarySerializer18deserialize_stringERKNS0_9UniquePtrINS0_15IReadableStreamEEERNS0_3AnyE',
                                         'Param' => {
                                                      '0' => {
                                                               'name' => 'this',
                                                               'type' => '36064'
                                                             },
                                                      '1' => {
                                                               'name' => 'data_stream',
                                                               'type' => '5647'
                                                             },
                                                      '2' => {
                                                               'name' => 'output',
                                                               'type' => '5585'
                                                             }
                                                    },
                                         'Private' => 1,
                                         'Return' => '3663',
                                         'ShortName' => 'deserialize_string',
                                         'Source' => 'binary_serialization.cpp'
                                       },
                            '15505' => {
                                         'Class' => '15252',
                                         'InLine' => 2,
                                         'Line' => '247',
                                         'MnglName' => '_ZN4zeno7reflect23DefaultBinarySerializer18deserialize_stringERKNS0_9UniquePtrINS0_15IReadableStreamEEEPNSt7__cxx1112basic_stringIcSt11char_traitsIcESaIcEEE',
                                         'Param' => {
                                                      '0' => {
                                                               'name' => 'this',
                                                               'type' => '36064'
                                                             },
                                                      '1' => {
                                                               'name' => 'data_stream',
                                                               'type' => '5647'
                                                             },
                                                      '2' => {
                                                               'name' => 'output',
                                                               'type' => '36079'
                                                             }
                                                    },
                                         'Private' => 1,
                                         'Return' => '3663',
                                         'ShortName' => 'deserialize_string',
                                         'Source' => 'binary_serialization.cpp'
                                       },
                            '15532' => {
                                         'Artificial' => 1,
                                         'Class' => '15252',
                                         'Constructor' => 1,
                                         'Line' => '22',
                                         'MnglName' => '_ZN4zeno7reflect23DefaultBinarySerializerC2Ev',
                                         'Param' => {
                                                      '0' => {
                                                               'name' => 'this',
                                                               'type' => '36064'
                                                             }
                                                    },
                                         'ShortName' => 'DefaultBinarySerializer',
                                         'Source' => 'binary_serialization.cpp'
                                       },
                            '15542' => {
                                         'Artificial' => 1,
                                         'Class' => '15252',
                                         'Destructor' => 1,
                                         'Line' => '22',
                                         'MnglName' => '_ZN4zeno7reflect23DefaultBinarySerializerD0Ev',
                                         'Param' => {
                                                      '0' => {
                                                               'name' => 'this',
                                                               'type' => '36064'
                                                             }
                                                    },
                                         'ShortName' => '~DefaultBinarySerializer',
                                         'Source' => 'binary_serialization.cpp',
                                         'Virt' => 1,
                                         'VirtPos' => '0'
                                       },
                            '15560' => {
                                         'Class' => '15252',
                                         'InLine' => 2,
                                         'Line' => '188',
                                         'MnglName' => '_ZN4zeno7reflect23DefaultBinarySerializer20serialize_basic_typeIiEEbRNS0_9UniquePtrINS0_15IWritableStreamEEERKNS0_3AnyEm',
                                         'Param' => {
                                                      '0' => {
                                                               'name' => 'this',
                                                               'type' => '36064'
                                                             },
                                                      '1' => {
                                                               'name' => 'out_stream',
                                                               'type' => '5697'
                                                             },
                                                      '2' => {
                                                               'name' => 'input',
                                                               'type' => '5570'
                                                             },
                                                      '3' => {
                                                               'name' => 'type_identifier',
                                                               'type' => '24063'
                                                             }
                                                    },
                                         'Private' => 1,
                                         'Return' => '3663',
                                         'ShortName' => 'serialize_basic_type<int>',
                                         'Source' => 'binary_serialization.cpp',
                                         'TParam' => {
                                                       '0' => {
                                                                'key' => 'T',
                                                                'type' => '3688'
                                                              }
                                                     }
                                       },
                            '15599' => {
                                         'Class' => '15252',
                                         'InLine' => 2,
                                         'Line' => '188',
                                         'MnglName' => '_ZN4zeno7reflect23DefaultBinarySerializer20serialize_basic_typeIfEEbRNS0_9UniquePtrINS0_15IWritableStreamEEERKNS0_3AnyEm',
                                         'Param' => {
                                                      '0' => {
                                                               'name' => 'this',
                                                               'type' => '36064'
                                                             },
                                                      '1' => {
                                                               'name' => 'out_stream',
                                                               'type' => '5697'
                                                             },
                                                      '2' => {
                                                               'name' => 'input',
                                                               'type' => '5570'
                                                             },
                                                      '3' => {
                                                               'name' => 'type_identifier',
                                                               'type' => '24063'
                                                             }
                                                    },
                                         'Private' => 1,
                                         'Return' => '3663',
                                         'ShortName' => 'serialize_basic_type<float>',
                                         'Source' => 'binary_serialization.cpp',
                                         'TParam' => {
                                                       '0' => {
                                                                'key' => 'T',
                                                                'type' => '10085'
                                                              }
                                                     }
                                       },
                            '15638' => {
                                         'Class' => '15252',
                                         'InLine' => 2,
                                         'Line' => '188',
                                         'MnglName' => '_ZN4zeno7reflect23DefaultBinarySerializer20serialize_basic_typeIdEEbRNS0_9UniquePtrINS0_15IWritableStreamEEERKNS0_3AnyEm',
                                         'Param' => {
                                                      '0' => {
                                                               'name' => 'this',
                                                               'type' => '36064'
                                                             },
                                                      '1' => {
                                                               'name' => 'out_stream',
                                                               'type' => '5697'
                                                             },
                                                      '2' => {
                                                               'name' => 'input',
                                                               'type' => '5570'
                                                             },
                                                      '3' => {
                                                               'name' => 'type_identifier',
                                                               'type' => '24063'
                                                             }
                                                    },
                                         'Private' => 1,
                                         'Return' => '3663',
                                         'ShortName' => 'serialize_basic_type<double>',
                                         'Source' => 'binary_serialization.cpp',
                                         'TParam' => {
                                                       '0' => {
                                                                'key' => 'T',
                                                                'type' => '10049'
                                                              }
                                                     }
                                       },
                            '15677' => {
                                         'Class' => '15252',
                                         'InLine' => 2,
                                         'Line' => '188',
                                         'MnglName' => '_ZN4zeno7reflect23DefaultBinarySerializer20serialize_basic_typeIcEEbRNS0_9UniquePtrINS0_15IWritableStreamEEERKNS0_3AnyEm',
                                         'Param' => {
                                                      '0' => {
                                                               'name' => 'this',
                                                               'type' => '36064'
                                                             },
                                                      '1' => {
                                                               'name' => 'out_stream',
                                                               'type' => '5697'
                                                             },
                                                      '2' => {
                                                               'name' => 'input',
                                                               'type' => '5570'
                                                             },
                                                      '3' => {
                                                               'name' => 'type_identifier',
                                                               'type' => '24063'
                                                             }
                                                    },
                                         'Private' => 1,
                                         'Return' => '3663',
                                         'ShortName' => 'serialize_basic_type<char>',
                                         'Source' => 'binary_serialization.cpp',
                                         'TParam' => {
                                                       '0' => {
                                                                'key' => 'T',
                                                                'type' => '70'
                                                              }
                                                     }
                                       },
                            '15716' => {
                                         'Class' => '15252',
                                         'InLine' => 2,
                                         'Line' => '188',
                                         'MnglName' => '_ZN4zeno7reflect23DefaultBinarySerializer20serialize_basic_typeIaEEbRNS0_9UniquePtrINS0_15IWritableStreamEEERKNS0_3AnyEm',
                                         'Param' => {
                                                      '0' => {
                                                               'name' => 'this',
                                                               'type' => '36064'
                                                             },
                                                      '1' => {
                                                               'name' => 'out_stream',
                                                               'type' => '5697'
                                                             },
                                                      '2' => {
                                                               'name' => 'input',
                                                               'type' => '5570'
                                                             },
                                                      '3' => {
                                                               'name' => 'type_identifier',
                                                               'type' => '24063'
                                                             }
                                                    },
                                         'Private' => 1,
                                         'Return' => '3663',
                                         'ShortName' => 'serialize_basic_type<signed char>',
                                         'Source' => 'binary_serialization.cpp',
                                         'TParam' => {
                                                       '0' => {
                                                                'key' => 'T',
                                                                'type' => '12815'
                                                              }
                                                     }
                                       },
                            '15755' => {
                                         'Class' => '15252',
                                         'InLine' => 2,
                                         'Line' => '188',
                                         'MnglName' => '_ZN4zeno7reflect23DefaultBinarySerializer20serialize_basic_typeIsEEbRNS0_9UniquePtrINS0_15IWritableStreamEEERKNS0_3AnyEm',
                                         'Param' => {
                                                      '0' => {
                                                               'name' => 'this',
                                                               'type' => '36064'
                                                             },
                                                      '1' => {
                                                               'name' => 'out_stream',
                                                               'type' => '5697'
                                                             },
                                                      '2' => {
                                                               'name' => 'input',
                                                               'type' => '5570'
                                                             },
                                                      '3' => {
                                                               'name' => 'type_identifier',
                                                               'type' => '24063'
                                                             }
                                                    },
                                         'Private' => 1,
                                         'Return' => '3663',
                                         'ShortName' => 'serialize_basic_type<short>',
                                         'Source' => 'binary_serialization.cpp',
                                         'TParam' => {
                                                       '0' => {
                                                                'key' => 'T',
                                                                'type' => '12838'
                                                              }
                                                     }
                                       },
                            '15794' => {
                                         'Class' => '15252',
                                         'InLine' => 2,
                                         'Line' => '188',
                                         'MnglName' => '_ZN4zeno7reflect23DefaultBinarySerializer20serialize_basic_typeIlEEbRNS0_9UniquePtrINS0_15IWritableStreamEEERKNS0_3AnyEm',
                                         'Param' => {
                                                      '0' => {
                                                               'name' => 'this',
                                                               'type' => '36064'
                                                             },
                                                      '1' => {
                                                               'name' => 'out_stream',
                                                               'type' => '5697'
                                                             },
                                                      '2' => {
                                                               'name' => 'input',
                                                               'type' => '5570'
                                                             },
                                                      '3' => {
                                                               'name' => 'type_identifier',
                                                               'type' => '24063'
                                                             }
                                                    },
                                         'Private' => 1,
                                         'Return' => '3663',
                                         'ShortName' => 'serialize_basic_type<long>',
                                         'Source' => 'binary_serialization.cpp',
                                         'TParam' => {
                                                       '0' => {
                                                                'key' => 'T',
                                                                'type' => '10143'
                                                              }
                                                     }
                                       },
                            '15833' => {
                                         'Class' => '15252',
                                         'InLine' => 2,
                                         'Line' => '188',
                                         'MnglName' => '_ZN4zeno7reflect23DefaultBinarySerializer20serialize_basic_typeIhEEbRNS0_9UniquePtrINS0_15IWritableStreamEEERKNS0_3AnyEm',
                                         'Param' => {
                                                      '0' => {
                                                               'name' => 'this',
                                                               'type' => '36064'
                                                             },
                                                      '1' => {
                                                               'name' => 'out_stream',
                                                               'type' => '5697'
                                                             },
                                                      '2' => {
                                                               'name' => 'input',
                                                               'type' => '5570'
                                                             },
                                                      '3' => {
                                                               'name' => 'type_identifier',
                                                               'type' => '24063'
                                                             }
                                                    },
                                         'Private' => 1,
                                         'Return' => '3663',
                                         'ShortName' => 'serialize_basic_type<unsigned char>',
                                         'Source' => 'binary_serialization.cpp',
                                         'TParam' => {
                                                       '0' => {
                                                                'key' => 'T',
                                                                'type' => '13032'
                                                              }
                                                     }
                                       },
                            '15872' => {
                                         'Class' => '15252',
                                         'InLine' => 2,
                                         'Line' => '188',
                                         'MnglName' => '_ZN4zeno7reflect23DefaultBinarySerializer20serialize_basic_typeItEEbRNS0_9UniquePtrINS0_15IWritableStreamEEERKNS0_3AnyEm',
                                         'Param' => {
                                                      '0' => {
                                                               'name' => 'this',
                                                               'type' => '36064'
                                                             },
                                                      '1' => {
                                                               'name' => 'out_stream',
                                                               'type' => '5697'
                                                             },
                                                      '2' => {
                                                               'name' => 'input',
                                                               'type' => '5570'
                                                             },
                                                      '3' => {
                                                               'name' => 'type_identifier',
                                                               'type' => '24063'
                                                             }
                                                    },
                                         'Private' => 1,
                                         'Return' => '3663',
                                         'ShortName' => 'serialize_basic_type<unsigned short>',
                                         'Source' => 'binary_serialization.cpp',
                                         'TParam' => {
                                                       '0' => {
                                                                'key' => 'T',
                                                                'type' => '13055'
                                                              }
                                                     }
                                       },
                            '15911' => {
                                         'Class' => '15252',
                                         'InLine' => 2,
                                         'Line' => '188',
                                         'MnglName' => '_ZN4zeno7reflect23DefaultBinarySerializer20serialize_basic_typeIjEEbRNS0_9UniquePtrINS0_15IWritableStreamEEERKNS0_3AnyEm',
                                         'Param' => {
                                                      '0' => {
                                                               'name' => 'this',
                                                               'type' => '36064'
                                                             },
                                                      '1' => {
                                                               'name' => 'out_stream',
                                                               'type' => '5697'
                                                             },
                                                      '2' => {
                                                               'name' => 'input',
                                                               'type' => '5570'
                                                             },
                                                      '3' => {
                                                               'name' => 'type_identifier',
                                                               'type' => '24063'
                                                             }
                                                    },
                                         'Private' => 1,
                                         'Return' => '3663',
                                         'ShortName' => 'serialize_basic_type<unsigned int>',
                                         'Source' => 'binary_serialization.cpp',
                                         'TParam' => {
                                                       '0' => {
                                                                'key' => 'T',
                                                                'type' => '5733'
                                                              }
                                                     }
                                       },
                            '15950' => {
                                         'Class' => '15252',
                                         'InLine' => 2,
                                         'Line' => '188',
                                         'MnglName' => '_ZN4zeno7reflect23DefaultBinarySerializer20serialize_basic_typeImEEbRNS0_9UniquePtrINS0_15IWritableStreamEEERKNS0_3AnyEm',
                                         'Param' => {
                                                      '0' => {
                                                               'name' => 'this',
                                                               'type' => '36064'
                                                             },
                                                      '1' => {
                                                               'name' => 'out_stream',
                                                               'type' => '5697'
                                                             },
                                                      '2' => {
                                                               'name' => 'input',
                                                               'type' => '5570'
                                                             },
                                                      '3' => {
                                                               'name' => 'type_identifier',
                                                               'type' => '24063'
                                                             }
                                                    },
                                         'Private' => 1,
                                         'Return' => '3663',
                                         'ShortName' => 'serialize_basic_type<unsigned long>',
                                         'Source' => 'binary_serialization.cpp',
                                         'TParam' => {
                                                       '0' => {
                                                                'key' => 'T',
                                                                'type' => '3720'
                                                              }
                                                     }
                                       },
                            '15989' => {
                                         'Class' => '15252',
                                         'InLine' => 2,
                                         'Line' => '197',
                                         'MnglName' => '_ZN4zeno7reflect23DefaultBinarySerializer22deserialize_basic_typeIfEEbRKNS0_9UniquePtrINS0_15IReadableStreamEEERNS0_3AnyE',
                                         'Param' => {
                                                      '0' => {
                                                               'name' => 'this',
                                                               'type' => '36064'
                                                             },
                                                      '1' => {
                                                               'name' => 'data_stream',
                                                               'type' => '5647'
                                                             },
                                                      '2' => {
                                                               'name' => 'output',
                                                               'type' => '5585'
                                                             }
                                                    },
                                         'Private' => 1,
                                         'Return' => '3663',
                                         'ShortName' => 'deserialize_basic_type<float>',
                                         'Source' => 'binary_serialization.cpp',
                                         'TParam' => {
                                                       '0' => {
                                                                'key' => 'T',
                                                                'type' => '10085'
                                                              }
                                                     }
                                       },
                            '16023' => {
                                         'Class' => '15252',
                                         'InLine' => 2,
                                         'Line' => '197',
                                         'MnglName' => '_ZN4zeno7reflect23DefaultBinarySerializer22deserialize_basic_typeIdEEbRKNS0_9UniquePtrINS0_15IReadableStreamEEERNS0_3AnyE',
                                         'Param' => {
                                                      '0' => {
                                                               'name' => 'this',
                                                               'type' => '36064'
                                                             },
                                                      '1' => {
                                                               'name' => 'data_stream',
                                                               'type' => '5647'
                                                             },
                                                      '2' => {
                                                               'name' => 'output',
                                                               'type' => '5585'
                                                             }
                                                    },
                                         'Private' => 1,
                                         'Return' => '3663',
                                         'ShortName' => 'deserialize_basic_type<double>',
                                         'Source' => 'binary_serialization.cpp',
                                         'TParam' => {
                                                       '0' => {
                                                                'key' => 'T',
                                                                'type' => '10049'
                                                              }
                                                     }
                                       },
                            '16057' => {
                                         'Class' => '15252',
                                         'InLine' => 2,
                                         'Line' => '197',
                                         'MnglName' => '_ZN4zeno7reflect23DefaultBinarySerializer22deserialize_basic_typeIcEEbRKNS0_9UniquePtrINS0_15IReadableStreamEEERNS0_3AnyE',
                                         'Param' => {
                                                      '0' => {
                                                               'name' => 'this',
                                                               'type' => '36064'
                                                             },
                                                      '1' => {
                                                               'name' => 'data_stream',
                                                               'type' => '5647'
                                                             },
                                                      '2' => {
                                                               'name' => 'output',
                                                               'type' => '5585'
                                                             }
                                                    },
                                         'Private' => 1,
                                         'Return' => '3663',
                                         'ShortName' => 'deserialize_basic_type<char>',
                                         'Source' => 'binary_serialization.cpp',
                                         'TParam' => {
                                                       '0' => {
                                                                'key' => 'T',
                                                                'type' => '70'
                                                              }
                                                     }
                                       },
                            '16091' => {
                                         'Class' => '15252',
                                         'InLine' => 2,
                                         'Line' => '197',
                                         'MnglName' => '_ZN4zeno7reflect23DefaultBinarySerializer22deserialize_basic_typeIaEEbRKNS0_9UniquePtrINS0_15IReadableStreamEEERNS0_3AnyE',
                                         'Param' => {
                                                      '0' => {
                                                               'name' => 'this',
                                                               'type' => '36064'
                                                             },
                                                      '1' => {
                                                               'name' => 'data_stream',
                                                               'type' => '5647'
                                                             },
                                                      '2' => {
                                                               'name' => 'output',
                                                               'type' => '5585'
                                                             }
                                                    },
                                         'Private' => 1,
                                         'Return' => '3663',
                                         'ShortName' => 'deserialize_basic_type<signed char>',
                                         'Source' => 'binary_serialization.cpp',
                                         'TParam' => {
                                                       '0' => {
                                                                'key' => 'T',
                                                                'type' => '12815'
                                                              }
                                                     }
                                       },
                            '16125' => {
                                         'Class' => '15252',
                                         'InLine' => 2,
                                         'Line' => '197',
                                         'MnglName' => '_ZN4zeno7reflect23DefaultBinarySerializer22deserialize_basic_typeIsEEbRKNS0_9UniquePtrINS0_15IReadableStreamEEERNS0_3AnyE',
                                         'Param' => {
                                                      '0' => {
                                                               'name' => 'this',
                                                               'type' => '36064'
                                                             },
                                                      '1' => {
                                                               'name' => 'data_stream',
                                                               'type' => '5647'
                                                             },
                                                      '2' => {
                                                               'name' => 'output',
                                                               'type' => '5585'
                                                             }
                                                    },
                                         'Private' => 1,
                                         'Return' => '3663',
                                         'ShortName' => 'deserialize_basic_type<short>',
                                         'Source' => 'binary_serialization.cpp',
                                         'TParam' => {
                                                       '0' => {
                                                                'key' => 'T',
                                                                'type' => '12838'
                                                              }
                                                     }
                                       },
                            '16159' => {
                                         'Class' => '15252',
                                         'InLine' => 2,
                                         'Line' => '197',
                                         'MnglName' => '_ZN4zeno7reflect23DefaultBinarySerializer22deserialize_basic_typeIiEEbRKNS0_9UniquePtrINS0_15IReadableStreamEEERNS0_3AnyE',
                                         'Param' => {
                                                      '0' => {
                                                               'name' => 'this',
                                                               'type' => '36064'
                                                             },
                                                      '1' => {
                                                               'name' => 'data_stream',
                                                               'type' => '5647'
                                                             },
                                                      '2' => {
                                                               'name' => 'output',
                                                               'type' => '5585'
                                                             }
                                                    },
                                         'Private' => 1,
                                         'Return' => '3663',
                                         'ShortName' => 'deserialize_basic_type<int>',
                                         'Source' => 'binary_serialization.cpp',
                                         'TParam' => {
                                                       '0' => {
                                                                'key' => 'T',
                                                                'type' => '3688'
                                                              }
                                                     }
                                       },
                            '16193' => {
                                         'Class' => '15252',
                                         'InLine' => 2,
                                         'Line' => '197',
                                         'MnglName' => '_ZN4zeno7reflect23DefaultBinarySerializer22deserialize_basic_typeIlEEbRKNS0_9UniquePtrINS0_15IReadableStreamEEERNS0_3AnyE',
                                         'Param' => {
                                                      '0' => {
                                                               'name' => 'this',
                                                               'type' => '36064'
                                                             },
                                                      '1' => {
                                                               'name' => 'data_stream',
                                                               'type' => '5647'
                                                             },
                                                      '2' => {
                                                               'name' => 'output',
                                                               'type' => '5585'
                                                             }
                                                    },
                                         'Private' => 1,
                                         'Return' => '3663',
                                         'ShortName' => 'deserialize_basic_type<long>',
                                         'Source' => 'binary_serialization.cpp',
                                         'TParam' => {
                                                       '0' => {
                                                                'key' => 'T',
                                                                'type' => '10143'
                                                              }
                                                     }
                                       },
                            '16227' => {
                                         'Class' => '15252',
                                         'InLine' => 2,
                                         'Line' => '197',
                                         'MnglName' => '_ZN4zeno7reflect23DefaultBinarySerializer22deserialize_basic_typeIhEEbRKNS0_9UniquePtrINS0_15IReadableStreamEEERNS0_3AnyE',
                                         'Param' => {
                                                      '0' => {
                                                               'name' => 'this',
                                                               'type' => '36064'
                                                             },
                                                      '1' => {
                                                               'name' => 'data_stream',
                                                               'type' => '5647'
                                                             },
                                                      '2' => {
                                                               'name' => 'output',
                                                               'type' => '5585'
                                                             }
                                                    },
                                         'Private' => 1,
                                         'Return' => '3663',
                                         'ShortName' => 'deserialize_basic_type<unsigned char>',
                                         'Source' => 'binary_serialization.cpp',
                                         'TParam' => {
                                                       '0' => {
                                                                'key' => 'T',
                                                                'type' => '13032'
                                                              }
                                                     }
                                       },
                            '16261' => {
                                         'Class' => '15252',
                                         'InLine' => 2,
                                         'Line' => '197',
                                         'MnglName' => '_ZN4zeno7reflect23DefaultBinarySerializer22deserialize_basic_typeItEEbRKNS0_9UniquePtrINS0_15IReadableStreamEEERNS0_3AnyE',
                                         'Param' => {
                                                      '0' => {
                                                               'name' => 'this',
                                                               'type' => '36064'
                                                             },
                                                      '1' => {
                                                               'name' => 'data_stream',
                                                               'type' => '5647'
                                                             },
                                                      '2' => {
                                                               'name' => 'output',
                                                               'type' => '5585'
                                                             }
                                                    },
                                         'Private' => 1,
                                         'Return' => '3663',
                                         'ShortName' => 'deserialize_basic_type<unsigned short>',
                                         'Source' => 'binary_serialization.cpp',
                                         'TParam' => {
                                                       '0' => {
                                                                'key' => 'T',
                                                                'type' => '13055'
                                                              }
                                                     }
                                       },
                            '16295' => {
                                         'Class' => '15252',
                                         'InLine' => 2,
                                         'Line' => '197',
                                         'MnglName' => '_ZN4zeno7reflect23DefaultBinarySerializer22deserialize_basic_typeIjEEbRKNS0_9UniquePtrINS0_15IReadableStreamEEERNS0_3AnyE',
                                         'Param' => {
                                                      '0' => {
                                                               'name' => 'this',
                                                               'type' => '36064'
                                                             },
                                                      '1' => {
                                                               'name' => 'data_stream',
                                                               'type' => '5647'
                                                             },
                                                      '2' => {
                                                               'name' => 'output',
                                                               'type' => '5585'
                                                             }
                                                    },
                                         'Private' => 1,
                                         'Return' => '3663',
                                         'ShortName' => 'deserialize_basic_type<unsigned int>',
                                         'Source' => 'binary_serialization.cpp',
                                         'TParam' => {
                                                       '0' => {
                                                                'key' => 'T',
                                                                'type' => '5733'
                                                              }
                                                     }
                                       },
                            '16329' => {
                                         'Class' => '15252',
                                         'InLine' => 2,
                                         'Line' => '197',
                                         'MnglName' => '_ZN4zeno7reflect23DefaultBinarySerializer22deserialize_basic_typeImEEbRKNS0_9UniquePtrINS0_15IReadableStreamEEERNS0_3AnyE',
                                         'Param' => {
                                                      '0' => {
                                                               'name' => 'this',
                                                               'type' => '36064'
                                                             },
                                                      '1' => {
                                                               'name' => 'data_stream',
                                                               'type' => '5647'
                                                             },
                                                      '2' => {
                                                               'name' => 'output',
                                                               'type' => '5585'
                                                             }
                                                    },
                                         'Private' => 1,
                                         'Return' => '3663',
                                         'ShortName' => 'deserialize_basic_type<unsigned long>',
                                         'Source' => 'binary_serialization.cpp',
                                         'TParam' => {
                                                       '0' => {
                                                                'key' => 'T',
                                                                'type' => '3720'
                                                              }
                                                     }
                                       },
                            '16363' => {
                                         'Class' => '15252',
                                         'InLine' => 2,
                                         'Line' => '178',
                                         'MnglName' => '_ZN4zeno7reflect23DefaultBinarySerializer20serialize_basic_typeIiEEbRNS0_9UniquePtrINS0_15IWritableStreamEEEPKvm',
                                         'Param' => {
                                                      '0' => {
                                                               'name' => 'this',
                                                               'type' => '36064'
                                                             },
                                                      '1' => {
                                                               'name' => 'out_stream',
                                                               'type' => '5697'
                                                             },
                                                      '2' => {
                                                               'name' => 'input',
                                                               'type' => '6042'
                                                             },
                                                      '3' => {
                                                               'name' => 'type_identifier',
                                                               'type' => '24063'
                                                             }
                                                    },
                                         'Private' => 1,
                                         'Return' => '3663',
                                         'ShortName' => 'serialize_basic_type<int>',
                                         'Source' => 'binary_serialization.cpp',
                                         'TParam' => {
                                                       '0' => {
                                                                'key' => 'T',
                                                                'type' => '3688'
                                                              }
                                                     }
                                       },
                            '16402' => {
                                         'Class' => '15252',
                                         'InLine' => 2,
                                         'Line' => '178',
                                         'MnglName' => '_ZN4zeno7reflect23DefaultBinarySerializer20serialize_basic_typeIfEEbRNS0_9UniquePtrINS0_15IWritableStreamEEEPKvm',
                                         'Param' => {
                                                      '0' => {
                                                               'name' => 'this',
                                                               'type' => '36064'
                                                             },
                                                      '1' => {
                                                               'name' => 'out_stream',
                                                               'type' => '5697'
                                                             },
                                                      '2' => {
                                                               'name' => 'input',
                                                               'type' => '6042'
                                                             },
                                                      '3' => {
                                                               'name' => 'type_identifier',
                                                               'type' => '24063'
                                                             }
                                                    },
                                         'Private' => 1,
                                         'Return' => '3663',
                                         'ShortName' => 'serialize_basic_type<float>',
                                         'Source' => 'binary_serialization.cpp',
                                         'TParam' => {
                                                       '0' => {
                                                                'key' => 'T',
                                                                'type' => '10085'
                                                              }
                                                     }
                                       },
                            '16441' => {
                                         'Class' => '15252',
                                         'InLine' => 2,
                                         'Line' => '178',
                                         'MnglName' => '_ZN4zeno7reflect23DefaultBinarySerializer20serialize_basic_typeIdEEbRNS0_9UniquePtrINS0_15IWritableStreamEEEPKvm',
                                         'Param' => {
                                                      '0' => {
                                                               'name' => 'this',
                                                               'type' => '36064'
                                                             },
                                                      '1' => {
                                                               'name' => 'out_stream',
                                                               'type' => '5697'
                                                             },
                                                      '2' => {
                                                               'name' => 'input',
                                                               'type' => '6042'
                                                             },
                                                      '3' => {
                                                               'name' => 'type_identifier',
                                                               'type' => '24063'
                                                             }
                                                    },
                                         'Private' => 1,
                                         'Return' => '3663',
                                         'ShortName' => 'serialize_basic_type<double>',
                                         'Source' => 'binary_serialization.cpp',
                                         'TParam' => {
                                                       '0' => {
                                                                'key' => 'T',
                                                                'type' => '10049'
                                                              }
                                                     }
                                       },
                            '16480' => {
                                         'Class' => '15252',
                                         'InLine' => 2,
                                         'Line' => '178',
                                         'MnglName' => '_ZN4zeno7reflect23DefaultBinarySerializer20serialize_basic_typeIcEEbRNS0_9UniquePtrINS0_15IWritableStreamEEEPKvm',
                                         'Param' => {
                                                      '0' => {
                                                               'name' => 'this',
                                                               'type' => '36064'
                                                             },
                                                      '1' => {
                                                               'name' => 'out_stream',
                                                               'type' => '5697'
                                                             },
                                                      '2' => {
                                                               'name' => 'input',
                                                               'type' => '6042'
                                                             },
                                                      '3' => {
                                                               'name' => 'type_identifier',
                                                               'type' => '24063'
                                                             }
                                                    },
                                         'Private' => 1,
                                         'Return' => '3663',
                                         'ShortName' => 'serialize_basic_type<char>',
                                         'Source' => 'binary_serialization.cpp',
                                         'TParam' => {
                                                       '0' => {
                                                                'key' => 'T',
                                                                'type' => '70'
                                                              }
                                                     }
                                       },
                            '16519' => {
                                         'Class' => '15252',
                                         'InLine' => 2,
                                         'Line' => '178',
                                         'MnglName' => '_ZN4zeno7reflect23DefaultBinarySerializer20serialize_basic_typeIaEEbRNS0_9UniquePtrINS0_15IWritableStreamEEEPKvm',
                                         'Param' => {
                                                      '0' => {
                                                               'name' => 'this',
                                                               'type' => '36064'
                                                             },
                                                      '1' => {
                                                               'name' => 'out_stream',
                                                               'type' => '5697'
                                                             },
                                                      '2' => {
                                                               'name' => 'input',
                                                               'type' => '6042'
                                                             },
                                                      '3' => {
                                                               'name' => 'type_identifier',
                                                               'type' => '24063'
                                                             }
                                                    },
                                         'Private' => 1,
                                         'Return' => '3663',
                                         'ShortName' => 'serialize_basic_type<signed char>',
                                         'Source' => 'binary_serialization.cpp',
                                         'TParam' => {
                                                       '0' => {
                                                                'key' => 'T',
                                                                'type' => '12815'
                                                              }
                                                     }
                                       },
                            '1654' => {
                                        'Class' => '1639',
                                        'Destructor' => 1,
                                        'Header' => 'any',
                                        'Line' => '127',
                                        'MnglName' => '_ZN4zeno7reflect3AnyD2Ev',
                                        'Param' => {
                                                     '0' => {
                                                              'name' => 'this',
                                                              'type' => '5565'
                                                            }
                                                   },
                                        'ShortName' => '~Any'
                                      },
                            '16558' => {
                                         'Class' => '15252',
                                         'InLine' => 2,
                                         'Line' => '178',
                                         'MnglName' => '_ZN4zeno7reflect23DefaultBinarySerializer20serialize_basic_typeIsEEbRNS0_9UniquePtrINS0_15IWritableStreamEEEPKvm',
                                         'Param' => {
                                                      '0' => {
                                                               'name' => 'this',
                                                               'type' => '36064'
                                                             },
                                                      '1' => {
                                                               'name' => 'out_stream',
                                                               'type' => '5697'
                                                             },
                                                      '2' => {
                                                               'name' => 'input',
                                                               'type' => '6042'
                                                             },
                                                      '3' => {
                                                               'name' => 'type_identifier',
                                                               'type' => '24063'
                                                             }
                                                    },
                                         'Private' => 1,
                                         'Return' => '3663',
                                         'ShortName' => 'serialize_basic_type<short>',
                                         'Source' => 'binary_serialization.cpp',
                                         'TParam' => {
                                                       '0' => {
                                                                'key' => 'T',
                                                                'type' => '12838'
                                                              }
                                                     }
                                       },
                            '16597' => {
                                         'Class' => '15252',
                                         'InLine' => 2,
                                         'Line' => '178',
                                         'MnglName' => '_ZN4zeno7reflect23DefaultBinarySerializer20serialize_basic_typeIlEEbRNS0_9UniquePtrINS0_15IWritableStreamEEEPKvm',
                                         'Param' => {
                                                      '0' => {
                                                               'name' => 'this',
                                                               'type' => '36064'
                                                             },
                                                      '1' => {
                                                               'name' => 'out_stream',
                                                               'type' => '5697'
                                                             },
                                                      '2' => {
                                                               'name' => 'input',
                                                               'type' => '6042'
                                                             },
                                                      '3' => {
                                                               'name' => 'type_identifier',
                                                               'type' => '24063'
                                                             }
                                                    },
                                         'Private' => 1,
                                         'Return' => '3663',
                                         'ShortName' => 'serialize_basic_type<long>',
                                         'Source' => 'binary_serialization.cpp',
                                         'TParam' => {
                                                       '0' => {
                                                                'key' => 'T',
                                                                'type' => '10143'
                                                              }
                                                     }
                                       },
                            '16636' => {
                                         'Class' => '15252',
                                         'InLine' => 2,
                                         'Line' => '178',
                                         'MnglName' => '_ZN4zeno7reflect23DefaultBinarySerializer20serialize_basic_typeIhEEbRNS0_9UniquePtrINS0_15IWritableStreamEEEPKvm',
                                         'Param' => {
                                                      '0' => {
                                                               'name' => 'this',
                                                               'type' => '36064'
                                                             },
                                                      '1' => {
                                                               'name' => 'out_stream',
                                                               'type' => '5697'
                                                             },
                                                      '2' => {
                                                               'name' => 'input',
                                                               'type' => '6042'
                                                             },
                                                      '3' => {
                                                               'name' => 'type_identifier',
                                                               'type' => '24063'
                                                             }
                                                    },
                                         'Private' => 1,
                                         'Return' => '3663',
                                         'ShortName' => 'serialize_basic_type<unsigned char>',
                                         'Source' => 'binary_serialization.cpp',
                                         'TParam' => {
                                                       '0' => {
                                                                'key' => 'T',
                                                                'type' => '13032'
                                                              }
                                                     }
                                       },
                            '1665' => {
                                        'Class' => '1639',
                                        'Constructor' => 1,
                                        'Header' => 'any',
                                        'Line' => '131',
                                        'MnglName' => '_ZN4zeno7reflect3AnyC2Ev',
                                        'Param' => {
                                                     '0' => {
                                                              'name' => 'this',
                                                              'type' => '5565'
                                                            }
                                                   },
                                        'ShortName' => 'Any'
                                      },
                            '16675' => {
                                         'Class' => '15252',
                                         'InLine' => 2,
                                         'Line' => '178',
                                         'MnglName' => '_ZN4zeno7reflect23DefaultBinarySerializer20serialize_basic_typeItEEbRNS0_9UniquePtrINS0_15IWritableStreamEEEPKvm',
                                         'Param' => {
                                                      '0' => {
                                                               'name' => 'this',
                                                               'type' => '36064'
                                                             },
                                                      '1' => {
                                                               'name' => 'out_stream',
                                                               'type' => '5697'
                                                             },
                                                      '2' => {
                                                               'name' => 'input',
                                                               'type' => '6042'
                                                             },
                                                      '3' => {
                                                               'name' => 'type_identifier',
                                                               'type' => '24063'
                                                             }
                                                    },
                                         'Private' => 1,
                                         'Return' => '3663',
                                         'ShortName' => 'serialize_basic_type<unsigned short>',
                                         'Source' => 'binary_serialization.cpp',
                                         'TParam' => {
                                                       '0' => {
                                                                'key' => 'T',
                                                                'type' => '13055'
                                                              }
                                                     }
                                       },
                            '16714' => {
                                         'Class' => '15252',
                                         'InLine' => 2,
                                         'Line' => '178',
                                         'MnglName' => '_ZN4zeno7reflect23DefaultBinarySerializer20serialize_basic_typeIjEEbRNS0_9UniquePtrINS0_15IWritableStreamEEEPKvm',
                                         'Param' => {
                                                      '0' => {
                                                               'name' => 'this',
                                                               'type' => '36064'
                                                             },
                                                      '1' => {
                                                               'name' => 'out_stream',
                                                               'type' => '5697'
                                                             },
                                                      '2' => {
                                                               'name' => 'input',
                                                               'type' => '6042'
                                                             },
                                                      '3' => {
                                                               'name' => 'type_identifier',
                                                               'type' => '24063'
                                                             }
                                                    },
                                         'Private' => 1,
                                         'Return' => '3663',
                                         'ShortName' => 'serialize_basic_type<unsigned int>',
                                         'Source' => 'binary_serialization.cpp',
                                         'TParam' => {
                                                       '0' => {
                                                                'key' => 'T',
                                                                'type' => '5733'
                                                              }
                                                     }
                                       },
                            '16753' => {
                                         'Class' => '15252',
                                         'InLine' => 2,
                                         'Line' => '178',
                                         'MnglName' => '_ZN4zeno7reflect23DefaultBinarySerializer20serialize_basic_typeImEEbRNS0_9UniquePtrINS0_15IWritableStreamEEEPKvm',
                                         'Param' => {
                                                      '0' => {
                                                               'name' => 'this',
                                                               'type' => '36064'
                                                             },
                                                      '1' => {
                                                               'name' => 'out_stream',
                                                               'type' => '5697'
                                                             },
                                                      '2' => {
                                                               'name' => 'input',
                                                               'type' => '6042'
                                                             },
                                                      '3' => {
                                                               'name' => 'type_identifier',
                                                               'type' => '24063'
                                                             }
                                                    },
                                         'Private' => 1,
                                         'Return' => '3663',
                                         'ShortName' => 'serialize_basic_type<unsigned long>',
                                         'Source' => 'binary_serialization.cpp',
                                         'TParam' => {
                                                       '0' => {
                                                                'key' => 'T',
                                                                'type' => '3720'
                                                              }
                                                     }
                                       },
                            '16792' => {
                                         'Class' => '15252',
                                         'InLine' => 2,
                                         'Line' => '206',
                                         'MnglName' => '_ZN4zeno7reflect23DefaultBinarySerializer22deserialize_basic_typeIfEEbRKNS0_9UniquePtrINS0_15IReadableStreamEEEPv',
                                         'Param' => {
                                                      '0' => {
                                                               'name' => 'this',
                                                               'type' => '36064'
                                                             },
                                                      '1' => {
                                                               'name' => 'data_stream',
                                                               'type' => '5647'
                                                             },
                                                      '2' => {
                                                               'name' => 'output',
                                                               'type' => '5549'
                                                             }
                                                    },
                                         'Private' => 1,
                                         'Return' => '3663',
                                         'ShortName' => 'deserialize_basic_type<float>',
                                         'Source' => 'binary_serialization.cpp',
                                         'TParam' => {
                                                       '0' => {
                                                                'key' => 'T',
                                                                'type' => '10085'
                                                              }
                                                     }
                                       },
                            '16826' => {
                                         'Class' => '15252',
                                         'InLine' => 2,
                                         'Line' => '206',
                                         'MnglName' => '_ZN4zeno7reflect23DefaultBinarySerializer22deserialize_basic_typeIdEEbRKNS0_9UniquePtrINS0_15IReadableStreamEEEPv',
                                         'Param' => {
                                                      '0' => {
                                                               'name' => 'this',
                                                               'type' => '36064'
                                                             },
                                                      '1' => {
                                                               'name' => 'data_stream',
                                                               'type' => '5647'
                                                             },
                                                      '2' => {
                                                               'name' => 'output',
                                                               'type' => '5549'
                                                             }
                                                    },
                                         'Private' => 1,
                                         'Return' => '3663',
                                         'ShortName' => 'deserialize_basic_type<double>',
                                         'Source' => 'binary_serialization.cpp',
                                         'TParam' => {
                                                       '0' => {
                                                                'key' => 'T',
                                                                'type' => '10049'
                                                              }
                                                     }
                                       },
                            '16860' => {
                                         'Class' => '15252',
                                         'InLine' => 2,
                                         'Line' => '206',
                                         'MnglName' => '_ZN4zeno7reflect23DefaultBinarySerializer22deserialize_basic_typeIcEEbRKNS0_9UniquePtrINS0_15IReadableStreamEEEPv',
                                         'Param' => {
                                                      '0' => {
                                                               'name' => 'this',
                                                               'type' => '36064'
                                                             },
                                                      '1' => {
                                                               'name' => 'data_stream',
                                                               'type' => '5647'
                                                             },
                                                      '2' => {
                                                               'name' => 'output',
                                                               'type' => '5549'
                                                             }
                                                    },
                                         'Private' => 1,
                                         'Return' => '3663',
                                         'ShortName' => 'deserialize_basic_type<char>',
                                         'Source' => 'binary_serialization.cpp',
                                         'TParam' => {
                                                       '0' => {
                                                                'key' => 'T',
                                                                'type' => '70'
                                                              }
                                                     }
                                       },
                            '16894' => {
                                         'Class' => '15252',
                                         'InLine' => 2,
                                         'Line' => '206',
                                         'MnglName' => '_ZN4zeno7reflect23DefaultBinarySerializer22deserialize_basic_typeIaEEbRKNS0_9UniquePtrINS0_15IReadableStreamEEEPv',
                                         'Param' => {
                                                      '0' => {
                                                               'name' => 'this',
                                                               'type' => '36064'
                                                             },
                                                      '1' => {
                                                               'name' => 'data_stream',
                                                               'type' => '5647'
                                                             },
                                                      '2' => {
                                                               'name' => 'output',
                                                               'type' => '5549'
                                                             }
                                                    },
                                         'Private' => 1,
                                         'Return' => '3663',
                                         'ShortName' => 'deserialize_basic_type<signed char>',
                                         'Source' => 'binary_serialization.cpp',
                                         'TParam' => {
                                                       '0' => {
                                                                'key' => 'T',
                                                                'type' => '12815'
                                                              }
                                                     }
                                       },
                            '1692' => {
                                        'Class' => '1639',
                                        'Constructor' => 1,
                                        'Header' => 'any',
                                        'Line' => '139',
                                        'MnglName' => '_ZN4zeno7reflect3AnyC2EOS1_',
                                        'Param' => {
                                                     '0' => {
                                                              'name' => 'this',
                                                              'type' => '5565'
                                                            },
                                                     '1' => {
                                                              'name' => 'other',
                                                              'type' => '5580'
                                                            }
                                                   },
                                        'ShortName' => 'Any'
                                      },
                            '16928' => {
                                         'Class' => '15252',
                                         'InLine' => 2,
                                         'Line' => '206',
                                         'MnglName' => '_ZN4zeno7reflect23DefaultBinarySerializer22deserialize_basic_typeIsEEbRKNS0_9UniquePtrINS0_15IReadableStreamEEEPv',
                                         'Param' => {
                                                      '0' => {
                                                               'name' => 'this',
                                                               'type' => '36064'
                                                             },
                                                      '1' => {
                                                               'name' => 'data_stream',
                                                               'type' => '5647'
                                                             },
                                                      '2' => {
                                                               'name' => 'output',
                                                               'type' => '5549'
                                                             }
                                                    },
                                         'Private' => 1,
                                         'Return' => '3663',
                                         'ShortName' => 'deserialize_basic_type<short>',
                                         'Source' => 'binary_serialization.cpp',
                                         'TParam' => {
                                                       '0' => {
                                                                'key' => 'T',
                                                                'type' => '12838'
                                                              }
                                                     }
                                       },
                            '16962' => {
                                         'Class' => '15252',
                                         'InLine' => 2,
                                         'Line' => '206',
                                         'MnglName' => '_ZN4zeno7reflect23DefaultBinarySerializer22deserialize_basic_typeIiEEbRKNS0_9UniquePtrINS0_15IReadableStreamEEEPv',
                                         'Param' => {
                                                      '0' => {
                                                               'name' => 'this',
                                                               'type' => '36064'
                                                             },
                                                      '1' => {
                                                               'name' => 'data_stream',
                                                               'type' => '5647'
                                                             },
                                                      '2' => {
                                                               'name' => 'output',
                                                               'type' => '5549'
                                                             }
                                                    },
                                         'Private' => 1,
                                         'Return' => '3663',
                                         'ShortName' => 'deserialize_basic_type<int>',
                                         'Source' => 'binary_serialization.cpp',
                                         'TParam' => {
                                                       '0' => {
                                                                'key' => 'T',
                                                                'type' => '3688'
                                                              }
                                                     }
                                       },
                            '16996' => {
                                         'Class' => '15252',
                                         'InLine' => 2,
                                         'Line' => '206',
                                         'MnglName' => '_ZN4zeno7reflect23DefaultBinarySerializer22deserialize_basic_typeIlEEbRKNS0_9UniquePtrINS0_15IReadableStreamEEEPv',
                                         'Param' => {
                                                      '0' => {
                                                               'name' => 'this',
                                                               'type' => '36064'
                                                             },
                                                      '1' => {
                                                               'name' => 'data_stream',
                                                               'type' => '5647'
                                                             },
                                                      '2' => {
                                                               'name' => 'output',
                                                               'type' => '5549'
                                                             }
                                                    },
                                         'Private' => 1,
                                         'Return' => '3663',
                                         'ShortName' => 'deserialize_basic_type<long>',
                                         'Source' => 'binary_serialization.cpp',
                                         'TParam' => {
                                                       '0' => {
                                                                'key' => 'T',
                                                                'type' => '10143'
                                                              }
                                                     }
                                       },
                            '17030' => {
                                         'Class' => '15252',
                                         'InLine' => 2,
                                         'Line' => '206',
                                         'MnglName' => '_ZN4zeno7reflect23DefaultBinarySerializer22deserialize_basic_typeIhEEbRKNS0_9UniquePtrINS0_15IReadableStreamEEEPv',
                                         'Param' => {
                                                      '0' => {
                                                               'name' => 'this',
                                                               'type' => '36064'
                                                             },
                                                      '1' => {
                                                               'name' => 'data_stream',
                                                               'type' => '5647'
                                                             },
                                                      '2' => {
                                                               'name' => 'output',
                                                               'type' => '5549'
                                                             }
                                                    },
                                         'Private' => 1,
                                         'Return' => '3663',
                                         'ShortName' => 'deserialize_basic_type<unsigned char>',
                                         'Source' => 'binary_serialization.cpp',
                                         'TParam' => {
                                                       '0' => {
                                                                'key' => 'T',
                                                                'type' => '13032'
                                                              }
                                                     }
                                       },
                            '17064' => {
                                         'Class' => '15252',
                                         'InLine' => 2,
                                         'Line' => '206',
                                         'MnglName' => '_ZN4zeno7reflect23DefaultBinarySerializer22deserialize_basic_typeItEEbRKNS0_9UniquePtrINS0_15IReadableStreamEEEPv',
                                         'Param' => {
                                                      '0' => {
                                                               'name' => 'this',
                                                               'type' => '36064'
                                                             },
                                                      '1' => {
                                                               'name' => 'data_stream',
                                                               'type' => '5647'
                                                             },
                                                      '2' => {
                                                               'name' => 'output',
                                                               'type' => '5549'
                                                             }
                                                    },
                                         'Private' => 1,
                                         'Return' => '3663',
                                         'ShortName' => 'deserialize_basic_type<unsigned short>',
                                         'Source' => 'binary_serialization.cpp',
                                         'TParam' => {
                                                       '0' => {
                                                                'key' => 'T',
                                                                'type' => '13055'
                                                              }
                                                     }
                                       },
                            '17098' => {
                                         'Class' => '15252',
                                         'InLine' => 2,
                                         'Line' => '206',
                                         'MnglName' => '_ZN4zeno7reflect23DefaultBinarySerializer22deserialize_basic_typeIjEEbRKNS0_9UniquePtrINS0_15IReadableStreamEEEPv',
                                         'Param' => {
                                                      '0' => {
                                                               'name' => 'this',
                                                               'type' => '36064'
                                                             },
                                                      '1' => {
                                                               'name' => 'data_stream',
                                                               'type' => '5647'
                                                             },
                                                      '2' => {
                                                               'name' => 'output',
                                                               'type' => '5549'
                                                             }
                                                    },
                                         'Private' => 1,
                                         'Return' => '3663',
                                         'ShortName' => 'deserialize_basic_type<unsigned int>',
                                         'Source' => 'binary_serialization.cpp',
                                         'TParam' => {
                                                       '0' => {
                                                                'key' => 'T',
                                                                'type' => '5733'
                                                              }
                                                     }
                                       },
                            '17132' => {
                                         'Class' => '15252',
                                         'InLine' => 2,
                                         'Line' => '206',
                                         'MnglName' => '_ZN4zeno7reflect23DefaultBinarySerializer22deserialize_basic_typeImEEbRKNS0_9UniquePtrINS0_15IReadableStreamEEEPv',
                                         'Param' => {
                                                      '0' => {
                                                               'name' => 'this',
                                                               'type' => '36064'
                                                             },
                                                      '1' => {
                                                               'name' => 'data_stream',
                                                               'type' => '5647'
                                                             },
                                                      '2' => {
                                                               'name' => 'output',
                                                               'type' => '5549'
                                                             }
                                                    },
                                         'Private' => 1,
                                         'Return' => '3663',
                                         'ShortName' => 'deserialize_basic_type<unsigned long>',
                                         'Source' => 'binary_serialization.cpp',
                                         'TParam' => {
                                                       '0' => {
                                                                'key' => 'T',
                                                                'type' => '3720'
                                                              }
                                                     }
                                       },
                            '17186' => {
                                         'Class' => '2157',
                                         'Destructor' => 1,
                                         'Header' => 'serialization.hpp',
                                         'Line' => '69',
                                         'MnglName' => '_ZN4zeno7reflect11ISerializerD0Ev',
                                         'Param' => {
                                                      '0' => {
                                                               'name' => 'this',
                                                               'type' => '5595'
                                                             }
                                                    },
                                         'ShortName' => '~ISerializer',
                                         'Virt' => 1,
                                         'VirtPos' => '0'
                                       },
                            '17206' => {
                                         'Class' => '2157',
                                         'Header' => 'serialization.hpp',
                                         'Line' => '71',
                                         'MnglName' => '_ZN4zeno7reflect11ISerializer9serializeERNS0_9UniquePtrINS0_15IWritableStreamEEERKNS0_3AnyE',
                                         'Param' => {
                                                      '0' => {
                                                               'name' => 'this',
                                                               'type' => '5595'
                                                             },
                                                      '1' => {
                                                               'name' => 'p1',
                                                               'type' => '5697'
                                                             },
                                                      '2' => {
                                                               'name' => 'p2',
                                                               'type' => '5570'
                                                             }
                                                    },
                                         'PureVirt' => 1,
                                         'Return' => '3663',
                                         'ShortName' => 'serialize',
                                         'VirtPos' => '2'
                                       },
                            '17242' => {
                                         'Class' => '2157',
                                         'Header' => 'serialization.hpp',
                                         'Line' => '72',
                                         'MnglName' => '_ZN4zeno7reflect11ISerializer11deserializeERKNS0_9UniquePtrINS0_15IReadableStreamEEERNS0_3AnyE',
                                         'Param' => {
                                                      '0' => {
                                                               'name' => 'this',
                                                               'type' => '5595'
                                                             },
                                                      '1' => {
                                                               'name' => 'p1',
                                                               'type' => '5647'
                                                             },
                                                      '2' => {
                                                               'name' => 'p2',
                                                               'type' => '5585'
                                                             }
                                                    },
                                         'PureVirt' => 1,
                                         'Return' => '3663',
                                         'ShortName' => 'deserialize',
                                         'VirtPos' => '3'
                                       },
                            '17278' => {
                                         'Class' => '2157',
                                         'Header' => 'serialization.hpp',
                                         'Line' => '73',
                                         'MnglName' => '_ZN4zeno7reflect11ISerializer9serializeERNS0_9UniquePtrINS0_15IWritableStreamEEENS0_10TypeHandleEPKv',
                                         'Param' => {
                                                      '0' => {
                                                               'name' => 'this',
                                                               'type' => '5595'
                                                             },
                                                      '1' => {
                                                               'name' => 'p1',
                                                               'type' => '5697'
                                                             },
                                                      '2' => {
                                                               'name' => 'p2',
                                                               'type' => '36054'
                                                             },
                                                      '3' => {
                                                               'name' => 'p3',
                                                               'type' => '6042'
                                                             }
                                                    },
                                         'PureVirt' => 1,
                                         'Return' => '3663',
                                         'ShortName' => 'serialize',
                                         'VirtPos' => '4'
                                       },
                            '1729' => {
                                        'Class' => '1639',
                                        'Header' => 'any',
                                        'InLine' => 2,
                                        'Line' => '171',
                                        'MnglName' => '_ZN4zeno7reflect3AnyaSEOS1_',
                                        'Param' => {
                                                     '0' => {
                                                              'name' => 'this',
                                                              'type' => '5565'
                                                            },
                                                     '1' => {
                                                              'name' => 'other',
                                                              'type' => '5580'
                                                            }
                                                   },
                                        'Return' => '5585',
                                        'ShortName' => 'operator='
                                      },
                            '17319' => {
                                         'Class' => '2157',
                                         'Header' => 'serialization.hpp',
                                         'Line' => '74',
                                         'MnglName' => '_ZN4zeno7reflect11ISerializer11deserializeERNS0_9UniquePtrINS0_15IReadableStreamEEENS0_10TypeHandleEPv',
                                         'Param' => {
                                                      '0' => {
                                                               'name' => 'this',
                                                               'type' => '5595'
                                                             },
                                                      '1' => {
                                                               'name' => 'p1',
                                                               'type' => '5657'
                                                             },
                                                      '2' => {
                                                               'name' => 'p2',
                                                               'type' => '36054'
                                                             },
                                                      '3' => {
                                                               'name' => 'p3',
                                                               'type' => '5549'
                                                             }
                                                    },
                                         'PureVirt' => 1,
                                         'Return' => '3663',
                                         'ShortName' => 'deserialize',
                                         'VirtPos' => '5'
                                       },
                            '17360' => {
                                         'Artificial' => 1,
                                         'Class' => '2157',
                                         'Constructor' => 1,
                                         'Header' => 'serialization.hpp',
                                         'Line' => '67',
                                         'MnglName' => '_ZN4zeno7reflect11ISerializerC2Ev',
                                         'Param' => {
                                                      '0' => {
                                                               'name' => 'this',
                                                               'type' => '5595'
                                                             }
                                                    },
                                         'ShortName' => 'ISerializer'
                                       },
                            '1750' => {
                                        'Class' => '1639',
                                        'Const' => 1,
                                        'Header' => 'any',
                                        'InLine' => 2,
                                        'Line' => '182',
                                        'MnglName' => '_ZNK4zeno7reflect3AnycvbEv',
                                        'Param' => {
                                                     '0' => {
                                                              'name' => 'this',
                                                              'type' => '5590'
                                                            }
                                                   },
                                        'Return' => '3663',
                                        'ShortName' => 'operator bool'
                                      },
                            '17687' => {
                                         'Class' => '1639',
                                         'Constructor' => 1,
                                         'Header' => 'any',
                                         'Line' => '144',
                                         'MnglName' => '_ZN4zeno7reflect3AnyC2IRfEEOT_',
                                         'Param' => {
                                                      '0' => {
                                                               'name' => 'this',
                                                               'type' => '5565'
                                                             },
                                                      '1' => {
                                                               'name' => 'value',
                                                               'type' => '39771'
                                                             }
                                                    },
                                         'ShortName' => 'Any<float&>',
                                         'TParam' => {
                                                       '0' => {
                                                                'key' => 'T',
                                                                'type' => '39771'
                                                              }
                                                     }
                                       },
                            '17711' => {
                                         'Class' => '1639',
                                         'Header' => 'any',
                                         'InLine' => 2,
                                         'Line' => '187',
                                         'MnglName' => '_ZN4zeno7reflect3Any7emplaceIfJRfEEEvDpOT0_',
                                         'Param' => {
                                                      '0' => {
                                                               'name' => 'this',
                                                               'type' => '5565'
                                                             },
                                                      '1' => {
                                                               'name' => 'args',
                                                               'type' => '39771'
                                                             }
                                                    },
                                         'Return' => '1',
                                         'ShortName' => 'emplace<float, float&>',
                                         'TParam' => {
                                                       '0' => {
                                                                'key' => 'T',
                                                                'type' => '10085'
                                                              },
                                                       '1' => {
                                                                'key' => undef,
                                                                'type' => '39771'
                                                              }
                                                     }
                                       },
                            '17746' => {
                                         'Class' => '1639',
                                         'Constructor' => 1,
                                         'Header' => 'any',
                                         'Line' => '144',
                                         'MnglName' => '_ZN4zeno7reflect3AnyC2IRdEEOT_',
                                         'Param' => {
                                                      '0' => {
                                                               'name' => 'this',
                                                               'type' => '5565'
                                                             },
                                                      '1' => {
                                                               'name' => 'value',
                                                               'type' => '40618'
                                                             }
                                                    },
                                         'ShortName' => 'Any<double&>',
                                         'TParam' => {
                                                       '0' => {
                                                                'key' => 'T',
                                                                'type' => '40618'
                                                              }
                                                     }
                                       },
                            '17770' => {
                                         'Class' => '1639',
                                         'Header' => 'any',
                                         'InLine' => 2,
                                         'Line' => '187',
                                         'MnglName' => '_ZN4zeno7reflect3Any7emplaceIdJRdEEEvDpOT0_',
                                         'Param' => {
                                                      '0' => {
                                                               'name' => 'this',
                                                               'type' => '5565'
                                                             },
                                                      '1' => {
                                                               'name' => 'args',
                                                               'type' => '40618'
                                                             }
                                                    },
                                         'Return' => '1',
                                         'ShortName' => 'emplace<double, double&>',
                                         'TParam' => {
                                                       '0' => {
                                                                'key' => 'T',
                                                                'type' => '10049'
                                                              },
                                                       '1' => {
                                                                'key' => undef,
                                                                'type' => '40618'
                                                              }
                                                     }
                                       },
                            '17805' => {
                                         'Class' => '1639',
                                         'Constructor' => 1,
                                         'Header' => 'any',
                                         'Line' => '144',
                                         'MnglName' => '_ZN4zeno7reflect3AnyC2IRcEEOT_',
                                         'Param' => {
                                                      '0' => {
                                                               'name' => 'this',
                                                               'type' => '5565'
                                                             },
                                                      '1' => {
                                                               'name' => 'value',
                                                               'type' => '41171'
                                                             }
                                                    },
                                         'ShortName' => 'Any<char&>',
                                         'TParam' => {
                                                       '0' => {
                                                                'key' => 'T',
                                                                'type' => '41171'
                                                              }
                                                     }
                                       },
                            '17829' => {
                                         'Class' => '1639',
                                         'Header' => 'any',
                                         'InLine' => 2,
                                         'Line' => '187',
                                         'MnglName' => '_ZN4zeno7reflect3Any7emplaceIcJRcEEEvDpOT0_',
                                         'Param' => {
                                                      '0' => {
                                                               'name' => 'this',
                                                               'type' => '5565'
                                                             },
                                                      '1' => {
                                                               'name' => 'args',
                                                               'type' => '41171'
                                                             }
                                                    },
                                         'Return' => '1',
                                         'ShortName' => 'emplace<char, char&>',
                                         'TParam' => {
                                                       '0' => {
                                                                'key' => 'T',
                                                                'type' => '70'
                                                              },
                                                       '1' => {
                                                                'key' => undef,
                                                                'type' => '41171'
                                                              }
                                                     }
                                       },
                            '17864' => {
                                         'Class' => '1639',
                                         'Constructor' => 1,
                                         'Header' => 'any',
                                         'Line' => '144',
                                         'MnglName' => '_ZN4zeno7reflect3AnyC2IRNSt7__cxx1112basic_stringIcSt11char_traitsIcESaIcEEEEEOT_',
                                         'Param' => {
                                                      '0' => {
                                                               'name' => 'this',
                                                               'type' => '5565'
                                                             },
                                                      '1' => {
                                                               'name' => 'value',
                                                               'type' => '35946'
                                                             }
                                                    },
                                         'ShortName' => 'Any<std::__cxx11::basic_string<char>&>',
                                         'TParam' => {
                                                       '0' => {
                                                                'key' => 'T',
                                                                'type' => '35946'
                                                              }
                                                     }
                                       },
                            '17888' => {
                                         'Class' => '1639',
                                         'Header' => 'any',
                                         'InLine' => 2,
                                         'Line' => '187',
                                         'MnglName' => '_ZN4zeno7reflect3Any7emplaceINSt7__cxx1112basic_stringIcSt11char_traitsIcESaIcEEEJRS8_EEEvDpOT0_',
                                         'Param' => {
                                                      '0' => {
                                                               'name' => 'this',
                                                               'type' => '5565'
                                                             },
                                                      '1' => {
                                                               'name' => 'args',
                                                               'type' => '35946'
                                                             }
                                                    },
                                         'Return' => '1',
                                         'ShortName' => 'emplace<std::__cxx11::basic_string<char>, std::__cxx11::basic_string<char>&>',
                                         'TParam' => {
                                                       '0' => {
                                                                'key' => 'T',
                                                                'type' => '25542'
                                                              },
                                                       '1' => {
                                                                'key' => undef,
                                                                'type' => '35946'
                                                              }
                                                     }
                                       },
                            '17923' => {
                                         'Class' => '1639',
                                         'Constructor' => 1,
                                         'Header' => 'any',
                                         'Line' => '144',
                                         'MnglName' => '_ZN4zeno7reflect3AnyC2IRaEEOT_',
                                         'Param' => {
                                                      '0' => {
                                                               'name' => 'this',
                                                               'type' => '5565'
                                                             },
                                                      '1' => {
                                                               'name' => 'value',
                                                               'type' => '44247'
                                                             }
                                                    },
                                         'ShortName' => 'Any<signed char&>',
                                         'TParam' => {
                                                       '0' => {
                                                                'key' => 'T',
                                                                'type' => '44247'
                                                              }
                                                     }
                                       },
                            '17947' => {
                                         'Class' => '1639',
                                         'Header' => 'any',
                                         'InLine' => 2,
                                         'Line' => '187',
                                         'MnglName' => '_ZN4zeno7reflect3Any7emplaceIaJRaEEEvDpOT0_',
                                         'Param' => {
                                                      '0' => {
                                                               'name' => 'this',
                                                               'type' => '5565'
                                                             },
                                                      '1' => {
                                                               'name' => 'args',
                                                               'type' => '44247'
                                                             }
                                                    },
                                         'Return' => '1',
                                         'ShortName' => 'emplace<signed char, signed char&>',
                                         'TParam' => {
                                                       '0' => {
                                                                'key' => 'T',
                                                                'type' => '12815'
                                                              },
                                                       '1' => {
                                                                'key' => undef,
                                                                'type' => '44247'
                                                              }
                                                     }
                                       },
                            '17982' => {
                                         'Class' => '1639',
                                         'Constructor' => 1,
                                         'Header' => 'any',
                                         'Line' => '144',
                                         'MnglName' => '_ZN4zeno7reflect3AnyC2IRsEEOT_',
                                         'Param' => {
                                                      '0' => {
                                                               'name' => 'this',
                                                               'type' => '5565'
                                                             },
                                                      '1' => {
                                                               'name' => 'value',
                                                               'type' => '44800'
                                                             }
                                                    },
                                         'ShortName' => 'Any<short&>',
                                         'TParam' => {
                                                       '0' => {
                                                                'key' => 'T',
                                                                'type' => '44800'
                                                              }
                                                     }
                                       },
                            '1800' => {
                                        'Class' => '1639',
                                        'Header' => 'any',
                                        'InLine' => 2,
                                        'Line' => '215',
                                        'MnglName' => '_ZN4zeno7reflect3Any4swapERS1_',
                                        'Param' => {
                                                     '0' => {
                                                              'name' => 'this',
                                                              'type' => '5565'
                                                            },
                                                     '1' => {
                                                              'name' => 'other',
                                                              'type' => '5585'
                                                            }
                                                   },
                                        'Return' => '1',
                                        'ShortName' => 'swap'
                                      },
                            '18006' => {
                                         'Class' => '1639',
                                         'Header' => 'any',
                                         'InLine' => 2,
                                         'Line' => '187',
                                         'MnglName' => '_ZN4zeno7reflect3Any7emplaceIsJRsEEEvDpOT0_',
                                         'Param' => {
                                                      '0' => {
                                                               'name' => 'this',
                                                               'type' => '5565'
                                                             },
                                                      '1' => {
                                                               'name' => 'args',
                                                               'type' => '44800'
                                                             }
                                                    },
                                         'Return' => '1',
                                         'ShortName' => 'emplace<short, short&>',
                                         'TParam' => {
                                                       '0' => {
                                                                'key' => 'T',
                                                                'type' => '12838'
                                                              },
                                                       '1' => {
                                                                'key' => undef,
                                                                'type' => '44800'
                                                              }
                                                     }
                                       },
                            '18041' => {
                                         'Class' => '1639',
                                         'Constructor' => 1,
                                         'Header' => 'any',
                                         'Line' => '144',
                                         'MnglName' => '_ZN4zeno7reflect3AnyC2IRiEEOT_',
                                         'Param' => {
                                                      '0' => {
                                                               'name' => 'this',
                                                               'type' => '5565'
                                                             },
                                                      '1' => {
                                                               'name' => 'value',
                                                               'type' => '45353'
                                                             }
                                                    },
                                         'ShortName' => 'Any<int&>',
                                         'TParam' => {
                                                       '0' => {
                                                                'key' => 'T',
                                                                'type' => '45353'
                                                              }
                                                     }
                                       },
                            '18065' => {
                                         'Class' => '1639',
                                         'Header' => 'any',
                                         'InLine' => 2,
                                         'Line' => '187',
                                         'MnglName' => '_ZN4zeno7reflect3Any7emplaceIiJRiEEEvDpOT0_',
                                         'Param' => {
                                                      '0' => {
                                                               'name' => 'this',
                                                               'type' => '5565'
                                                             },
                                                      '1' => {
                                                               'name' => 'args',
                                                               'type' => '45353'
                                                             }
                                                    },
                                         'Return' => '1',
                                         'ShortName' => 'emplace<int, int&>',
                                         'TParam' => {
                                                       '0' => {
                                                                'key' => 'T',
                                                                'type' => '3688'
                                                              },
                                                       '1' => {
                                                                'key' => undef,
                                                                'type' => '45353'
                                                              }
                                                     }
                                       },
                            '18100' => {
                                         'Class' => '1639',
                                         'Constructor' => 1,
                                         'Header' => 'any',
                                         'Line' => '144',
                                         'MnglName' => '_ZN4zeno7reflect3AnyC2IRlEEOT_',
                                         'Param' => {
                                                      '0' => {
                                                               'name' => 'this',
                                                               'type' => '5565'
                                                             },
                                                      '1' => {
                                                               'name' => 'value',
                                                               'type' => '45906'
                                                             }
                                                    },
                                         'ShortName' => 'Any<long&>',
                                         'TParam' => {
                                                       '0' => {
                                                                'key' => 'T',
                                                                'type' => '45906'
                                                              }
                                                     }
                                       },
                            '18124' => {
                                         'Class' => '1639',
                                         'Header' => 'any',
                                         'InLine' => 2,
                                         'Line' => '187',
                                         'MnglName' => '_ZN4zeno7reflect3Any7emplaceIlJRlEEEvDpOT0_',
                                         'Param' => {
                                                      '0' => {
                                                               'name' => 'this',
                                                               'type' => '5565'
                                                             },
                                                      '1' => {
                                                               'name' => 'args',
                                                               'type' => '45906'
                                                             }
                                                    },
                                         'Return' => '1',
                                         'ShortName' => 'emplace<long, long&>',
                                         'TParam' => {
                                                       '0' => {
                                                                'key' => 'T',
                                                                'type' => '10143'
                                                              },
                                                       '1' => {
                                                                'key' => undef,
                                                                'type' => '45906'
                                                              }
                                                     }
                                       },
                            '18159' => {
                                         'Class' => '1639',
                                         'Constructor' => 1,
                                         'Header' => 'any',
                                         'Line' => '144',
                                         'MnglName' => '_ZN4zeno7reflect3AnyC2IRhEEOT_',
                                         'Param' => {
                                                      '0' => {
                                                               'name' => 'this',
                                                               'type' => '5565'
                                                             },
                                                      '1' => {
                                                               'name' => 'value',
                                                               'type' => '46459'
                                                             }
                                                    },
                                         'ShortName' => 'Any<unsigned char&>',
                                         'TParam' => {
                                                       '0' => {
                                                                'key' => 'T',
                                                                'type' => '46459'
                                                              }
                                                     }
                                       },
                            '1817' => {
                                        'Class' => '1639',
                                        'Const' => 1,
                                        'Header' => 'any',
                                        'InLine' => 2,
                                        'Line' => '221',
                                        'MnglName' => '_ZNK4zeno7reflect3Any9has_valueEv',
                                        'Param' => {
                                                     '0' => {
                                                              'name' => 'this',
                                                              'type' => '5590'
                                                            }
                                                   },
                                        'Return' => '3663',
                                        'ShortName' => 'has_value'
                                      },
                            '18183' => {
                                         'Class' => '1639',
                                         'Header' => 'any',
                                         'InLine' => 2,
                                         'Line' => '187',
                                         'MnglName' => '_ZN4zeno7reflect3Any7emplaceIhJRhEEEvDpOT0_',
                                         'Param' => {
                                                      '0' => {
                                                               'name' => 'this',
                                                               'type' => '5565'
                                                             },
                                                      '1' => {
                                                               'name' => 'args',
                                                               'type' => '46459'
                                                             }
                                                    },
                                         'Return' => '1',
                                         'ShortName' => 'emplace<unsigned char, unsigned char&>',
                                         'TParam' => {
                                                       '0' => {
                                                                'key' => 'T',
                                                                'type' => '13032'
                                                              },
                                                       '1' => {
                                                                'key' => undef,
                                                                'type' => '46459'
                                                              }
                                                     }
                                       },
                            '18218' => {
                                         'Class' => '1639',
                                         'Constructor' => 1,
                                         'Header' => 'any',
                                         'Line' => '144',
                                         'MnglName' => '_ZN4zeno7reflect3AnyC2IRtEEOT_',
                                         'Param' => {
                                                      '0' => {
                                                               'name' => 'this',
                                                               'type' => '5565'
                                                             },
                                                      '1' => {
                                                               'name' => 'value',
                                                               'type' => '47012'
                                                             }
                                                    },
                                         'ShortName' => 'Any<unsigned short&>',
                                         'TParam' => {
                                                       '0' => {
                                                                'key' => 'T',
                                                                'type' => '47012'
                                                              }
                                                     }
                                       },
                            '18242' => {
                                         'Class' => '1639',
                                         'Header' => 'any',
                                         'InLine' => 2,
                                         'Line' => '187',
                                         'MnglName' => '_ZN4zeno7reflect3Any7emplaceItJRtEEEvDpOT0_',
                                         'Param' => {
                                                      '0' => {
                                                               'name' => 'this',
                                                               'type' => '5565'
                                                             },
                                                      '1' => {
                                                               'name' => 'args',
                                                               'type' => '47012'
                                                             }
                                                    },
                                         'Return' => '1',
                                         'ShortName' => 'emplace<unsigned short, unsigned short&>',
                                         'TParam' => {
                                                       '0' => {
                                                                'key' => 'T',
                                                                'type' => '13055'
                                                              },
                                                       '1' => {
                                                                'key' => undef,
                                                                'type' => '47012'
                                                              }
                                                     }
                                       },
                            '18277' => {
                                         'Class' => '1639',
                                         'Constructor' => 1,
                                         'Header' => 'any',
                                         'Line' => '144',
                                         'MnglName' => '_ZN4zeno7reflect3AnyC2IRjEEOT_',
                                         'Param' => {
                                                      '0' => {
                                                               'name' => 'this',
                                                               'type' => '5565'
                                                             },
                                                      '1' => {
                                                               'name' => 'value',
                                                               'type' => '47565'
                                                             }
                                                    },
                                         'ShortName' => 'Any<unsigned int&>',
                                         'TParam' => {
                                                       '0' => {
                                                                'key' => 'T',
                                                                'type' => '47565'
                                                              }
                                                     }
                                       },
                            '18301' => {
                                         'Class' => '1639',
                                         'Header' => 'any',
                                         'InLine' => 2,
                                         'Line' => '187',
                                         'MnglName' => '_ZN4zeno7reflect3Any7emplaceIjJRjEEEvDpOT0_',
                                         'Param' => {
                                                      '0' => {
                                                               'name' => 'this',
                                                               'type' => '5565'
                                                             },
                                                      '1' => {
                                                               'name' => 'args',
                                                               'type' => '47565'
                                                             }
                                                    },
                                         'Return' => '1',
                                         'ShortName' => 'emplace<unsigned int, unsigned int&>',
                                         'TParam' => {
                                                       '0' => {
                                                                'key' => 'T',
                                                                'type' => '5733'
                                                              },
                                                       '1' => {
                                                                'key' => undef,
                                                                'type' => '47565'
                                                              }
                                                     }
                                       },
                            '1833' => {
                                        'Class' => '1639',
                                        'Header' => 'any',
                                        'InLine' => 2,
                                        'Line' => '225',
                                        'MnglName' => '_ZN4zeno7reflect3Any5resetEv',
                                        'Param' => {
                                                     '0' => {
                                                              'name' => 'this',
                                                              'type' => '5565'
                                                            }
                                                   },
                                        'Return' => '1',
                                        'ShortName' => 'reset'
                                      },
                            '18336' => {
                                         'Class' => '1639',
                                         'Constructor' => 1,
                                         'Header' => 'any',
                                         'Line' => '144',
                                         'MnglName' => '_ZN4zeno7reflect3AnyC2IRmEEOT_',
                                         'Param' => {
                                                      '0' => {
                                                               'name' => 'this',
                                                               'type' => '5565'
                                                             },
                                                      '1' => {
                                                               'name' => 'value',
                                                               'type' => '48118'
                                                             }
                                                    },
                                         'ShortName' => 'Any<unsigned long&>',
                                         'TParam' => {
                                                       '0' => {
                                                                'key' => 'T',
                                                                'type' => '48118'
                                                              }
                                                     }
                                       },
                            '18360' => {
                                         'Class' => '1639',
                                         'Header' => 'any',
                                         'InLine' => 2,
                                         'Line' => '187',
                                         'MnglName' => '_ZN4zeno7reflect3Any7emplaceImJRmEEEvDpOT0_',
                                         'Param' => {
                                                      '0' => {
                                                               'name' => 'this',
                                                               'type' => '5565'
                                                             },
                                                      '1' => {
                                                               'name' => 'args',
                                                               'type' => '48118'
                                                             }
                                                    },
                                         'Return' => '1',
                                         'ShortName' => 'emplace<unsigned long, unsigned long&>',
                                         'TParam' => {
                                                       '0' => {
                                                                'key' => 'T',
                                                                'type' => '3720'
                                                              },
                                                       '1' => {
                                                                'key' => undef,
                                                                'type' => '48118'
                                                              }
                                                     }
                                       },
                            '1845' => {
                                        'Class' => '1639',
                                        'Const' => 1,
                                        'Header' => 'any',
                                        'InLine' => 2,
                                        'Line' => '232',
                                        'MnglName' => '_ZNK4zeno7reflect3Any4typeEv',
                                        'Param' => {
                                                     '0' => {
                                                              'name' => 'this',
                                                              'type' => '5590'
                                                            }
                                                   },
                                        'Return' => '3697',
                                        'ShortName' => 'type'
                                      },
                            '1861' => {
                                        'Class' => '1639',
                                        'Header' => 'any',
                                        'InLine' => 2,
                                        'Line' => '237',
                                        'MnglName' => '_ZN4zeno7reflect3Any9make_nullEv',
                                        'Return' => '1639',
                                        'ShortName' => 'make_null',
                                        'Static' => 1
                                      },
                            '18664' => {
                                         'Class' => '18615',
                                         'Const' => 1,
                                         'Header' => 'any',
                                         'InLine' => 2,
                                         'Line' => '426',
                                         'MnglName' => '_ZNK4zeno7reflect3any14ValueContainerIiE4typeEv',
                                         'Param' => {
                                                      '0' => {
                                                               'name' => 'this',
                                                               'type' => '36167'
                                                             }
                                                    },
                                         'Return' => '3697',
                                         'ShortName' => 'type',
                                         'Virt' => 1,
                                         'VirtPos' => '2'
                                       },
                            '18691' => {
                                         'Class' => '18615',
                                         'Const' => 1,
                                         'Header' => 'any',
                                         'InLine' => 2,
                                         'Line' => '430',
                                         'MnglName' => '_ZNK4zeno7reflect3any14ValueContainerIiE7is_typeERKNS0_12RTTITypeInfoE',
                                         'Param' => {
                                                      '0' => {
                                                               'name' => 'this',
                                                               'type' => '36167'
                                                             },
                                                      '1' => {
                                                               'name' => 'other_type',
                                                               'type' => '3697'
                                                             }
                                                    },
                                         'Return' => '3663',
                                         'ShortName' => 'is_type',
                                         'Virt' => 1,
                                         'VirtPos' => '3'
                                       },
                            '18723' => {
                                         'Class' => '18615',
                                         'Const' => 1,
                                         'Header' => 'any',
                                         'InLine' => 2,
                                         'Line' => '438',
                                         'MnglName' => '_ZNK4zeno7reflect3any14ValueContainerIiE17is_convertible_toERKNS0_12RTTITypeInfoE',
                                         'Param' => {
                                                      '0' => {
                                                               'name' => 'this',
                                                               'type' => '36167'
                                                             },
                                                      '1' => {
                                                               'name' => 'other_type',
                                                               'type' => '3697'
                                                             }
                                                    },
                                         'Return' => '1611',
                                         'ShortName' => 'is_convertible_to',
                                         'Virt' => 1,
                                         'VirtPos' => '5'
                                       },
                            '18755' => {
                                         'Class' => '18615',
                                         'Const' => 1,
                                         'Header' => 'any',
                                         'InLine' => 2,
                                         'Line' => '470',
                                         'MnglName' => '_ZNK4zeno7reflect3any14ValueContainerIiE5cloneEv',
                                         'Param' => {
                                                      '0' => {
                                                               'name' => 'this',
                                                               'type' => '36167'
                                                             }
                                                    },
                                         'Return' => '3692',
                                         'ShortName' => 'clone',
                                         'Virt' => 1,
                                         'VirtPos' => '4'
                                       },
                            '18782' => {
                                         'Class' => '18615',
                                         'Const' => 1,
                                         'Header' => 'any',
                                         'InLine' => 2,
                                         'Line' => '478',
                                         'MnglName' => '_ZNK4zeno7reflect3any14ValueContainerIiE19get_data_ptr_unsafeEv',
                                         'Param' => {
                                                      '0' => {
                                                               'name' => 'this',
                                                               'type' => '36167'
                                                             }
                                                    },
                                         'Return' => '5549',
                                         'ShortName' => 'get_data_ptr_unsafe',
                                         'Virt' => 1,
                                         'VirtPos' => '6'
                                       },
                            '18809' => {
                                         'Class' => '18615',
                                         'Header' => 'any',
                                         'InLine' => 2,
                                         'Line' => '482',
                                         'MnglName' => '_ZN4zeno7reflect3any14ValueContainerIiE19is_enable_from_thisEv',
                                         'Param' => {
                                                      '0' => {
                                                               'name' => 'this',
                                                               'type' => '36162'
                                                             }
                                                    },
                                         'Return' => '3663',
                                         'ShortName' => 'is_enable_from_this',
                                         'Virt' => 1,
                                         'VirtPos' => '7'
                                       },
                            '18836' => {
                                         'Class' => '18615',
                                         'Constructor' => 1,
                                         'Header' => 'any',
                                         'Line' => '424',
                                         'MnglName' => '_ZN4zeno7reflect3any14ValueContainerIiEC2IiJRiEEENS0_12TInPlaceTypeIT_EEDpOT0_',
                                         'Param' => {
                                                      '0' => {
                                                               'name' => 'this',
                                                               'type' => '36162'
                                                             },
                                                      '1' => {
                                                               'name' => 'p1',
                                                               'type' => '23597'
                                                             },
                                                      '2' => {
                                                               'name' => 'args',
                                                               'type' => '45353'
                                                             }
                                                    },
                                         'ShortName' => 'ValueContainer<int, int&>',
                                         'TParam' => {
                                                       '0' => {
                                                                'key' => 'U',
                                                                'type' => '3688'
                                                              },
                                                       '1' => {
                                                                'key' => undef,
                                                                'type' => '45353'
                                                              }
                                                     }
                                       },
                            '18875' => {
                                         'Artificial' => 1,
                                         'Class' => '18615',
                                         'Destructor' => 1,
                                         'Header' => 'any',
                                         'Line' => '38',
                                         'MnglName' => '_ZN4zeno7reflect3any14ValueContainerIiED0Ev',
                                         'Param' => {
                                                      '0' => {
                                                               'name' => 'this',
                                                               'type' => '36162'
                                                             }
                                                    },
                                         'ShortName' => '~ValueContainer',
                                         'Virt' => 1,
                                         'VirtPos' => '0'
                                       },
                            '18893' => {
                                         'Class' => '18615',
                                         'Constructor' => 1,
                                         'Header' => 'any',
                                         'Line' => '418',
                                         'MnglName' => '_ZN4zeno7reflect3any14ValueContainerIiEC2IiEERKT_PNS0_9TEnableIfIX21VTIsCopyConstructibleIS5_EES5_E4TypeE',
                                         'Param' => {
                                                      '0' => {
                                                               'name' => 'this',
                                                               'type' => '36162'
                                                             },
                                                      '1' => {
                                                               'name' => 'value',
                                                               'type' => '45827'
                                                             },
                                                      '2' => {
                                                               'name' => 'p2',
                                                               'type' => '45837'
                                                             }
                                                    },
                                         'ShortName' => 'ValueContainer<int>',
                                         'TParam' => {
                                                       '0' => {
                                                                'key' => 'U',
                                                                'type' => '3688'
                                                              }
                                                     }
                                       },
                            '18973' => {
                                         'Class' => '18924',
                                         'Const' => 1,
                                         'Header' => 'any',
                                         'InLine' => 2,
                                         'Line' => '426',
                                         'MnglName' => '_ZNK4zeno7reflect3any14ValueContainerIfE4typeEv',
                                         'Param' => {
                                                      '0' => {
                                                               'name' => 'this',
                                                               'type' => '36198'
                                                             }
                                                    },
                                         'Return' => '3697',
                                         'ShortName' => 'type',
                                         'Virt' => 1,
                                         'VirtPos' => '2'
                                       },
                            '19000' => {
                                         'Class' => '18924',
                                         'Const' => 1,
                                         'Header' => 'any',
                                         'InLine' => 2,
                                         'Line' => '430',
                                         'MnglName' => '_ZNK4zeno7reflect3any14ValueContainerIfE7is_typeERKNS0_12RTTITypeInfoE',
                                         'Param' => {
                                                      '0' => {
                                                               'name' => 'this',
                                                               'type' => '36198'
                                                             },
                                                      '1' => {
                                                               'name' => 'other_type',
                                                               'type' => '3697'
                                                             }
                                                    },
                                         'Return' => '3663',
                                         'ShortName' => 'is_type',
                                         'Virt' => 1,
                                         'VirtPos' => '3'
                                       },
                            '19032' => {
                                         'Class' => '18924',
                                         'Const' => 1,
                                         'Header' => 'any',
                                         'InLine' => 2,
                                         'Line' => '438',
                                         'MnglName' => '_ZNK4zeno7reflect3any14ValueContainerIfE17is_convertible_toERKNS0_12RTTITypeInfoE',
                                         'Param' => {
                                                      '0' => {
                                                               'name' => 'this',
                                                               'type' => '36198'
                                                             },
                                                      '1' => {
                                                               'name' => 'other_type',
                                                               'type' => '3697'
                                                             }
                                                    },
                                         'Return' => '1611',
                                         'ShortName' => 'is_convertible_to',
                                         'Virt' => 1,
                                         'VirtPos' => '5'
                                       },
                            '19064' => {
                                         'Class' => '18924',
                                         'Const' => 1,
                                         'Header' => 'any',
                                         'InLine' => 2,
                                         'Line' => '470',
                                         'MnglName' => '_ZNK4zeno7reflect3any14ValueContainerIfE5cloneEv',
                                         'Param' => {
                                                      '0' => {
                                                               'name' => 'this',
                                                               'type' => '36198'
                                                             }
                                                    },
                                         'Return' => '3692',
                                         'ShortName' => 'clone',
                                         'Virt' => 1,
                                         'VirtPos' => '4'
                                       },
                            '1907' => {
                                        'Class' => '1639',
                                        'Constructor' => 1,
                                        'Header' => 'any',
                                        'Line' => '164',
                                        'MnglName' => '_ZN4zeno7reflect3AnyC2INS0_7ArchiveEEEPNS0_3any18TEnableAnyFromThisIT_EE',
                                        'Param' => {
                                                     '0' => {
                                                              'name' => 'this',
                                                              'type' => '5565'
                                                            },
                                                     '1' => {
                                                              'name' => 'that',
                                                              'type' => '5560'
                                                            }
                                                   },
                                        'ShortName' => 'Any<zeno::reflect::Archive>',
                                        'TParam' => {
                                                      '0' => {
                                                               'key' => 'T',
                                                               'type' => '605'
                                                             }
                                                    }
                                      },
                            '19091' => {
                                         'Class' => '18924',
                                         'Const' => 1,
                                         'Header' => 'any',
                                         'InLine' => 2,
                                         'Line' => '478',
                                         'MnglName' => '_ZNK4zeno7reflect3any14ValueContainerIfE19get_data_ptr_unsafeEv',
                                         'Param' => {
                                                      '0' => {
                                                               'name' => 'this',
                                                               'type' => '36198'
                                                             }
                                                    },
                                         'Return' => '5549',
                                         'ShortName' => 'get_data_ptr_unsafe',
                                         'Virt' => 1,
                                         'VirtPos' => '6'
                                       },
                            '19118' => {
                                         'Class' => '18924',
                                         'Header' => 'any',
                                         'InLine' => 2,
                                         'Line' => '482',
                                         'MnglName' => '_ZN4zeno7reflect3any14ValueContainerIfE19is_enable_from_thisEv',
                                         'Param' => {
                                                      '0' => {
                                                               'name' => 'this',
                                                               'type' => '36187'
                                                             }
                                                    },
                                         'Return' => '3663',
                                         'ShortName' => 'is_enable_from_this',
                                         'Virt' => 1,
                                         'VirtPos' => '7'
                                       },
                            '19145' => {
                                         'Class' => '18924',
                                         'Constructor' => 1,
                                         'Header' => 'any',
                                         'Line' => '424',
                                         'MnglName' => '_ZN4zeno7reflect3any14ValueContainerIfEC2IfJRfEEENS0_12TInPlaceTypeIT_EEDpOT0_',
                                         'Param' => {
                                                      '0' => {
                                                               'name' => 'this',
                                                               'type' => '36187'
                                                             },
                                                      '1' => {
                                                               'name' => 'p1',
                                                               'type' => '23453'
                                                             },
                                                      '2' => {
                                                               'name' => 'args',
                                                               'type' => '39771'
                                                             }
                                                    },
                                         'ShortName' => 'ValueContainer<float, float&>',
                                         'TParam' => {
                                                       '0' => {
                                                                'key' => 'U',
                                                                'type' => '10085'
                                                              },
                                                       '1' => {
                                                                'key' => undef,
                                                                'type' => '39771'
                                                              }
                                                     }
                                       },
                            '19184' => {
                                         'Artificial' => 1,
                                         'Class' => '18924',
                                         'Destructor' => 1,
                                         'Header' => 'any',
                                         'Line' => '38',
                                         'MnglName' => '_ZN4zeno7reflect3any14ValueContainerIfED0Ev',
                                         'Param' => {
                                                      '0' => {
                                                               'name' => 'this',
                                                               'type' => '36187'
                                                             }
                                                    },
                                         'ShortName' => '~ValueContainer',
                                         'Virt' => 1,
                                         'VirtPos' => '0'
                                       },
                            '19202' => {
                                         'Class' => '18924',
                                         'Constructor' => 1,
                                         'Header' => 'any',
                                         'Line' => '418',
                                         'MnglName' => '_ZN4zeno7reflect3any14ValueContainerIfEC2IfEERKT_PNS0_9TEnableIfIX21VTIsCopyConstructibleIS5_EES5_E4TypeE',
                                         'Param' => {
                                                      '0' => {
                                                               'name' => 'this',
                                                               'type' => '36187'
                                                             },
                                                      '1' => {
                                                               'name' => 'value',
                                                               'type' => '40440'
                                                             },
                                                      '2' => {
                                                               'name' => 'p2',
                                                               'type' => '40450'
                                                             }
                                                    },
                                         'ShortName' => 'ValueContainer<float>',
                                         'TParam' => {
                                                       '0' => {
                                                                'key' => 'U',
                                                                'type' => '10085'
                                                              }
                                                     }
                                       },
                            '19282' => {
                                         'Class' => '19233',
                                         'Const' => 1,
                                         'Header' => 'any',
                                         'InLine' => 2,
                                         'Line' => '426',
                                         'MnglName' => '_ZNK4zeno7reflect3any14ValueContainerIdE4typeEv',
                                         'Param' => {
                                                      '0' => {
                                                               'name' => 'this',
                                                               'type' => '36229'
                                                             }
                                                    },
                                         'Return' => '3697',
                                         'ShortName' => 'type',
                                         'Virt' => 1,
                                         'VirtPos' => '2'
                                       },
                            '19309' => {
                                         'Class' => '19233',
                                         'Const' => 1,
                                         'Header' => 'any',
                                         'InLine' => 2,
                                         'Line' => '430',
                                         'MnglName' => '_ZNK4zeno7reflect3any14ValueContainerIdE7is_typeERKNS0_12RTTITypeInfoE',
                                         'Param' => {
                                                      '0' => {
                                                               'name' => 'this',
                                                               'type' => '36229'
                                                             },
                                                      '1' => {
                                                               'name' => 'other_type',
                                                               'type' => '3697'
                                                             }
                                                    },
                                         'Return' => '3663',
                                         'ShortName' => 'is_type',
                                         'Virt' => 1,
                                         'VirtPos' => '3'
                                       },
                            '19341' => {
                                         'Class' => '19233',
                                         'Const' => 1,
                                         'Header' => 'any',
                                         'InLine' => 2,
                                         'Line' => '438',
                                         'MnglName' => '_ZNK4zeno7reflect3any14ValueContainerIdE17is_convertible_toERKNS0_12RTTITypeInfoE',
                                         'Param' => {
                                                      '0' => {
                                                               'name' => 'this',
                                                               'type' => '36229'
                                                             },
                                                      '1' => {
                                                               'name' => 'other_type',
                                                               'type' => '3697'
                                                             }
                                                    },
                                         'Return' => '1611',
                                         'ShortName' => 'is_convertible_to',
                                         'Virt' => 1,
                                         'VirtPos' => '5'
                                       },
                            '19373' => {
                                         'Class' => '19233',
                                         'Const' => 1,
                                         'Header' => 'any',
                                         'InLine' => 2,
                                         'Line' => '470',
                                         'MnglName' => '_ZNK4zeno7reflect3any14ValueContainerIdE5cloneEv',
                                         'Param' => {
                                                      '0' => {
                                                               'name' => 'this',
                                                               'type' => '36229'
                                                             }
                                                    },
                                         'Return' => '3692',
                                         'ShortName' => 'clone',
                                         'Virt' => 1,
                                         'VirtPos' => '4'
                                       },
                            '19400' => {
                                         'Class' => '19233',
                                         'Const' => 1,
                                         'Header' => 'any',
                                         'InLine' => 2,
                                         'Line' => '478',
                                         'MnglName' => '_ZNK4zeno7reflect3any14ValueContainerIdE19get_data_ptr_unsafeEv',
                                         'Param' => {
                                                      '0' => {
                                                               'name' => 'this',
                                                               'type' => '36229'
                                                             }
                                                    },
                                         'Return' => '5549',
                                         'ShortName' => 'get_data_ptr_unsafe',
                                         'Virt' => 1,
                                         'VirtPos' => '6'
                                       },
                            '19427' => {
                                         'Class' => '19233',
                                         'Header' => 'any',
                                         'InLine' => 2,
                                         'Line' => '482',
                                         'MnglName' => '_ZN4zeno7reflect3any14ValueContainerIdE19is_enable_from_thisEv',
                                         'Param' => {
                                                      '0' => {
                                                               'name' => 'this',
                                                               'type' => '36218'
                                                             }
                                                    },
                                         'Return' => '3663',
                                         'ShortName' => 'is_enable_from_this',
                                         'Virt' => 1,
                                         'VirtPos' => '7'
                                       },
                            '19454' => {
                                         'Class' => '19233',
                                         'Constructor' => 1,
                                         'Header' => 'any',
                                         'Line' => '424',
                                         'MnglName' => '_ZN4zeno7reflect3any14ValueContainerIdEC2IdJRdEEENS0_12TInPlaceTypeIT_EEDpOT0_',
                                         'Param' => {
                                                      '0' => {
                                                               'name' => 'this',
                                                               'type' => '36218'
                                                             },
                                                      '1' => {
                                                               'name' => 'p1',
                                                               'type' => '23477'
                                                             },
                                                      '2' => {
                                                               'name' => 'args',
                                                               'type' => '40618'
                                                             }
                                                    },
                                         'ShortName' => 'ValueContainer<double, double&>',
                                         'TParam' => {
                                                       '0' => {
                                                                'key' => 'U',
                                                                'type' => '10049'
                                                              },
                                                       '1' => {
                                                                'key' => undef,
                                                                'type' => '40618'
                                                              }
                                                     }
                                       },
                            '19493' => {
                                         'Artificial' => 1,
                                         'Class' => '19233',
                                         'Destructor' => 1,
                                         'Header' => 'any',
                                         'Line' => '38',
                                         'MnglName' => '_ZN4zeno7reflect3any14ValueContainerIdED0Ev',
                                         'Param' => {
                                                      '0' => {
                                                               'name' => 'this',
                                                               'type' => '36218'
                                                             }
                                                    },
                                         'ShortName' => '~ValueContainer',
                                         'Virt' => 1,
                                         'VirtPos' => '0'
                                       },
                            '19511' => {
                                         'Class' => '19233',
                                         'Constructor' => 1,
                                         'Header' => 'any',
                                         'Line' => '418',
                                         'MnglName' => '_ZN4zeno7reflect3any14ValueContainerIdEC2IdEERKT_PNS0_9TEnableIfIX21VTIsCopyConstructibleIS5_EES5_E4TypeE',
                                         'Param' => {
                                                      '0' => {
                                                               'name' => 'this',
                                                               'type' => '36218'
                                                             },
                                                      '1' => {
                                                               'name' => 'value',
                                                               'type' => '41092'
                                                             },
                                                      '2' => {
                                                               'name' => 'p2',
                                                               'type' => '41102'
                                                             }
                                                    },
                                         'ShortName' => 'ValueContainer<double>',
                                         'TParam' => {
                                                       '0' => {
                                                                'key' => 'U',
                                                                'type' => '10049'
                                                              }
                                                     }
                                       },
                            '19591' => {
                                         'Class' => '19542',
                                         'Const' => 1,
                                         'Header' => 'any',
                                         'InLine' => 2,
                                         'Line' => '426',
                                         'MnglName' => '_ZNK4zeno7reflect3any14ValueContainerIcE4typeEv',
                                         'Param' => {
                                                      '0' => {
                                                               'name' => 'this',
                                                               'type' => '36254'
                                                             }
                                                    },
                                         'Return' => '3697',
                                         'ShortName' => 'type',
                                         'Virt' => 1,
                                         'VirtPos' => '2'
                                       },
                            '19618' => {
                                         'Class' => '19542',
                                         'Const' => 1,
                                         'Header' => 'any',
                                         'InLine' => 2,
                                         'Line' => '430',
                                         'MnglName' => '_ZNK4zeno7reflect3any14ValueContainerIcE7is_typeERKNS0_12RTTITypeInfoE',
                                         'Param' => {
                                                      '0' => {
                                                               'name' => 'this',
                                                               'type' => '36254'
                                                             },
                                                      '1' => {
                                                               'name' => 'other_type',
                                                               'type' => '3697'
                                                             }
                                                    },
                                         'Return' => '3663',
                                         'ShortName' => 'is_type',
                                         'Virt' => 1,
                                         'VirtPos' => '3'
                                       },
                            '19650' => {
                                         'Class' => '19542',
                                         'Const' => 1,
                                         'Header' => 'any',
                                         'InLine' => 2,
                                         'Line' => '438',
                                         'MnglName' => '_ZNK4zeno7reflect3any14ValueContainerIcE17is_convertible_toERKNS0_12RTTITypeInfoE',
                                         'Param' => {
                                                      '0' => {
                                                               'name' => 'this',
                                                               'type' => '36254'
                                                             },
                                                      '1' => {
                                                               'name' => 'other_type',
                                                               'type' => '3697'
                                                             }
                                                    },
                                         'Return' => '1611',
                                         'ShortName' => 'is_convertible_to',
                                         'Virt' => 1,
                                         'VirtPos' => '5'
                                       },
                            '19682' => {
                                         'Class' => '19542',
                                         'Const' => 1,
                                         'Header' => 'any',
                                         'InLine' => 2,
                                         'Line' => '470',
                                         'MnglName' => '_ZNK4zeno7reflect3any14ValueContainerIcE5cloneEv',
                                         'Param' => {
                                                      '0' => {
                                                               'name' => 'this',
                                                               'type' => '36254'
                                                             }
                                                    },
                                         'Return' => '3692',
                                         'ShortName' => 'clone',
                                         'Virt' => 1,
                                         'VirtPos' => '4'
                                       },
                            '19709' => {
                                         'Class' => '19542',
                                         'Const' => 1,
                                         'Header' => 'any',
                                         'InLine' => 2,
                                         'Line' => '478',
                                         'MnglName' => '_ZNK4zeno7reflect3any14ValueContainerIcE19get_data_ptr_unsafeEv',
                                         'Param' => {
                                                      '0' => {
                                                               'name' => 'this',
                                                               'type' => '36254'
                                                             }
                                                    },
                                         'Return' => '5549',
                                         'ShortName' => 'get_data_ptr_unsafe',
                                         'Virt' => 1,
                                         'VirtPos' => '6'
                                       },
                            '19736' => {
                                         'Class' => '19542',
                                         'Header' => 'any',
                                         'InLine' => 2,
                                         'Line' => '482',
                                         'MnglName' => '_ZN4zeno7reflect3any14ValueContainerIcE19is_enable_from_thisEv',
                                         'Param' => {
                                                      '0' => {
                                                               'name' => 'this',
                                                               'type' => '36249'
                                                             }
                                                    },
                                         'Return' => '3663',
                                         'ShortName' => 'is_enable_from_this',
                                         'Virt' => 1,
                                         'VirtPos' => '7'
                                       },
                            '19763' => {
                                         'Class' => '19542',
                                         'Constructor' => 1,
                                         'Header' => 'any',
                                         'Line' => '424',
                                         'MnglName' => '_ZN4zeno7reflect3any14ValueContainerIcEC2IcJRcEEENS0_12TInPlaceTypeIT_EEDpOT0_',
                                         'Param' => {
                                                      '0' => {
                                                               'name' => 'this',
                                                               'type' => '36249'
                                                             },
                                                      '1' => {
                                                               'name' => 'p1',
                                                               'type' => '23501'
                                                             },
                                                      '2' => {
                                                               'name' => 'args',
                                                               'type' => '41171'
                                                             }
                                                    },
                                         'ShortName' => 'ValueContainer<char, char&>',
                                         'TParam' => {
                                                       '0' => {
                                                                'key' => 'U',
                                                                'type' => '70'
                                                              },
                                                       '1' => {
                                                                'key' => undef,
                                                                'type' => '41171'
                                                              }
                                                     }
                                       },
                            '19802' => {
                                         'Artificial' => 1,
                                         'Class' => '19542',
                                         'Destructor' => 1,
                                         'Header' => 'any',
                                         'Line' => '38',
                                         'MnglName' => '_ZN4zeno7reflect3any14ValueContainerIcED0Ev',
                                         'Param' => {
                                                      '0' => {
                                                               'name' => 'this',
                                                               'type' => '36249'
                                                             }
                                                    },
                                         'ShortName' => '~ValueContainer',
                                         'Virt' => 1,
                                         'VirtPos' => '0'
                                       },
                            '19820' => {
                                         'Class' => '19542',
                                         'Constructor' => 1,
                                         'Header' => 'any',
                                         'Line' => '418',
                                         'MnglName' => '_ZN4zeno7reflect3any14ValueContainerIcEC2IcEERKT_PNS0_9TEnableIfIX21VTIsCopyConstructibleIS5_EES5_E4TypeE',
                                         'Param' => {
                                                      '0' => {
                                                               'name' => 'this',
                                                               'type' => '36249'
                                                             },
                                                      '1' => {
                                                               'name' => 'value',
                                                               'type' => '41645'
                                                             },
                                                      '2' => {
                                                               'name' => 'p2',
                                                               'type' => '41650'
                                                             }
                                                    },
                                         'ShortName' => 'ValueContainer<char>',
                                         'TParam' => {
                                                       '0' => {
                                                                'key' => 'U',
                                                                'type' => '70'
                                                              }
                                                     }
                                       },
                            '19900' => {
                                         'Class' => '19851',
                                         'Const' => 1,
                                         'Header' => 'any',
                                         'InLine' => 2,
                                         'Line' => '426',
                                         'MnglName' => '_ZNK4zeno7reflect3any14ValueContainerINSt7__cxx1112basic_stringIcSt11char_traitsIcESaIcEEEE4typeEv',
                                         'Param' => {
                                                      '0' => {
                                                               'name' => 'this',
                                                               'type' => '36297'
                                                             }
                                                    },
                                         'Return' => '3697',
                                         'ShortName' => 'type',
                                         'Virt' => 1,
                                         'VirtPos' => '2'
                                       },
                            '19927' => {
                                         'Class' => '19851',
                                         'Const' => 1,
                                         'Header' => 'any',
                                         'InLine' => 2,
                                         'Line' => '430',
                                         'MnglName' => '_ZNK4zeno7reflect3any14ValueContainerINSt7__cxx1112basic_stringIcSt11char_traitsIcESaIcEEEE7is_typeERKNS0_12RTTITypeInfoE',
                                         'Param' => {
                                                      '0' => {
                                                               'name' => 'this',
                                                               'type' => '36297'
                                                             },
                                                      '1' => {
                                                               'name' => 'other_type',
                                                               'type' => '3697'
                                                             }
                                                    },
                                         'Return' => '3663',
                                         'ShortName' => 'is_type',
                                         'Virt' => 1,
                                         'VirtPos' => '3'
                                       },
                            '19959' => {
                                         'Class' => '19851',
                                         'Const' => 1,
                                         'Header' => 'any',
                                         'InLine' => 2,
                                         'Line' => '438',
                                         'MnglName' => '_ZNK4zeno7reflect3any14ValueContainerINSt7__cxx1112basic_stringIcSt11char_traitsIcESaIcEEEE17is_convertible_toERKNS0_12RTTITypeInfoE',
                                         'Param' => {
                                                      '0' => {
                                                               'name' => 'this',
                                                               'type' => '36297'
                                                             },
                                                      '1' => {
                                                               'name' => 'other_type',
                                                               'type' => '3697'
                                                             }
                                                    },
                                         'Return' => '1611',
                                         'ShortName' => 'is_convertible_to',
                                         'Virt' => 1,
                                         'VirtPos' => '5'
                                       },
                            '19991' => {
                                         'Class' => '19851',
                                         'Const' => 1,
                                         'Header' => 'any',
                                         'InLine' => 2,
                                         'Line' => '470',
                                         'MnglName' => '_ZNK4zeno7reflect3any14ValueContainerINSt7__cxx1112basic_stringIcSt11char_traitsIcESaIcEEEE5cloneEv',
                                         'Param' => {
                                                      '0' => {
                                                               'name' => 'this',
                                                               'type' => '36297'
                                                             }
                                                    },
                                         'Return' => '3692',
                                         'ShortName' => 'clone',
                                         'Virt' => 1,
                                         'VirtPos' => '4'
                                       },
                            '20018' => {
                                         'Class' => '19851',
                                         'Const' => 1,
                                         'Header' => 'any',
                                         'InLine' => 2,
                                         'Line' => '478',
                                         'MnglName' => '_ZNK4zeno7reflect3any14ValueContainerINSt7__cxx1112basic_stringIcSt11char_traitsIcESaIcEEEE19get_data_ptr_unsafeEv',
                                         'Param' => {
                                                      '0' => {
                                                               'name' => 'this',
                                                               'type' => '36297'
                                                             }
                                                    },
                                         'Return' => '5549',
                                         'ShortName' => 'get_data_ptr_unsafe',
                                         'Virt' => 1,
                                         'VirtPos' => '6'
                                       },
                            '20045' => {
                                         'Class' => '19851',
                                         'Header' => 'any',
                                         'InLine' => 2,
                                         'Line' => '482',
                                         'MnglName' => '_ZN4zeno7reflect3any14ValueContainerINSt7__cxx1112basic_stringIcSt11char_traitsIcESaIcEEEE19is_enable_from_thisEv',
                                         'Param' => {
                                                      '0' => {
                                                               'name' => 'this',
                                                               'type' => '36292'
                                                             }
                                                    },
                                         'Return' => '3663',
                                         'ShortName' => 'is_enable_from_this',
                                         'Virt' => 1,
                                         'VirtPos' => '7'
                                       },
                            '20072' => {
                                         'Class' => '19851',
                                         'Constructor' => 1,
                                         'Header' => 'any',
                                         'Line' => '424',
                                         'MnglName' => '_ZN4zeno7reflect3any14ValueContainerINSt7__cxx1112basic_stringIcSt11char_traitsIcESaIcEEEEC2IS8_JRS8_EEENS0_12TInPlaceTypeIT_EEDpOT0_',
                                         'Param' => {
                                                      '0' => {
                                                               'name' => 'this',
                                                               'type' => '36292'
                                                             },
                                                      '1' => {
                                                               'name' => 'p1',
                                                               'type' => '23525'
                                                             },
                                                      '2' => {
                                                               'name' => 'args',
                                                               'type' => '35946'
                                                             }
                                                    },
                                         'ShortName' => 'ValueContainer<std::__cxx11::basic_string<char>, std::__cxx11::basic_string<char>&>',
                                         'TParam' => {
                                                       '0' => {
                                                                'key' => 'U',
                                                                'type' => '25542'
                                                              },
                                                       '1' => {
                                                                'key' => undef,
                                                                'type' => '35946'
                                                              }
                                                     }
                                       },
                            '20111' => {
                                         'Artificial' => 1,
                                         'Class' => '19851',
                                         'Destructor' => 1,
                                         'Header' => 'any',
                                         'Line' => '38',
                                         'MnglName' => '_ZN4zeno7reflect3any14ValueContainerINSt7__cxx1112basic_stringIcSt11char_traitsIcESaIcEEEED0Ev',
                                         'Param' => {
                                                      '0' => {
                                                               'name' => 'this',
                                                               'type' => '36292'
                                                             }
                                                    },
                                         'ShortName' => '~ValueContainer',
                                         'Virt' => 1,
                                         'VirtPos' => '0'
                                       },
                            '20129' => {
                                         'Class' => '19851',
                                         'Constructor' => 1,
                                         'Header' => 'any',
                                         'Line' => '418',
                                         'MnglName' => '_ZN4zeno7reflect3any14ValueContainerINSt7__cxx1112basic_stringIcSt11char_traitsIcESaIcEEEEC2IS8_EERKT_PNS0_9TEnableIfIX21VTIsCopyConstructibleISB_EESB_E4TypeE',
                                         'Param' => {
                                                      '0' => {
                                                               'name' => 'this',
                                                               'type' => '36292'
                                                             },
                                                      '1' => {
                                                               'name' => 'value',
                                                               'type' => '35936'
                                                             },
                                                      '2' => {
                                                               'name' => 'p2',
                                                               'type' => '44178'
                                                             }
                                                    },
                                         'ShortName' => 'ValueContainer<std::__cxx11::basic_string<char> >',
                                         'TParam' => {
                                                       '0' => {
                                                                'key' => 'U',
                                                                'type' => '25542'
                                                              }
                                                     }
                                       },
                            '2016' => {
                                        'Class' => '1930',
                                        'Constructor' => 1,
                                        'Header' => 'unique_ptr',
                                        'Line' => '22',
                                        'MnglName' => '_ZN4zeno7reflect9UniquePtrINS0_11ISerializerEEC2EOS3_',
                                        'Param' => {
                                                     '0' => {
                                                              'name' => 'this',
                                                              'type' => '5600'
                                                            },
                                                     '1' => {
                                                              'name' => 'moving',
                                                              'type' => '5622'
                                                            }
                                                   },
                                        'ShortName' => 'UniquePtr'
                                      },
                            '20209' => {
                                         'Class' => '20160',
                                         'Const' => 1,
                                         'Header' => 'any',
                                         'InLine' => 2,
                                         'Line' => '426',
                                         'MnglName' => '_ZNK4zeno7reflect3any14ValueContainerIaE4typeEv',
                                         'Param' => {
                                                      '0' => {
                                                               'name' => 'this',
                                                               'type' => '36328'
                                                             }
                                                    },
                                         'Return' => '3697',
                                         'ShortName' => 'type',
                                         'Virt' => 1,
                                         'VirtPos' => '2'
                                       },
                            '20236' => {
                                         'Class' => '20160',
                                         'Const' => 1,
                                         'Header' => 'any',
                                         'InLine' => 2,
                                         'Line' => '430',
                                         'MnglName' => '_ZNK4zeno7reflect3any14ValueContainerIaE7is_typeERKNS0_12RTTITypeInfoE',
                                         'Param' => {
                                                      '0' => {
                                                               'name' => 'this',
                                                               'type' => '36328'
                                                             },
                                                      '1' => {
                                                               'name' => 'other_type',
                                                               'type' => '3697'
                                                             }
                                                    },
                                         'Return' => '3663',
                                         'ShortName' => 'is_type',
                                         'Virt' => 1,
                                         'VirtPos' => '3'
                                       },
                            '20268' => {
                                         'Class' => '20160',
                                         'Const' => 1,
                                         'Header' => 'any',
                                         'InLine' => 2,
                                         'Line' => '438',
                                         'MnglName' => '_ZNK4zeno7reflect3any14ValueContainerIaE17is_convertible_toERKNS0_12RTTITypeInfoE',
                                         'Param' => {
                                                      '0' => {
                                                               'name' => 'this',
                                                               'type' => '36328'
                                                             },
                                                      '1' => {
                                                               'name' => 'other_type',
                                                               'type' => '3697'
                                                             }
                                                    },
                                         'Return' => '1611',
                                         'ShortName' => 'is_convertible_to',
                                         'Virt' => 1,
                                         'VirtPos' => '5'
                                       },
                            '20300' => {
                                         'Class' => '20160',
                                         'Const' => 1,
                                         'Header' => 'any',
                                         'InLine' => 2,
                                         'Line' => '470',
                                         'MnglName' => '_ZNK4zeno7reflect3any14ValueContainerIaE5cloneEv',
                                         'Param' => {
                                                      '0' => {
                                                               'name' => 'this',
                                                               'type' => '36328'
                                                             }
                                                    },
                                         'Return' => '3692',
                                         'ShortName' => 'clone',
                                         'Virt' => 1,
                                         'VirtPos' => '4'
                                       },
                            '2032' => {
                                        'Class' => '1930',
                                        'Destructor' => 1,
                                        'Header' => 'unique_ptr',
                                        'Line' => '42',
                                        'MnglName' => '_ZN4zeno7reflect9UniquePtrINS0_11ISerializerEED2Ev',
                                        'Param' => {
                                                     '0' => {
                                                              'name' => 'this',
                                                              'type' => '5600'
                                                            }
                                                   },
                                        'ShortName' => '~UniquePtr'
                                      },
                            '20327' => {
                                         'Class' => '20160',
                                         'Const' => 1,
                                         'Header' => 'any',
                                         'InLine' => 2,
                                         'Line' => '478',
                                         'MnglName' => '_ZNK4zeno7reflect3any14ValueContainerIaE19get_data_ptr_unsafeEv',
                                         'Param' => {
                                                      '0' => {
                                                               'name' => 'this',
                                                               'type' => '36328'
                                                             }
                                                    },
                                         'Return' => '5549',
                                         'ShortName' => 'get_data_ptr_unsafe',
                                         'Virt' => 1,
                                         'VirtPos' => '6'
                                       },
                            '20354' => {
                                         'Class' => '20160',
                                         'Header' => 'any',
                                         'InLine' => 2,
                                         'Line' => '482',
                                         'MnglName' => '_ZN4zeno7reflect3any14ValueContainerIaE19is_enable_from_thisEv',
                                         'Param' => {
                                                      '0' => {
                                                               'name' => 'this',
                                                               'type' => '36317'
                                                             }
                                                    },
                                         'Return' => '3663',
                                         'ShortName' => 'is_enable_from_this',
                                         'Virt' => 1,
                                         'VirtPos' => '7'
                                       },
                            '20381' => {
                                         'Class' => '20160',
                                         'Constructor' => 1,
                                         'Header' => 'any',
                                         'Line' => '424',
                                         'MnglName' => '_ZN4zeno7reflect3any14ValueContainerIaEC2IaJRaEEENS0_12TInPlaceTypeIT_EEDpOT0_',
                                         'Param' => {
                                                      '0' => {
                                                               'name' => 'this',
                                                               'type' => '36317'
                                                             },
                                                      '1' => {
                                                               'name' => 'p1',
                                                               'type' => '23549'
                                                             },
                                                      '2' => {
                                                               'name' => 'args',
                                                               'type' => '44247'
                                                             }
                                                    },
                                         'ShortName' => 'ValueContainer<signed char, signed char&>',
                                         'TParam' => {
                                                       '0' => {
                                                                'key' => 'U',
                                                                'type' => '12815'
                                                              },
                                                       '1' => {
                                                                'key' => undef,
                                                                'type' => '44247'
                                                              }
                                                     }
                                       },
                            '20420' => {
                                         'Artificial' => 1,
                                         'Class' => '20160',
                                         'Destructor' => 1,
                                         'Header' => 'any',
                                         'Line' => '38',
                                         'MnglName' => '_ZN4zeno7reflect3any14ValueContainerIaED0Ev',
                                         'Param' => {
                                                      '0' => {
                                                               'name' => 'this',
                                                               'type' => '36317'
                                                             }
                                                    },
                                         'ShortName' => '~ValueContainer',
                                         'Virt' => 1,
                                         'VirtPos' => '0'
                                       },
                            '20438' => {
                                         'Class' => '20160',
                                         'Constructor' => 1,
                                         'Header' => 'any',
                                         'Line' => '418',
                                         'MnglName' => '_ZN4zeno7reflect3any14ValueContainerIaEC2IaEERKT_PNS0_9TEnableIfIX21VTIsCopyConstructibleIS5_EES5_E4TypeE',
                                         'Param' => {
                                                      '0' => {
                                                               'name' => 'this',
                                                               'type' => '36317'
                                                             },
                                                      '1' => {
                                                               'name' => 'value',
                                                               'type' => '44721'
                                                             },
                                                      '2' => {
                                                               'name' => 'p2',
                                                               'type' => '44731'
                                                             }
                                                    },
                                         'ShortName' => 'ValueContainer<signed char>',
                                         'TParam' => {
                                                       '0' => {
                                                                'key' => 'U',
                                                                'type' => '12815'
                                                              }
                                                     }
                                       },
                            '20518' => {
                                         'Class' => '20469',
                                         'Const' => 1,
                                         'Header' => 'any',
                                         'InLine' => 2,
                                         'Line' => '426',
                                         'MnglName' => '_ZNK4zeno7reflect3any14ValueContainerIsE4typeEv',
                                         'Param' => {
                                                      '0' => {
                                                               'name' => 'this',
                                                               'type' => '36359'
                                                             }
                                                    },
                                         'Return' => '3697',
                                         'ShortName' => 'type',
                                         'Virt' => 1,
                                         'VirtPos' => '2'
                                       },
                            '20545' => {
                                         'Class' => '20469',
                                         'Const' => 1,
                                         'Header' => 'any',
                                         'InLine' => 2,
                                         'Line' => '430',
                                         'MnglName' => '_ZNK4zeno7reflect3any14ValueContainerIsE7is_typeERKNS0_12RTTITypeInfoE',
                                         'Param' => {
                                                      '0' => {
                                                               'name' => 'this',
                                                               'type' => '36359'
                                                             },
                                                      '1' => {
                                                               'name' => 'other_type',
                                                               'type' => '3697'
                                                             }
                                                    },
                                         'Return' => '3663',
                                         'ShortName' => 'is_type',
                                         'Virt' => 1,
                                         'VirtPos' => '3'
                                       },
                            '20577' => {
                                         'Class' => '20469',
                                         'Const' => 1,
                                         'Header' => 'any',
                                         'InLine' => 2,
                                         'Line' => '438',
                                         'MnglName' => '_ZNK4zeno7reflect3any14ValueContainerIsE17is_convertible_toERKNS0_12RTTITypeInfoE',
                                         'Param' => {
                                                      '0' => {
                                                               'name' => 'this',
                                                               'type' => '36359'
                                                             },
                                                      '1' => {
                                                               'name' => 'other_type',
                                                               'type' => '3697'
                                                             }
                                                    },
                                         'Return' => '1611',
                                         'ShortName' => 'is_convertible_to',
                                         'Virt' => 1,
                                         'VirtPos' => '5'
                                       },
                            '2059' => {
                                        'Class' => '1930',
                                        'Const' => 1,
                                        'Header' => 'unique_ptr',
                                        'InLine' => 2,
                                        'Line' => '47',
                                        'MnglName' => '_ZNK4zeno7reflect9UniquePtrINS0_11ISerializerEEptEv',
                                        'Param' => {
                                                     '0' => {
                                                              'name' => 'this',
                                                              'type' => '5632'
                                                            }
                                                   },
                                        'Return' => '5595',
                                        'ShortName' => 'operator->'
                                      },
                            '20609' => {
                                         'Class' => '20469',
                                         'Const' => 1,
                                         'Header' => 'any',
                                         'InLine' => 2,
                                         'Line' => '470',
                                         'MnglName' => '_ZNK4zeno7reflect3any14ValueContainerIsE5cloneEv',
                                         'Param' => {
                                                      '0' => {
                                                               'name' => 'this',
                                                               'type' => '36359'
                                                             }
                                                    },
                                         'Return' => '3692',
                                         'ShortName' => 'clone',
                                         'Virt' => 1,
                                         'VirtPos' => '4'
                                       },
                            '20636' => {
                                         'Class' => '20469',
                                         'Const' => 1,
                                         'Header' => 'any',
                                         'InLine' => 2,
                                         'Line' => '478',
                                         'MnglName' => '_ZNK4zeno7reflect3any14ValueContainerIsE19get_data_ptr_unsafeEv',
                                         'Param' => {
                                                      '0' => {
                                                               'name' => 'this',
                                                               'type' => '36359'
                                                             }
                                                    },
                                         'Return' => '5549',
                                         'ShortName' => 'get_data_ptr_unsafe',
                                         'Virt' => 1,
                                         'VirtPos' => '6'
                                       },
                            '20663' => {
                                         'Class' => '20469',
                                         'Header' => 'any',
                                         'InLine' => 2,
                                         'Line' => '482',
                                         'MnglName' => '_ZN4zeno7reflect3any14ValueContainerIsE19is_enable_from_thisEv',
                                         'Param' => {
                                                      '0' => {
                                                               'name' => 'this',
                                                               'type' => '36348'
                                                             }
                                                    },
                                         'Return' => '3663',
                                         'ShortName' => 'is_enable_from_this',
                                         'Virt' => 1,
                                         'VirtPos' => '7'
                                       },
                            '20690' => {
                                         'Class' => '20469',
                                         'Constructor' => 1,
                                         'Header' => 'any',
                                         'Line' => '424',
                                         'MnglName' => '_ZN4zeno7reflect3any14ValueContainerIsEC2IsJRsEEENS0_12TInPlaceTypeIT_EEDpOT0_',
                                         'Param' => {
                                                      '0' => {
                                                               'name' => 'this',
                                                               'type' => '36348'
                                                             },
                                                      '1' => {
                                                               'name' => 'p1',
                                                               'type' => '23573'
                                                             },
                                                      '2' => {
                                                               'name' => 'args',
                                                               'type' => '44800'
                                                             }
                                                    },
                                         'ShortName' => 'ValueContainer<short, short&>',
                                         'TParam' => {
                                                       '0' => {
                                                                'key' => 'U',
                                                                'type' => '12838'
                                                              },
                                                       '1' => {
                                                                'key' => undef,
                                                                'type' => '44800'
                                                              }
                                                     }
                                       },
                            '20729' => {
                                         'Artificial' => 1,
                                         'Class' => '20469',
                                         'Destructor' => 1,
                                         'Header' => 'any',
                                         'Line' => '38',
                                         'MnglName' => '_ZN4zeno7reflect3any14ValueContainerIsED0Ev',
                                         'Param' => {
                                                      '0' => {
                                                               'name' => 'this',
                                                               'type' => '36348'
                                                             }
                                                    },
                                         'ShortName' => '~ValueContainer',
                                         'Virt' => 1,
                                         'VirtPos' => '0'
                                       },
                            '20747' => {
                                         'Class' => '20469',
                                         'Constructor' => 1,
                                         'Header' => 'any',
                                         'Line' => '418',
                                         'MnglName' => '_ZN4zeno7reflect3any14ValueContainerIsEC2IsEERKT_PNS0_9TEnableIfIX21VTIsCopyConstructibleIS5_EES5_E4TypeE',
                                         'Param' => {
                                                      '0' => {
                                                               'name' => 'this',
                                                               'type' => '36348'
                                                             },
                                                      '1' => {
                                                               'name' => 'value',
                                                               'type' => '45274'
                                                             },
                                                      '2' => {
                                                               'name' => 'p2',
                                                               'type' => '45284'
                                                             }
                                                    },
                                         'ShortName' => 'ValueContainer<short>',
                                         'TParam' => {
                                                       '0' => {
                                                                'key' => 'U',
                                                                'type' => '12838'
                                                              }
                                                     }
                                       },
                            '20827' => {
                                         'Class' => '20778',
                                         'Const' => 1,
                                         'Header' => 'any',
                                         'InLine' => 2,
                                         'Line' => '426',
                                         'MnglName' => '_ZNK4zeno7reflect3any14ValueContainerIlE4typeEv',
                                         'Param' => {
                                                      '0' => {
                                                               'name' => 'this',
                                                               'type' => '36390'
                                                             }
                                                    },
                                         'Return' => '3697',
                                         'ShortName' => 'type',
                                         'Virt' => 1,
                                         'VirtPos' => '2'
                                       },
                            '20854' => {
                                         'Class' => '20778',
                                         'Const' => 1,
                                         'Header' => 'any',
                                         'InLine' => 2,
                                         'Line' => '430',
                                         'MnglName' => '_ZNK4zeno7reflect3any14ValueContainerIlE7is_typeERKNS0_12RTTITypeInfoE',
                                         'Param' => {
                                                      '0' => {
                                                               'name' => 'this',
                                                               'type' => '36390'
                                                             },
                                                      '1' => {
                                                               'name' => 'other_type',
                                                               'type' => '3697'
                                                             }
                                                    },
                                         'Return' => '3663',
                                         'ShortName' => 'is_type',
                                         'Virt' => 1,
                                         'VirtPos' => '3'
                                       },
                            '20886' => {
                                         'Class' => '20778',
                                         'Const' => 1,
                                         'Header' => 'any',
                                         'InLine' => 2,
                                         'Line' => '438',
                                         'MnglName' => '_ZNK4zeno7reflect3any14ValueContainerIlE17is_convertible_toERKNS0_12RTTITypeInfoE',
                                         'Param' => {
                                                      '0' => {
                                                               'name' => 'this',
                                                               'type' => '36390'
                                                             },
                                                      '1' => {
                                                               'name' => 'other_type',
                                                               'type' => '3697'
                                                             }
                                                    },
                                         'Return' => '1611',
                                         'ShortName' => 'is_convertible_to',
                                         'Virt' => 1,
                                         'VirtPos' => '5'
                                       },
                            '20918' => {
                                         'Class' => '20778',
                                         'Const' => 1,
                                         'Header' => 'any',
                                         'InLine' => 2,
                                         'Line' => '470',
                                         'MnglName' => '_ZNK4zeno7reflect3any14ValueContainerIlE5cloneEv',
                                         'Param' => {
                                                      '0' => {
                                                               'name' => 'this',
                                                               'type' => '36390'
                                                             }
                                                    },
                                         'Return' => '3692',
                                         'ShortName' => 'clone',
                                         'Virt' => 1,
                                         'VirtPos' => '4'
                                       },
                            '20945' => {
                                         'Class' => '20778',
                                         'Const' => 1,
                                         'Header' => 'any',
                                         'InLine' => 2,
                                         'Line' => '478',
                                         'MnglName' => '_ZNK4zeno7reflect3any14ValueContainerIlE19get_data_ptr_unsafeEv',
                                         'Param' => {
                                                      '0' => {
                                                               'name' => 'this',
                                                               'type' => '36390'
                                                             }
                                                    },
                                         'Return' => '5549',
                                         'ShortName' => 'get_data_ptr_unsafe',
                                         'Virt' => 1,
                                         'VirtPos' => '6'
                                       },
                            '20972' => {
                                         'Class' => '20778',
                                         'Header' => 'any',
                                         'InLine' => 2,
                                         'Line' => '482',
                                         'MnglName' => '_ZN4zeno7reflect3any14ValueContainerIlE19is_enable_from_thisEv',
                                         'Param' => {
                                                      '0' => {
                                                               'name' => 'this',
                                                               'type' => '36379'
                                                             }
                                                    },
                                         'Return' => '3663',
                                         'ShortName' => 'is_enable_from_this',
                                         'Virt' => 1,
                                         'VirtPos' => '7'
                                       },
                            '20999' => {
                                         'Class' => '20778',
                                         'Constructor' => 1,
                                         'Header' => 'any',
                                         'Line' => '424',
                                         'MnglName' => '_ZN4zeno7reflect3any14ValueContainerIlEC2IlJRlEEENS0_12TInPlaceTypeIT_EEDpOT0_',
                                         'Param' => {
                                                      '0' => {
                                                               'name' => 'this',
                                                               'type' => '36379'
                                                             },
                                                      '1' => {
                                                               'name' => 'p1',
                                                               'type' => '23621'
                                                             },
                                                      '2' => {
                                                               'name' => 'args',
                                                               'type' => '45906'
                                                             }
                                                    },
                                         'ShortName' => 'ValueContainer<long, long&>',
                                         'TParam' => {
                                                       '0' => {
                                                                'key' => 'U',
                                                                'type' => '10143'
                                                              },
                                                       '1' => {
                                                                'key' => undef,
                                                                'type' => '45906'
                                                              }
                                                     }
                                       },
                            '21038' => {
                                         'Artificial' => 1,
                                         'Class' => '20778',
                                         'Destructor' => 1,
                                         'Header' => 'any',
                                         'Line' => '38',
                                         'MnglName' => '_ZN4zeno7reflect3any14ValueContainerIlED0Ev',
                                         'Param' => {
                                                      '0' => {
                                                               'name' => 'this',
                                                               'type' => '36379'
                                                             }
                                                    },
                                         'ShortName' => '~ValueContainer',
                                         'Virt' => 1,
                                         'VirtPos' => '0'
                                       },
                            '21056' => {
                                         'Class' => '20778',
                                         'Constructor' => 1,
                                         'Header' => 'any',
                                         'Line' => '418',
                                         'MnglName' => '_ZN4zeno7reflect3any14ValueContainerIlEC2IlEERKT_PNS0_9TEnableIfIX21VTIsCopyConstructibleIS5_EES5_E4TypeE',
                                         'Param' => {
                                                      '0' => {
                                                               'name' => 'this',
                                                               'type' => '36379'
                                                             },
                                                      '1' => {
                                                               'name' => 'value',
                                                               'type' => '46380'
                                                             },
                                                      '2' => {
                                                               'name' => 'p2',
                                                               'type' => '46390'
                                                             }
                                                    },
                                         'ShortName' => 'ValueContainer<long>',
                                         'TParam' => {
                                                       '0' => {
                                                                'key' => 'U',
                                                                'type' => '10143'
                                                              }
                                                     }
                                       },
                            '21136' => {
                                         'Class' => '21087',
                                         'Const' => 1,
                                         'Header' => 'any',
                                         'InLine' => 2,
                                         'Line' => '426',
                                         'MnglName' => '_ZNK4zeno7reflect3any14ValueContainerIhE4typeEv',
                                         'Param' => {
                                                      '0' => {
                                                               'name' => 'this',
                                                               'type' => '36415'
                                                             }
                                                    },
                                         'Return' => '3697',
                                         'ShortName' => 'type',
                                         'Virt' => 1,
                                         'VirtPos' => '2'
                                       },
                            '21163' => {
                                         'Class' => '21087',
                                         'Const' => 1,
                                         'Header' => 'any',
                                         'InLine' => 2,
                                         'Line' => '430',
                                         'MnglName' => '_ZNK4zeno7reflect3any14ValueContainerIhE7is_typeERKNS0_12RTTITypeInfoE',
                                         'Param' => {
                                                      '0' => {
                                                               'name' => 'this',
                                                               'type' => '36415'
                                                             },
                                                      '1' => {
                                                               'name' => 'other_type',
                                                               'type' => '3697'
                                                             }
                                                    },
                                         'Return' => '3663',
                                         'ShortName' => 'is_type',
                                         'Virt' => 1,
                                         'VirtPos' => '3'
                                       },
                            '21195' => {
                                         'Class' => '21087',
                                         'Const' => 1,
                                         'Header' => 'any',
                                         'InLine' => 2,
                                         'Line' => '438',
                                         'MnglName' => '_ZNK4zeno7reflect3any14ValueContainerIhE17is_convertible_toERKNS0_12RTTITypeInfoE',
                                         'Param' => {
                                                      '0' => {
                                                               'name' => 'this',
                                                               'type' => '36415'
                                                             },
                                                      '1' => {
                                                               'name' => 'other_type',
                                                               'type' => '3697'
                                                             }
                                                    },
                                         'Return' => '1611',
                                         'ShortName' => 'is_convertible_to',
                                         'Virt' => 1,
                                         'VirtPos' => '5'
                                       },
                            '21227' => {
                                         'Class' => '21087',
                                         'Const' => 1,
                                         'Header' => 'any',
                                         'InLine' => 2,
                                         'Line' => '470',
                                         'MnglName' => '_ZNK4zeno7reflect3any14ValueContainerIhE5cloneEv',
                                         'Param' => {
                                                      '0' => {
                                                               'name' => 'this',
                                                               'type' => '36415'
                                                             }
                                                    },
                                         'Return' => '3692',
                                         'ShortName' => 'clone',
                                         'Virt' => 1,
                                         'VirtPos' => '4'
                                       },
                            '2124' => {
                                        'Class' => '1930',
                                        'Const' => 1,
                                        'Header' => 'unique_ptr',
                                        'InLine' => 2,
                                        'Line' => '63',
                                        'MnglName' => '_ZNK4zeno7reflect9UniquePtrINS0_11ISerializerEE7is_nullEv',
                                        'Param' => {
                                                     '0' => {
                                                              'name' => 'this',
                                                              'type' => '5632'
                                                            }
                                                   },
                                        'Return' => '3663',
                                        'ShortName' => 'is_null'
                                      },
                            '21254' => {
                                         'Class' => '21087',
                                         'Const' => 1,
                                         'Header' => 'any',
                                         'InLine' => 2,
                                         'Line' => '478',
                                         'MnglName' => '_ZNK4zeno7reflect3any14ValueContainerIhE19get_data_ptr_unsafeEv',
                                         'Param' => {
                                                      '0' => {
                                                               'name' => 'this',
                                                               'type' => '36415'
                                                             }
                                                    },
                                         'Return' => '5549',
                                         'ShortName' => 'get_data_ptr_unsafe',
                                         'Virt' => 1,
                                         'VirtPos' => '6'
                                       },
                            '21281' => {
                                         'Class' => '21087',
                                         'Header' => 'any',
                                         'InLine' => 2,
                                         'Line' => '482',
                                         'MnglName' => '_ZN4zeno7reflect3any14ValueContainerIhE19is_enable_from_thisEv',
                                         'Param' => {
                                                      '0' => {
                                                               'name' => 'this',
                                                               'type' => '36410'
                                                             }
                                                    },
                                         'Return' => '3663',
                                         'ShortName' => 'is_enable_from_this',
                                         'Virt' => 1,
                                         'VirtPos' => '7'
                                       },
                            '21308' => {
                                         'Class' => '21087',
                                         'Constructor' => 1,
                                         'Header' => 'any',
                                         'Line' => '424',
                                         'MnglName' => '_ZN4zeno7reflect3any14ValueContainerIhEC2IhJRhEEENS0_12TInPlaceTypeIT_EEDpOT0_',
                                         'Param' => {
                                                      '0' => {
                                                               'name' => 'this',
                                                               'type' => '36410'
                                                             },
                                                      '1' => {
                                                               'name' => 'p1',
                                                               'type' => '23645'
                                                             },
                                                      '2' => {
                                                               'name' => 'args',
                                                               'type' => '46459'
                                                             }
                                                    },
                                         'ShortName' => 'ValueContainer<unsigned char, unsigned char&>',
                                         'TParam' => {
                                                       '0' => {
                                                                'key' => 'U',
                                                                'type' => '13032'
                                                              },
                                                       '1' => {
                                                                'key' => undef,
                                                                'type' => '46459'
                                                              }
                                                     }
                                       },
                            '21347' => {
                                         'Artificial' => 1,
                                         'Class' => '21087',
                                         'Destructor' => 1,
                                         'Header' => 'any',
                                         'Line' => '38',
                                         'MnglName' => '_ZN4zeno7reflect3any14ValueContainerIhED0Ev',
                                         'Param' => {
                                                      '0' => {
                                                               'name' => 'this',
                                                               'type' => '36410'
                                                             }
                                                    },
                                         'ShortName' => '~ValueContainer',
                                         'Virt' => 1,
                                         'VirtPos' => '0'
                                       },
                            '21365' => {
                                         'Class' => '21087',
                                         'Constructor' => 1,
                                         'Header' => 'any',
                                         'Line' => '418',
                                         'MnglName' => '_ZN4zeno7reflect3any14ValueContainerIhEC2IhEERKT_PNS0_9TEnableIfIX21VTIsCopyConstructibleIS5_EES5_E4TypeE',
                                         'Param' => {
                                                      '0' => {
                                                               'name' => 'this',
                                                               'type' => '36410'
                                                             },
                                                      '1' => {
                                                               'name' => 'value',
                                                               'type' => '46933'
                                                             },
                                                      '2' => {
                                                               'name' => 'p2',
                                                               'type' => '46943'
                                                             }
                                                    },
                                         'ShortName' => 'ValueContainer<unsigned char>',
                                         'TParam' => {
                                                       '0' => {
                                                                'key' => 'U',
                                                                'type' => '13032'
                                                              }
                                                     }
                                       },
                            '2140' => {
                                        'Class' => '1930',
                                        'Const' => 1,
                                        'Header' => 'unique_ptr',
                                        'InLine' => 2,
                                        'Line' => '65',
                                        'MnglName' => '_ZNK4zeno7reflect9UniquePtrINS0_11ISerializerEEcvbEv',
                                        'Param' => {
                                                     '0' => {
                                                              'name' => 'this',
                                                              'type' => '5632'
                                                            }
                                                   },
                                        'Return' => '3663',
                                        'ShortName' => 'operator bool'
                                      },
                            '21445' => {
                                         'Class' => '21396',
                                         'Const' => 1,
                                         'Header' => 'any',
                                         'InLine' => 2,
                                         'Line' => '426',
                                         'MnglName' => '_ZNK4zeno7reflect3any14ValueContainerItE4typeEv',
                                         'Param' => {
                                                      '0' => {
                                                               'name' => 'this',
                                                               'type' => '36446'
                                                             }
                                                    },
                                         'Return' => '3697',
                                         'ShortName' => 'type',
                                         'Virt' => 1,
                                         'VirtPos' => '2'
                                       },
                            '21472' => {
                                         'Class' => '21396',
                                         'Const' => 1,
                                         'Header' => 'any',
                                         'InLine' => 2,
                                         'Line' => '430',
                                         'MnglName' => '_ZNK4zeno7reflect3any14ValueContainerItE7is_typeERKNS0_12RTTITypeInfoE',
                                         'Param' => {
                                                      '0' => {
                                                               'name' => 'this',
                                                               'type' => '36446'
                                                             },
                                                      '1' => {
                                                               'name' => 'other_type',
                                                               'type' => '3697'
                                                             }
                                                    },
                                         'Return' => '3663',
                                         'ShortName' => 'is_type',
                                         'Virt' => 1,
                                         'VirtPos' => '3'
                                       },
                            '21504' => {
                                         'Class' => '21396',
                                         'Const' => 1,
                                         'Header' => 'any',
                                         'InLine' => 2,
                                         'Line' => '438',
                                         'MnglName' => '_ZNK4zeno7reflect3any14ValueContainerItE17is_convertible_toERKNS0_12RTTITypeInfoE',
                                         'Param' => {
                                                      '0' => {
                                                               'name' => 'this',
                                                               'type' => '36446'
                                                             },
                                                      '1' => {
                                                               'name' => 'other_type',
                                                               'type' => '3697'
                                                             }
                                                    },
                                         'Return' => '1611',
                                         'ShortName' => 'is_convertible_to',
                                         'Virt' => 1,
                                         'VirtPos' => '5'
                                       },
                            '21536' => {
                                         'Class' => '21396',
                                         'Const' => 1,
                                         'Header' => 'any',
                                         'InLine' => 2,
                                         'Line' => '470',
                                         'MnglName' => '_ZNK4zeno7reflect3any14ValueContainerItE5cloneEv',
                                         'Param' => {
                                                      '0' => {
                                                               'name' => 'this',
                                                               'type' => '36446'
                                                             }
                                                    },
                                         'Return' => '3692',
                                         'ShortName' => 'clone',
                                         'Virt' => 1,
                                         'VirtPos' => '4'
                                       },
                            '21563' => {
                                         'Class' => '21396',
                                         'Const' => 1,
                                         'Header' => 'any',
                                         'InLine' => 2,
                                         'Line' => '478',
                                         'MnglName' => '_ZNK4zeno7reflect3any14ValueContainerItE19get_data_ptr_unsafeEv',
                                         'Param' => {
                                                      '0' => {
                                                               'name' => 'this',
                                                               'type' => '36446'
                                                             }
                                                    },
                                         'Return' => '5549',
                                         'ShortName' => 'get_data_ptr_unsafe',
                                         'Virt' => 1,
                                         'VirtPos' => '6'
                                       },
                            '21590' => {
                                         'Class' => '21396',
                                         'Header' => 'any',
                                         'InLine' => 2,
                                         'Line' => '482',
                                         'MnglName' => '_ZN4zeno7reflect3any14ValueContainerItE19is_enable_from_thisEv',
                                         'Param' => {
                                                      '0' => {
                                                               'name' => 'this',
                                                               'type' => '36435'
                                                             }
                                                    },
                                         'Return' => '3663',
                                         'ShortName' => 'is_enable_from_this',
                                         'Virt' => 1,
                                         'VirtPos' => '7'
                                       },
                            '21617' => {
                                         'Class' => '21396',
                                         'Constructor' => 1,
                                         'Header' => 'any',
                                         'Line' => '424',
                                         'MnglName' => '_ZN4zeno7reflect3any14ValueContainerItEC2ItJRtEEENS0_12TInPlaceTypeIT_EEDpOT0_',
                                         'Param' => {
                                                      '0' => {
                                                               'name' => 'this',
                                                               'type' => '36435'
                                                             },
                                                      '1' => {
                                                               'name' => 'p1',
                                                               'type' => '23669'
                                                             },
                                                      '2' => {
                                                               'name' => 'args',
                                                               'type' => '47012'
                                                             }
                                                    },
                                         'ShortName' => 'ValueContainer<unsigned short, unsigned short&>',
                                         'TParam' => {
                                                       '0' => {
                                                                'key' => 'U',
                                                                'type' => '13055'
                                                              },
                                                       '1' => {
                                                                'key' => undef,
                                                                'type' => '47012'
                                                              }
                                                     }
                                       },
                            '21656' => {
                                         'Artificial' => 1,
                                         'Class' => '21396',
                                         'Destructor' => 1,
                                         'Header' => 'any',
                                         'Line' => '38',
                                         'MnglName' => '_ZN4zeno7reflect3any14ValueContainerItED0Ev',
                                         'Param' => {
                                                      '0' => {
                                                               'name' => 'this',
                                                               'type' => '36435'
                                                             }
                                                    },
                                         'ShortName' => '~ValueContainer',
                                         'Virt' => 1,
                                         'VirtPos' => '0'
                                       },
                            '21674' => {
                                         'Class' => '21396',
                                         'Constructor' => 1,
                                         'Header' => 'any',
                                         'Line' => '418',
                                         'MnglName' => '_ZN4zeno7reflect3any14ValueContainerItEC2ItEERKT_PNS0_9TEnableIfIX21VTIsCopyConstructibleIS5_EES5_E4TypeE',
                                         'Param' => {
                                                      '0' => {
                                                               'name' => 'this',
                                                               'type' => '36435'
                                                             },
                                                      '1' => {
                                                               'name' => 'value',
                                                               'type' => '47486'
                                                             },
                                                      '2' => {
                                                               'name' => 'p2',
                                                               'type' => '47496'
                                                             }
                                                    },
                                         'ShortName' => 'ValueContainer<unsigned short>',
                                         'TParam' => {
                                                       '0' => {
                                                                'key' => 'U',
                                                                'type' => '13055'
                                                              }
                                                     }
                                       },
                            '21754' => {
                                         'Class' => '21705',
                                         'Const' => 1,
                                         'Header' => 'any',
                                         'InLine' => 2,
                                         'Line' => '426',
                                         'MnglName' => '_ZNK4zeno7reflect3any14ValueContainerIjE4typeEv',
                                         'Param' => {
                                                      '0' => {
                                                               'name' => 'this',
                                                               'type' => '36471'
                                                             }
                                                    },
                                         'Return' => '3697',
                                         'ShortName' => 'type',
                                         'Virt' => 1,
                                         'VirtPos' => '2'
                                       },
                            '21781' => {
                                         'Class' => '21705',
                                         'Const' => 1,
                                         'Header' => 'any',
                                         'InLine' => 2,
                                         'Line' => '430',
                                         'MnglName' => '_ZNK4zeno7reflect3any14ValueContainerIjE7is_typeERKNS0_12RTTITypeInfoE',
                                         'Param' => {
                                                      '0' => {
                                                               'name' => 'this',
                                                               'type' => '36471'
                                                             },
                                                      '1' => {
                                                               'name' => 'other_type',
                                                               'type' => '3697'
                                                             }
                                                    },
                                         'Return' => '3663',
                                         'ShortName' => 'is_type',
                                         'Virt' => 1,
                                         'VirtPos' => '3'
                                       },
                            '21813' => {
                                         'Class' => '21705',
                                         'Const' => 1,
                                         'Header' => 'any',
                                         'InLine' => 2,
                                         'Line' => '438',
                                         'MnglName' => '_ZNK4zeno7reflect3any14ValueContainerIjE17is_convertible_toERKNS0_12RTTITypeInfoE',
                                         'Param' => {
                                                      '0' => {
                                                               'name' => 'this',
                                                               'type' => '36471'
                                                             },
                                                      '1' => {
                                                               'name' => 'other_type',
                                                               'type' => '3697'
                                                             }
                                                    },
                                         'Return' => '1611',
                                         'ShortName' => 'is_convertible_to',
                                         'Virt' => 1,
                                         'VirtPos' => '5'
                                       },
                            '21845' => {
                                         'Class' => '21705',
                                         'Const' => 1,
                                         'Header' => 'any',
                                         'InLine' => 2,
                                         'Line' => '470',
                                         'MnglName' => '_ZNK4zeno7reflect3any14ValueContainerIjE5cloneEv',
                                         'Param' => {
                                                      '0' => {
                                                               'name' => 'this',
                                                               'type' => '36471'
                                                             }
                                                    },
                                         'Return' => '3692',
                                         'ShortName' => 'clone',
                                         'Virt' => 1,
                                         'VirtPos' => '4'
                                       },
                            '21872' => {
                                         'Class' => '21705',
                                         'Const' => 1,
                                         'Header' => 'any',
                                         'InLine' => 2,
                                         'Line' => '478',
                                         'MnglName' => '_ZNK4zeno7reflect3any14ValueContainerIjE19get_data_ptr_unsafeEv',
                                         'Param' => {
                                                      '0' => {
                                                               'name' => 'this',
                                                               'type' => '36471'
                                                             }
                                                    },
                                         'Return' => '5549',
                                         'ShortName' => 'get_data_ptr_unsafe',
                                         'Virt' => 1,
                                         'VirtPos' => '6'
                                       },
                            '21899' => {
                                         'Class' => '21705',
                                         'Header' => 'any',
                                         'InLine' => 2,
                                         'Line' => '482',
                                         'MnglName' => '_ZN4zeno7reflect3any14ValueContainerIjE19is_enable_from_thisEv',
                                         'Param' => {
                                                      '0' => {
                                                               'name' => 'this',
                                                               'type' => '36466'
                                                             }
                                                    },
                                         'Return' => '3663',
                                         'ShortName' => 'is_enable_from_this',
                                         'Virt' => 1,
                                         'VirtPos' => '7'
                                       },
                            '21926' => {
                                         'Class' => '21705',
                                         'Constructor' => 1,
                                         'Header' => 'any',
                                         'Line' => '424',
                                         'MnglName' => '_ZN4zeno7reflect3any14ValueContainerIjEC2IjJRjEEENS0_12TInPlaceTypeIT_EEDpOT0_',
                                         'Param' => {
                                                      '0' => {
                                                               'name' => 'this',
                                                               'type' => '36466'
                                                             },
                                                      '1' => {
                                                               'name' => 'p1',
                                                               'type' => '23693'
                                                             },
                                                      '2' => {
                                                               'name' => 'args',
                                                               'type' => '47565'
                                                             }
                                                    },
                                         'ShortName' => 'ValueContainer<unsigned int, unsigned int&>',
                                         'TParam' => {
                                                       '0' => {
                                                                'key' => 'U',
                                                                'type' => '5733'
                                                              },
                                                       '1' => {
                                                                'key' => undef,
                                                                'type' => '47565'
                                                              }
                                                     }
                                       },
                            '21965' => {
                                         'Artificial' => 1,
                                         'Class' => '21705',
                                         'Destructor' => 1,
                                         'Header' => 'any',
                                         'Line' => '38',
                                         'MnglName' => '_ZN4zeno7reflect3any14ValueContainerIjED0Ev',
                                         'Param' => {
                                                      '0' => {
                                                               'name' => 'this',
                                                               'type' => '36466'
                                                             }
                                                    },
                                         'ShortName' => '~ValueContainer',
                                         'Virt' => 1,
                                         'VirtPos' => '0'
                                       },
                            '21983' => {
                                         'Class' => '21705',
                                         'Constructor' => 1,
                                         'Header' => 'any',
                                         'Line' => '418',
                                         'MnglName' => '_ZN4zeno7reflect3any14ValueContainerIjEC2IjEERKT_PNS0_9TEnableIfIX21VTIsCopyConstructibleIS5_EES5_E4TypeE',
                                         'Param' => {
                                                      '0' => {
                                                               'name' => 'this',
                                                               'type' => '36466'
                                                             },
                                                      '1' => {
                                                               'name' => 'value',
                                                               'type' => '48039'
                                                             },
                                                      '2' => {
                                                               'name' => 'p2',
                                                               'type' => '48049'
                                                             }
                                                    },
                                         'ShortName' => 'ValueContainer<unsigned int>',
                                         'TParam' => {
                                                       '0' => {
                                                                'key' => 'U',
                                                                'type' => '5733'
                                                              }
                                                     }
                                       },
                            '22063' => {
                                         'Class' => '22014',
                                         'Const' => 1,
                                         'Header' => 'any',
                                         'InLine' => 2,
                                         'Line' => '426',
                                         'MnglName' => '_ZNK4zeno7reflect3any14ValueContainerImE4typeEv',
                                         'Param' => {
                                                      '0' => {
                                                               'name' => 'this',
                                                               'type' => '36496'
                                                             }
                                                    },
                                         'Return' => '3697',
                                         'ShortName' => 'type',
                                         'Virt' => 1,
                                         'VirtPos' => '2'
                                       },
                            '22090' => {
                                         'Class' => '22014',
                                         'Const' => 1,
                                         'Header' => 'any',
                                         'InLine' => 2,
                                         'Line' => '430',
                                         'MnglName' => '_ZNK4zeno7reflect3any14ValueContainerImE7is_typeERKNS0_12RTTITypeInfoE',
                                         'Param' => {
                                                      '0' => {
                                                               'name' => 'this',
                                                               'type' => '36496'
                                                             },
                                                      '1' => {
                                                               'name' => 'other_type',
                                                               'type' => '3697'
                                                             }
                                                    },
                                         'Return' => '3663',
                                         'ShortName' => 'is_type',
                                         'Virt' => 1,
                                         'VirtPos' => '3'
                                       },
                            '22122' => {
                                         'Class' => '22014',
                                         'Const' => 1,
                                         'Header' => 'any',
                                         'InLine' => 2,
                                         'Line' => '438',
                                         'MnglName' => '_ZNK4zeno7reflect3any14ValueContainerImE17is_convertible_toERKNS0_12RTTITypeInfoE',
                                         'Param' => {
                                                      '0' => {
                                                               'name' => 'this',
                                                               'type' => '36496'
                                                             },
                                                      '1' => {
                                                               'name' => 'other_type',
                                                               'type' => '3697'
                                                             }
                                                    },
                                         'Return' => '1611',
                                         'ShortName' => 'is_convertible_to',
                                         'Virt' => 1,
                                         'VirtPos' => '5'
                                       },
                            '22154' => {
                                         'Class' => '22014',
                                         'Const' => 1,
                                         'Header' => 'any',
                                         'InLine' => 2,
                                         'Line' => '470',
                                         'MnglName' => '_ZNK4zeno7reflect3any14ValueContainerImE5cloneEv',
                                         'Param' => {
                                                      '0' => {
                                                               'name' => 'this',
                                                               'type' => '36496'
                                                             }
                                                    },
                                         'Return' => '3692',
                                         'ShortName' => 'clone',
                                         'Virt' => 1,
                                         'VirtPos' => '4'
                                       },
                            '22181' => {
                                         'Class' => '22014',
                                         'Const' => 1,
                                         'Header' => 'any',
                                         'InLine' => 2,
                                         'Line' => '478',
                                         'MnglName' => '_ZNK4zeno7reflect3any14ValueContainerImE19get_data_ptr_unsafeEv',
                                         'Param' => {
                                                      '0' => {
                                                               'name' => 'this',
                                                               'type' => '36496'
                                                             }
                                                    },
                                         'Return' => '5549',
                                         'ShortName' => 'get_data_ptr_unsafe',
                                         'Virt' => 1,
                                         'VirtPos' => '6'
                                       },
                            '22208' => {
                                         'Class' => '22014',
                                         'Header' => 'any',
                                         'InLine' => 2,
                                         'Line' => '482',
                                         'MnglName' => '_ZN4zeno7reflect3any14ValueContainerImE19is_enable_from_thisEv',
                                         'Param' => {
                                                      '0' => {
                                                               'name' => 'this',
                                                               'type' => '36491'
                                                             }
                                                    },
                                         'Return' => '3663',
                                         'ShortName' => 'is_enable_from_this',
                                         'Virt' => 1,
                                         'VirtPos' => '7'
                                       },
                            '22235' => {
                                         'Class' => '22014',
                                         'Constructor' => 1,
                                         'Header' => 'any',
                                         'Line' => '424',
                                         'MnglName' => '_ZN4zeno7reflect3any14ValueContainerImEC2ImJRmEEENS0_12TInPlaceTypeIT_EEDpOT0_',
                                         'Param' => {
                                                      '0' => {
                                                               'name' => 'this',
                                                               'type' => '36491'
                                                             },
                                                      '1' => {
                                                               'name' => 'p1',
                                                               'type' => '23717'
                                                             },
                                                      '2' => {
                                                               'name' => 'args',
                                                               'type' => '48118'
                                                             }
                                                    },
                                         'ShortName' => 'ValueContainer<unsigned long, unsigned long&>',
                                         'TParam' => {
                                                       '0' => {
                                                                'key' => 'U',
                                                                'type' => '3720'
                                                              },
                                                       '1' => {
                                                                'key' => undef,
                                                                'type' => '48118'
                                                              }
                                                     }
                                       },
                            '22274' => {
                                         'Artificial' => 1,
                                         'Class' => '22014',
                                         'Destructor' => 1,
                                         'Header' => 'any',
                                         'Line' => '38',
                                         'MnglName' => '_ZN4zeno7reflect3any14ValueContainerImED0Ev',
                                         'Param' => {
                                                      '0' => {
                                                               'name' => 'this',
                                                               'type' => '36491'
                                                             }
                                                    },
                                         'ShortName' => '~ValueContainer',
                                         'Virt' => 1,
                                         'VirtPos' => '0'
                                       },
                            '22292' => {
                                         'Class' => '22014',
                                         'Constructor' => 1,
                                         'Header' => 'any',
                                         'Line' => '418',
                                         'MnglName' => '_ZN4zeno7reflect3any14ValueContainerImEC2ImEERKT_PNS0_9TEnableIfIX21VTIsCopyConstructibleIS5_EES5_E4TypeE',
                                         'Param' => {
                                                      '0' => {
                                                               'name' => 'this',
                                                               'type' => '36491'
                                                             },
                                                      '1' => {
                                                               'name' => 'value',
                                                               'type' => '48592'
                                                             },
                                                      '2' => {
                                                               'name' => 'p2',
                                                               'type' => '48602'
                                                             }
                                                    },
                                         'ShortName' => 'ValueContainer<unsigned long>',
                                         'TParam' => {
                                                       '0' => {
                                                                'key' => 'U',
                                                                'type' => '3720'
                                                              }
                                                     }
                                       },
                            '22385' => {
                                         'Header' => 'any',
                                         'InLine' => 2,
                                         'Line' => '336',
                                         'MnglName' => '_ZN4zeno7reflect8any_castIiEET_RKNS0_3AnyE',
                                         'NameSpace' => 'zeno::reflect',
                                         'Param' => {
                                                      '0' => {
                                                               'name' => 'operand',
                                                               'type' => '5570'
                                                             }
                                                    },
                                         'Return' => '3688',
                                         'ShortName' => 'any_cast<int>',
                                         'TParam' => {
                                                       '0' => {
                                                                'key' => 'T',
                                                                'type' => '3688'
                                                              }
                                                     }
                                       },
                            '2245' => {
                                        'Class' => '2159',
                                        'Constructor' => 1,
                                        'Header' => 'unique_ptr',
                                        'Line' => '22',
                                        'MnglName' => '_ZN4zeno7reflect9UniquePtrINS0_15IReadableStreamEEC2EOS3_',
                                        'Param' => {
                                                     '0' => {
                                                              'name' => 'this',
                                                              'type' => '5642'
                                                            },
                                                     '1' => {
                                                              'name' => 'moving',
                                                              'type' => '5662'
                                                            }
                                                   },
                                        'ShortName' => 'UniquePtr'
                                      },
                            '22474' => {
                                         'Header' => 'any',
                                         'InLine' => 2,
                                         'Line' => '336',
                                         'MnglName' => '_ZN4zeno7reflect8any_castIfEET_RKNS0_3AnyE',
                                         'NameSpace' => 'zeno::reflect',
                                         'Param' => {
                                                      '0' => {
                                                               'name' => 'operand',
                                                               'type' => '5570'
                                                             }
                                                    },
                                         'Return' => '10085',
                                         'ShortName' => 'any_cast<float>',
                                         'TParam' => {
                                                       '0' => {
                                                                'key' => 'T',
                                                                'type' => '10085'
                                                              }
                                                     }
                                       },
                            '22563' => {
                                         'Header' => 'any',
                                         'InLine' => 2,
                                         'Line' => '336',
                                         'MnglName' => '_ZN4zeno7reflect8any_castIdEET_RKNS0_3AnyE',
                                         'NameSpace' => 'zeno::reflect',
                                         'Param' => {
                                                      '0' => {
                                                               'name' => 'operand',
                                                               'type' => '5570'
                                                             }
                                                    },
                                         'Return' => '10049',
                                         'ShortName' => 'any_cast<double>',
                                         'TParam' => {
                                                       '0' => {
                                                                'key' => 'T',
                                                                'type' => '10049'
                                                              }
                                                     }
                                       },
                            '2261' => {
                                        'Class' => '2159',
                                        'Destructor' => 1,
                                        'Header' => 'unique_ptr',
                                        'Line' => '42',
                                        'MnglName' => '_ZN4zeno7reflect9UniquePtrINS0_15IReadableStreamEED2Ev',
                                        'Param' => {
                                                     '0' => {
                                                              'name' => 'this',
                                                              'type' => '5642'
                                                            }
                                                   },
                                        'ShortName' => '~UniquePtr'
                                      },
                            '22652' => {
                                         'Header' => 'any',
                                         'InLine' => 2,
                                         'Line' => '336',
                                         'MnglName' => '_ZN4zeno7reflect8any_castIcEET_RKNS0_3AnyE',
                                         'NameSpace' => 'zeno::reflect',
                                         'Param' => {
                                                      '0' => {
                                                               'name' => 'operand',
                                                               'type' => '5570'
                                                             }
                                                    },
                                         'Return' => '70',
                                         'ShortName' => 'any_cast<char>',
                                         'TParam' => {
                                                       '0' => {
                                                                'key' => 'T',
                                                                'type' => '70'
                                                              }
                                                     }
                                       },
                            '22741' => {
                                         'Header' => 'any',
                                         'InLine' => 2,
                                         'Line' => '336',
                                         'MnglName' => '_ZN4zeno7reflect8any_castIRNSt7__cxx1112basic_stringIcSt11char_traitsIcESaIcEEEEET_RKNS0_3AnyE',
                                         'NameSpace' => 'zeno::reflect',
                                         'Param' => {
                                                      '0' => {
                                                               'name' => 'operand',
                                                               'type' => '5570'
                                                             }
                                                    },
                                         'Return' => '35946',
                                         'ShortName' => 'any_cast<std::__cxx11::basic_string<char>&>',
                                         'TParam' => {
                                                       '0' => {
                                                                'key' => 'T',
                                                                'type' => '35946'
                                                              }
                                                     }
                                       },
                            '22830' => {
                                         'Header' => 'any',
                                         'InLine' => 2,
                                         'Line' => '336',
                                         'MnglName' => '_ZN4zeno7reflect8any_castIaEET_RKNS0_3AnyE',
                                         'NameSpace' => 'zeno::reflect',
                                         'Param' => {
                                                      '0' => {
                                                               'name' => 'operand',
                                                               'type' => '5570'
                                                             }
                                                    },
                                         'Return' => '12815',
                                         'ShortName' => 'any_cast<signed char>',
                                         'TParam' => {
                                                       '0' => {
                                                                'key' => 'T',
                                                                'type' => '12815'
                                                              }
                                                     }
                                       },
                            '2288' => {
                                        'Class' => '2159',
                                        'Const' => 1,
                                        'Header' => 'unique_ptr',
                                        'InLine' => 2,
                                        'Line' => '47',
                                        'MnglName' => '_ZNK4zeno7reflect9UniquePtrINS0_15IReadableStreamEEptEv',
                                        'Param' => {
                                                     '0' => {
                                                              'name' => 'this',
                                                              'type' => '5672'
                                                            }
                                                   },
                                        'Return' => '5637',
                                        'ShortName' => 'operator->'
                                      },
                            '22919' => {
                                         'Header' => 'any',
                                         'InLine' => 2,
                                         'Line' => '336',
                                         'MnglName' => '_ZN4zeno7reflect8any_castIsEET_RKNS0_3AnyE',
                                         'NameSpace' => 'zeno::reflect',
                                         'Param' => {
                                                      '0' => {
                                                               'name' => 'operand',
                                                               'type' => '5570'
                                                             }
                                                    },
                                         'Return' => '12838',
                                         'ShortName' => 'any_cast<short>',
                                         'TParam' => {
                                                       '0' => {
                                                                'key' => 'T',
                                                                'type' => '12838'
                                                              }
                                                     }
                                       },
                            '23008' => {
                                         'Header' => 'any',
                                         'InLine' => 2,
                                         'Line' => '336',
                                         'MnglName' => '_ZN4zeno7reflect8any_castIlEET_RKNS0_3AnyE',
                                         'NameSpace' => 'zeno::reflect',
                                         'Param' => {
                                                      '0' => {
                                                               'name' => 'operand',
                                                               'type' => '5570'
                                                             }
                                                    },
                                         'Return' => '10143',
                                         'ShortName' => 'any_cast<long>',
                                         'TParam' => {
                                                       '0' => {
                                                                'key' => 'T',
                                                                'type' => '10143'
                                                              }
                                                     }
                                       },
                            '23097' => {
                                         'Header' => 'any',
                                         'InLine' => 2,
                                         'Line' => '336',
                                         'MnglName' => '_ZN4zeno7reflect8any_castIhEET_RKNS0_3AnyE',
                                         'NameSpace' => 'zeno::reflect',
                                         'Param' => {
                                                      '0' => {
                                                               'name' => 'operand',
                                                               'type' => '5570'
                                                             }
                                                    },
                                         'Return' => '13032',
                                         'ShortName' => 'any_cast<unsigned char>',
                                         'TParam' => {
                                                       '0' => {
                                                                'key' => 'T',
                                                                'type' => '13032'
                                                              }
                                                     }
                                       },
                            '23186' => {
                                         'Header' => 'any',
                                         'InLine' => 2,
                                         'Line' => '336',
                                         'MnglName' => '_ZN4zeno7reflect8any_castItEET_RKNS0_3AnyE',
                                         'NameSpace' => 'zeno::reflect',
                                         'Param' => {
                                                      '0' => {
                                                               'name' => 'operand',
                                                               'type' => '5570'
                                                             }
                                                    },
                                         'Return' => '13055',
                                         'ShortName' => 'any_cast<unsigned short>',
                                         'TParam' => {
                                                       '0' => {
                                                                'key' => 'T',
                                                                'type' => '13055'
                                                              }
                                                     }
                                       },
                            '23275' => {
                                         'Header' => 'any',
                                         'InLine' => 2,
                                         'Line' => '336',
                                         'MnglName' => '_ZN4zeno7reflect8any_castIjEET_RKNS0_3AnyE',
                                         'NameSpace' => 'zeno::reflect',
                                         'Param' => {
                                                      '0' => {
                                                               'name' => 'operand',
                                                               'type' => '5570'
                                                             }
                                                    },
                                         'Return' => '5733',
                                         'ShortName' => 'any_cast<unsigned int>',
                                         'TParam' => {
                                                       '0' => {
                                                                'key' => 'T',
                                                                'type' => '5733'
                                                              }
                                                     }
                                       },
                            '23364' => {
                                         'Header' => 'any',
                                         'InLine' => 2,
                                         'Line' => '336',
                                         'MnglName' => '_ZN4zeno7reflect8any_castImEET_RKNS0_3AnyE',
                                         'NameSpace' => 'zeno::reflect',
                                         'Param' => {
                                                      '0' => {
                                                               'name' => 'operand',
                                                               'type' => '5570'
                                                             }
                                                    },
                                         'Return' => '3720',
                                         'ShortName' => 'any_cast<unsigned long>',
                                         'TParam' => {
                                                       '0' => {
                                                                'key' => 'T',
                                                                'type' => '3720'
                                                              }
                                                     }
                                       },
                            '2353' => {
                                        'Class' => '2159',
                                        'Const' => 1,
                                        'Header' => 'unique_ptr',
                                        'InLine' => 2,
                                        'Line' => '63',
                                        'MnglName' => '_ZNK4zeno7reflect9UniquePtrINS0_15IReadableStreamEE7is_nullEv',
                                        'Param' => {
                                                     '0' => {
                                                              'name' => 'this',
                                                              'type' => '5672'
                                                            }
                                                   },
                                        'Return' => '3663',
                                        'ShortName' => 'is_null'
                                      },
                            '2369' => {
                                        'Class' => '2159',
                                        'Const' => 1,
                                        'Header' => 'unique_ptr',
                                        'InLine' => 2,
                                        'Line' => '65',
                                        'MnglName' => '_ZNK4zeno7reflect9UniquePtrINS0_15IReadableStreamEEcvbEv',
                                        'Param' => {
                                                     '0' => {
                                                              'name' => 'this',
                                                              'type' => '5672'
                                                            }
                                                   },
                                        'Return' => '3663',
                                        'ShortName' => 'operator bool'
                                      },
                            '23990' => {
                                         'Class' => '1930',
                                         'Constructor' => 1,
                                         'Header' => 'unique_ptr',
                                         'Line' => '27',
                                         'MnglName' => '_ZN4zeno7reflect9UniquePtrINS0_11ISerializerEEC2INS0_23DefaultBinarySerializerEEEONS1_IT_EE',
                                         'Param' => {
                                                      '0' => {
                                                               'name' => 'this',
                                                               'type' => '5600'
                                                             },
                                                      '1' => {
                                                               'name' => 'other',
                                                               'type' => '36113'
                                                             }
                                                    },
                                         'ShortName' => 'UniquePtr<zeno::reflect::DefaultBinarySerializer>',
                                         'TParam' => {
                                                       '0' => {
                                                                'key' => 'U',
                                                                'type' => '15252'
                                                              }
                                                     }
                                       },
                            '24015' => {
                                         'Line' => '259',
                                         'MnglName' => '_ZN4zeno7reflect25create_default_serializerEv',
                                         'NameSpace' => 'zeno::reflect',
                                         'Return' => '1930',
                                         'ShortName' => 'create_default_serializer',
                                         'Source' => 'binary_serialization.cpp'
                                       },
                            '24034' => {
                                         'Header' => 'unique_ptr',
                                         'InLine' => 2,
                                         'Line' => '78',
                                         'MnglName' => '_ZN4zeno7reflect11make_uniqueINS0_23DefaultBinarySerializerEJEEENS0_9UniquePtrIT_EEDpOT0_',
                                         'NameSpace' => 'zeno::reflect',
                                         'Return' => '14978',
                                         'ShortName' => 'make_unique<zeno::reflect::DefaultBinarySerializer>',
                                         'TParam' => {
                                                       '0' => {
                                                                'key' => 'T',
                                                                'type' => '15252'
                                                              }
                                                     }
                                       },
                            '24078' => {
                                         'Header' => 'reference.hpp',
                                         'InLine' => 2,
                                         'Line' => '32',
                                         'MnglName' => '_ZN4zeno7reflect7forwardIRfEEOT_RNS0_16TRemoveReferenceIS3_E4TypeE',
                                         'NameSpace' => 'zeno::reflect',
                                         'Param' => {
                                                      '0' => {
                                                               'name' => 'v',
                                                               'type' => '55959'
                                                             }
                                                    },
                                         'Return' => '39771',
                                         'ShortName' => 'forward<float&>',
                                         'TParam' => {
                                                       '0' => {
                                                                'key' => 'T',
                                                                'type' => '39771'
                                                              }
                                                     }
                                       },
                            '24196' => {
                                         'Header' => 'reference.hpp',
                                         'InLine' => 2,
                                         'Line' => '32',
                                         'MnglName' => '_ZN4zeno7reflect7forwardIRdEEOT_RNS0_16TRemoveReferenceIS3_E4TypeE',
                                         'NameSpace' => 'zeno::reflect',
                                         'Param' => {
                                                      '0' => {
                                                               'name' => 'v',
                                                               'type' => '55969'
                                                             }
                                                    },
                                         'Return' => '40618',
                                         'ShortName' => 'forward<double&>',
                                         'TParam' => {
                                                       '0' => {
                                                                'key' => 'T',
                                                                'type' => '40618'
                                                              }
                                                     }
                                       },
                            '24276' => {
                                         'Header' => 'reference.hpp',
                                         'InLine' => 2,
                                         'Line' => '32',
                                         'MnglName' => '_ZN4zeno7reflect7forwardIRcEEOT_RNS0_16TRemoveReferenceIS3_E4TypeE',
                                         'NameSpace' => 'zeno::reflect',
                                         'Param' => {
                                                      '0' => {
                                                               'name' => 'v',
                                                               'type' => '55979'
                                                             }
                                                    },
                                         'Return' => '41171',
                                         'ShortName' => 'forward<char&>',
                                         'TParam' => {
                                                       '0' => {
                                                                'key' => 'T',
                                                                'type' => '41171'
                                                              }
                                                     }
                                       },
                            '24356' => {
                                         'Header' => 'reference.hpp',
                                         'InLine' => 2,
                                         'Line' => '32',
                                         'MnglName' => '_ZN4zeno7reflect7forwardIRNSt7__cxx1112basic_stringIcSt11char_traitsIcESaIcEEEEEOT_RNS0_16TRemoveReferenceIS9_E4TypeE',
                                         'NameSpace' => 'zeno::reflect',
                                         'Param' => {
                                                      '0' => {
                                                               'name' => 'v',
                                                               'type' => '55999'
                                                             }
                                                    },
                                         'Return' => '35946',
                                         'ShortName' => 'forward<std::__cxx11::basic_string<char>&>',
                                         'TParam' => {
                                                       '0' => {
                                                                'key' => 'T',
                                                                'type' => '35946'
                                                              }
                                                     }
                                       },
                            '24436' => {
                                         'Header' => 'reference.hpp',
                                         'InLine' => 2,
                                         'Line' => '32',
                                         'MnglName' => '_ZN4zeno7reflect7forwardIRaEEOT_RNS0_16TRemoveReferenceIS3_E4TypeE',
                                         'NameSpace' => 'zeno::reflect',
                                         'Param' => {
                                                      '0' => {
                                                               'name' => 'v',
                                                               'type' => '56014'
                                                             }
                                                    },
                                         'Return' => '44247',
                                         'ShortName' => 'forward<signed char&>',
                                         'TParam' => {
                                                       '0' => {
                                                                'key' => 'T',
                                                                'type' => '44247'
                                                              }
                                                     }
                                       },
                            '24516' => {
                                         'Header' => 'reference.hpp',
                                         'InLine' => 2,
                                         'Line' => '32',
                                         'MnglName' => '_ZN4zeno7reflect7forwardIRsEEOT_RNS0_16TRemoveReferenceIS3_E4TypeE',
                                         'NameSpace' => 'zeno::reflect',
                                         'Param' => {
                                                      '0' => {
                                                               'name' => 'v',
                                                               'type' => '56024'
                                                             }
                                                    },
                                         'Return' => '44800',
                                         'ShortName' => 'forward<short&>',
                                         'TParam' => {
                                                       '0' => {
                                                                'key' => 'T',
                                                                'type' => '44800'
                                                              }
                                                     }
                                       },
                            '24596' => {
                                         'Header' => 'reference.hpp',
                                         'InLine' => 2,
                                         'Line' => '32',
                                         'MnglName' => '_ZN4zeno7reflect7forwardIRiEEOT_RNS0_16TRemoveReferenceIS3_E4TypeE',
                                         'NameSpace' => 'zeno::reflect',
                                         'Param' => {
                                                      '0' => {
                                                               'name' => 'v',
                                                               'type' => '56034'
                                                             }
                                                    },
                                         'Return' => '45353',
                                         'ShortName' => 'forward<int&>',
                                         'TParam' => {
                                                       '0' => {
                                                                'key' => 'T',
                                                                'type' => '45353'
                                                              }
                                                     }
                                       },
                            '24676' => {
                                         'Header' => 'reference.hpp',
                                         'InLine' => 2,
                                         'Line' => '32',
                                         'MnglName' => '_ZN4zeno7reflect7forwardIRlEEOT_RNS0_16TRemoveReferenceIS3_E4TypeE',
                                         'NameSpace' => 'zeno::reflect',
                                         'Param' => {
                                                      '0' => {
                                                               'name' => 'v',
                                                               'type' => '56044'
                                                             }
                                                    },
                                         'Return' => '45906',
                                         'ShortName' => 'forward<long&>',
                                         'TParam' => {
                                                       '0' => {
                                                                'key' => 'T',
                                                                'type' => '45906'
                                                              }
                                                     }
                                       },
                            '2474' => {
                                        'Class' => '2388',
                                        'Constructor' => 1,
                                        'Header' => 'unique_ptr',
                                        'Line' => '22',
                                        'MnglName' => '_ZN4zeno7reflect9UniquePtrINS0_15IWritableStreamEEC2EOS3_',
                                        'Param' => {
                                                     '0' => {
                                                              'name' => 'this',
                                                              'type' => '5682'
                                                            },
                                                     '1' => {
                                                              'name' => 'moving',
                                                              'type' => '5702'
                                                            }
                                                   },
                                        'ShortName' => 'UniquePtr'
                                      },
                            '24756' => {
                                         'Header' => 'reference.hpp',
                                         'InLine' => 2,
                                         'Line' => '32',
                                         'MnglName' => '_ZN4zeno7reflect7forwardIRhEEOT_RNS0_16TRemoveReferenceIS3_E4TypeE',
                                         'NameSpace' => 'zeno::reflect',
                                         'Param' => {
                                                      '0' => {
                                                               'name' => 'v',
                                                               'type' => '56054'
                                                             }
                                                    },
                                         'Return' => '46459',
                                         'ShortName' => 'forward<unsigned char&>',
                                         'TParam' => {
                                                       '0' => {
                                                                'key' => 'T',
                                                                'type' => '46459'
                                                              }
                                                     }
                                       },
                            '24836' => {
                                         'Header' => 'reference.hpp',
                                         'InLine' => 2,
                                         'Line' => '32',
                                         'MnglName' => '_ZN4zeno7reflect7forwardIRtEEOT_RNS0_16TRemoveReferenceIS3_E4TypeE',
                                         'NameSpace' => 'zeno::reflect',
                                         'Param' => {
                                                      '0' => {
                                                               'name' => 'v',
                                                               'type' => '56064'
                                                             }
                                                    },
                                         'Return' => '47012',
                                         'ShortName' => 'forward<unsigned short&>',
                                         'TParam' => {
                                                       '0' => {
                                                                'key' => 'T',
                                                                'type' => '47012'
                                                              }
                                                     }
                                       },
                            '2490' => {
                                        'Class' => '2388',
                                        'Destructor' => 1,
                                        'Header' => 'unique_ptr',
                                        'Line' => '42',
                                        'MnglName' => '_ZN4zeno7reflect9UniquePtrINS0_15IWritableStreamEED2Ev',
                                        'Param' => {
                                                     '0' => {
                                                              'name' => 'this',
                                                              'type' => '5682'
                                                            }
                                                   },
                                        'ShortName' => '~UniquePtr'
                                      },
                            '24916' => {
                                         'Header' => 'reference.hpp',
                                         'InLine' => 2,
                                         'Line' => '32',
                                         'MnglName' => '_ZN4zeno7reflect7forwardIRjEEOT_RNS0_16TRemoveReferenceIS3_E4TypeE',
                                         'NameSpace' => 'zeno::reflect',
                                         'Param' => {
                                                      '0' => {
                                                               'name' => 'v',
                                                               'type' => '56074'
                                                             }
                                                    },
                                         'Return' => '47565',
                                         'ShortName' => 'forward<unsigned int&>',
                                         'TParam' => {
                                                       '0' => {
                                                                'key' => 'T',
                                                                'type' => '47565'
                                                              }
                                                     }
                                       },
                            '24996' => {
                                         'Header' => 'reference.hpp',
                                         'InLine' => 2,
                                         'Line' => '32',
                                         'MnglName' => '_ZN4zeno7reflect7forwardIRmEEOT_RNS0_16TRemoveReferenceIS3_E4TypeE',
                                         'NameSpace' => 'zeno::reflect',
                                         'Param' => {
                                                      '0' => {
                                                               'name' => 'v',
                                                               'type' => '56084'
                                                             }
                                                    },
                                         'Return' => '48118',
                                         'ShortName' => 'forward<unsigned long&>',
                                         'TParam' => {
                                                       '0' => {
                                                                'key' => 'T',
                                                                'type' => '48118'
                                                              }
                                                     }
                                       },
                            '2517' => {
                                        'Class' => '2388',
                                        'Const' => 1,
                                        'Header' => 'unique_ptr',
                                        'InLine' => 2,
                                        'Line' => '47',
                                        'MnglName' => '_ZNK4zeno7reflect9UniquePtrINS0_15IWritableStreamEEptEv',
                                        'Param' => {
                                                     '0' => {
                                                              'name' => 'this',
                                                              'type' => '5712'
                                                            }
                                                   },
                                        'Return' => '5677',
                                        'ShortName' => 'operator->'
                                      },
                            '25625' => {
                                         'Class' => '25604',
                                         'Constructor' => 1,
                                         'Header' => 'basic_string.h',
                                         'Line' => '193',
                                         'MnglName' => '_ZNSt7__cxx1112basic_stringIcSt11char_traitsIcESaIcEE12_Alloc_hiderC2EPcRKS3_',
                                         'Param' => {
                                                      '0' => {
                                                               'name' => 'this',
                                                               'type' => '35820'
                                                             },
                                                      '1' => {
                                                               'name' => '__dat',
                                                               'type' => '25692'
                                                             },
                                                      '2' => {
                                                               'name' => '__a',
                                                               'type' => '35466'
                                                             }
                                                    },
                                         'ShortName' => '_Alloc_hider'
                                       },
                            '25645' => {
                                         'Class' => '25604',
                                         'Constructor' => 1,
                                         'Header' => 'basic_string.h',
                                         'Line' => '197',
                                         'MnglName' => '_ZNSt7__cxx1112basic_stringIcSt11char_traitsIcESaIcEE12_Alloc_hiderC2EPcOS3_',
                                         'Param' => {
                                                      '0' => {
                                                               'name' => 'this',
                                                               'type' => '35820'
                                                             },
                                                      '1' => {
                                                               'name' => '__dat',
                                                               'type' => '25692'
                                                             },
                                                      '2' => {
                                                               'name' => '__a',
                                                               'type' => '35825'
                                                             }
                                                    },
                                         'ShortName' => '_Alloc_hider'
                                       },
                            '25665' => {
                                         'Artificial' => 1,
                                         'Class' => '25604',
                                         'Destructor' => 1,
                                         'Header' => 'basic_string.h',
                                         'Line' => '186',
                                         'MnglName' => '_ZNSt7__cxx1112basic_stringIcSt11char_traitsIcESaIcEE12_Alloc_hiderD2Ev',
                                         'Param' => {
                                                      '0' => {
                                                               'name' => 'this',
                                                               'type' => '35820'
                                                             }
                                                    },
                                         'ShortName' => '~_Alloc_hider'
                                       },
                            '25742' => {
                                         'Class' => '25542',
                                         'Header' => 'basic_string.h',
                                         'InLine' => 2,
                                         'Line' => '129',
                                         'MnglName' => '_ZNSt7__cxx1112basic_stringIcSt11char_traitsIcESaIcEE11_S_allocateERS3_m',
                                         'Param' => {
                                                      '0' => {
                                                               'name' => '__a',
                                                               'type' => '35842'
                                                             },
                                                      '1' => {
                                                               'name' => '__n',
                                                               'type' => '25586'
                                                             }
                                                    },
                                         'Private' => 1,
                                         'Return' => '25692',
                                         'ShortName' => '_S_allocate',
                                         'Static' => 1
                                       },
                            '25762' => {
                                         'Class' => '25542',
                                         'Header' => 'basic_string.h',
                                         'InLine' => 2,
                                         'Line' => '158',
                                         'MnglName' => '_ZNSt7__cxx1112basic_stringIcSt11char_traitsIcESaIcEE17_S_to_string_viewESt17basic_string_viewIcS2_E',
                                         'Param' => {
                                                      '0' => {
                                                               'name' => '__svt',
                                                               'type' => '25777'
                                                             }
                                                    },
                                         'Private' => 1,
                                         'Return' => '25777',
                                         'ShortName' => '_S_to_string_view',
                                         'Static' => 1
                                       },
                            '25807' => {
                                         'Class' => '25542',
                                         'Header' => 'basic_string.h',
                                         'InLine' => 2,
                                         'Line' => '217',
                                         'MnglName' => '_ZNSt7__cxx1112basic_stringIcSt11char_traitsIcESaIcEE7_M_dataEPc',
                                         'Param' => {
                                                      '0' => {
                                                               'name' => 'this',
                                                               'type' => '35901'
                                                             },
                                                      '1' => {
                                                               'name' => '__p',
                                                               'type' => '25692'
                                                             }
                                                    },
                                         'Private' => 1,
                                         'Return' => '1',
                                         'ShortName' => '_M_data'
                                       },
                            '2582' => {
                                        'Class' => '2388',
                                        'Const' => 1,
                                        'Header' => 'unique_ptr',
                                        'InLine' => 2,
                                        'Line' => '63',
                                        'MnglName' => '_ZNK4zeno7reflect9UniquePtrINS0_15IWritableStreamEE7is_nullEv',
                                        'Param' => {
                                                     '0' => {
                                                              'name' => 'this',
                                                              'type' => '5712'
                                                            }
                                                   },
                                        'Return' => '3663',
                                        'ShortName' => 'is_null'
                                      },
                            '25823' => {
                                         'Class' => '25542',
                                         'Header' => 'basic_string.h',
                                         'InLine' => 2,
                                         'Line' => '222',
                                         'MnglName' => '_ZNSt7__cxx1112basic_stringIcSt11char_traitsIcESaIcEE9_M_lengthEm',
                                         'Param' => {
                                                      '0' => {
                                                               'name' => 'this',
                                                               'type' => '35901'
                                                             },
                                                      '1' => {
                                                               'name' => '__length',
                                                               'type' => '25586'
                                                             }
                                                    },
                                         'Private' => 1,
                                         'Return' => '1',
                                         'ShortName' => '_M_length'
                                       },
                            '25839' => {
                                         'Class' => '25542',
                                         'Const' => 1,
                                         'Header' => 'basic_string.h',
                                         'InLine' => 2,
                                         'Line' => '227',
                                         'MnglName' => '_ZNKSt7__cxx1112basic_stringIcSt11char_traitsIcESaIcEE7_M_dataEv',
                                         'Param' => {
                                                      '0' => {
                                                               'name' => 'this',
                                                               'type' => '35906'
                                                             }
                                                    },
                                         'Private' => 1,
                                         'Return' => '25692',
                                         'ShortName' => '_M_data'
                                       },
                            '25854' => {
                                         'Class' => '25542',
                                         'Header' => 'basic_string.h',
                                         'InLine' => 2,
                                         'Line' => '232',
                                         'MnglName' => '_ZNSt7__cxx1112basic_stringIcSt11char_traitsIcESaIcEE13_M_local_dataEv',
                                         'Param' => {
                                                      '0' => {
                                                               'name' => 'this',
                                                               'type' => '35901'
                                                             }
                                                    },
                                         'Private' => 1,
                                         'Return' => '25692',
                                         'ShortName' => '_M_local_data'
                                       },
                            '25869' => {
                                         'Class' => '25542',
                                         'Const' => 1,
                                         'Header' => 'basic_string.h',
                                         'InLine' => 2,
                                         'Line' => '243',
                                         'MnglName' => '_ZNKSt7__cxx1112basic_stringIcSt11char_traitsIcESaIcEE13_M_local_dataEv',
                                         'Param' => {
                                                      '0' => {
                                                               'name' => 'this',
                                                               'type' => '35906'
                                                             }
                                                    },
                                         'Private' => 1,
                                         'Return' => '25884',
                                         'ShortName' => '_M_local_data'
                                       },
                            '25893' => {
                                         'Class' => '25542',
                                         'Header' => 'basic_string.h',
                                         'InLine' => 2,
                                         'Line' => '254',
                                         'MnglName' => '_ZNSt7__cxx1112basic_stringIcSt11char_traitsIcESaIcEE11_M_capacityEm',
                                         'Param' => {
                                                      '0' => {
                                                               'name' => 'this',
                                                               'type' => '35901'
                                                             },
                                                      '1' => {
                                                               'name' => '__capacity',
                                                               'type' => '25586'
                                                             }
                                                    },
                                         'Private' => 1,
                                         'Return' => '1',
                                         'ShortName' => '_M_capacity'
                                       },
                            '25909' => {
                                         'Class' => '25542',
                                         'Header' => 'basic_string.h',
                                         'InLine' => 2,
                                         'Line' => '259',
                                         'MnglName' => '_ZNSt7__cxx1112basic_stringIcSt11char_traitsIcESaIcEE13_M_set_lengthEm',
                                         'Param' => {
                                                      '0' => {
                                                               'name' => 'this',
                                                               'type' => '35901'
                                                             },
                                                      '1' => {
                                                               'name' => '__n',
                                                               'type' => '25586'
                                                             }
                                                    },
                                         'Private' => 1,
                                         'Return' => '1',
                                         'ShortName' => '_M_set_length'
                                       },
                            '25926' => {
                                         'Class' => '25542',
                                         'Const' => 1,
                                         'Header' => 'basic_string.h',
                                         'InLine' => 2,
                                         'Line' => '267',
                                         'MnglName' => '_ZNKSt7__cxx1112basic_stringIcSt11char_traitsIcESaIcEE11_M_is_localEv',
                                         'Param' => {
                                                      '0' => {
                                                               'name' => 'this',
                                                               'type' => '35906'
                                                             }
                                                    },
                                         'Private' => 1,
                                         'Return' => '3663',
                                         'ShortName' => '_M_is_local'
                                       },
                            '25944' => {
                                         'Class' => '25542',
                                         'Header' => 'basic_string.tcc',
                                         'InLine' => 2,
                                         'Line' => '139',
                                         'MnglName' => '_ZNSt7__cxx1112basic_stringIcSt11char_traitsIcESaIcEE9_M_createERmm',
                                         'Param' => {
                                                      '0' => {
                                                               'name' => 'this',
                                                               'type' => '35901'
                                                             },
                                                      '1' => {
                                                               'name' => '__capacity',
                                                               'type' => '35916'
                                                             },
                                                      '2' => {
                                                               'name' => '__old_capacity',
                                                               'type' => '25586'
                                                             }
                                                    },
                                         'Private' => 1,
                                         'Return' => '25692',
                                         'ShortName' => '_M_create'
                                       },
                            '25971' => {
                                         'Class' => '25542',
                                         'Header' => 'basic_string.h',
                                         'InLine' => 2,
                                         'Line' => '285',
                                         'MnglName' => '_ZNSt7__cxx1112basic_stringIcSt11char_traitsIcESaIcEE10_M_disposeEv',
                                         'Param' => {
                                                      '0' => {
                                                               'name' => 'this',
                                                               'type' => '35901'
                                                             }
                                                    },
                                         'Private' => 1,
                                         'Return' => '1',
                                         'ShortName' => '_M_dispose'
                                       },
                            '2598' => {
                                        'Class' => '2388',
                                        'Const' => 1,
                                        'Header' => 'unique_ptr',
                                        'InLine' => 2,
                                        'Line' => '65',
                                        'MnglName' => '_ZNK4zeno7reflect9UniquePtrINS0_15IWritableStreamEEcvbEv',
                                        'Param' => {
                                                     '0' => {
                                                              'name' => 'this',
                                                              'type' => '5712'
                                                            }
                                                   },
                                        'Return' => '3663',
                                        'ShortName' => 'operator bool'
                                      },
                            '25985' => {
                                         'Class' => '25542',
                                         'Header' => 'basic_string.h',
                                         'InLine' => 2,
                                         'Line' => '293',
                                         'MnglName' => '_ZNSt7__cxx1112basic_stringIcSt11char_traitsIcESaIcEE10_M_destroyEm',
                                         'Param' => {
                                                      '0' => {
                                                               'name' => 'this',
                                                               'type' => '35901'
                                                             },
                                                      '1' => {
                                                               'name' => '__size',
                                                               'type' => '25586'
                                                             }
                                                    },
                                         'Private' => 1,
                                         'Return' => '1',
                                         'ShortName' => '_M_destroy'
                                       },
                            '26004' => {
                                         'Class' => '25542',
                                         'Header' => 'basic_string.tcc',
                                         'InLine' => 2,
                                         'Line' => '258',
                                         'MnglName' => '_ZNSt7__cxx1112basic_stringIcSt11char_traitsIcESaIcEE12_M_constructEmc',
                                         'Param' => {
                                                      '0' => {
                                                               'name' => 'this',
                                                               'type' => '35901'
                                                             },
                                                      '1' => {
                                                               'name' => '__n',
                                                               'type' => '25586'
                                                             },
                                                      '2' => {
                                                               'name' => '__c',
                                                               'type' => '70'
                                                             }
                                                    },
                                         'Private' => 1,
                                         'Return' => '1',
                                         'ShortName' => '_M_construct'
                                       },
                            '26028' => {
                                         'Class' => '25542',
                                         'Header' => 'basic_string.h',
                                         'InLine' => 2,
                                         'Line' => '341',
                                         'MnglName' => '_ZNSt7__cxx1112basic_stringIcSt11char_traitsIcESaIcEE16_M_get_allocatorEv',
                                         'Param' => {
                                                      '0' => {
                                                               'name' => 'this',
                                                               'type' => '35901'
                                                             }
                                                    },
                                         'Private' => 1,
                                         'Return' => '35921',
                                         'ShortName' => '_M_get_allocator'
                                       },
                            '26046' => {
                                         'Class' => '25542',
                                         'Const' => 1,
                                         'Header' => 'basic_string.h',
                                         'InLine' => 2,
                                         'Line' => '346',
                                         'MnglName' => '_ZNKSt7__cxx1112basic_stringIcSt11char_traitsIcESaIcEE16_M_get_allocatorEv',
                                         'Param' => {
                                                      '0' => {
                                                               'name' => 'this',
                                                               'type' => '35906'
                                                             }
                                                    },
                                         'Private' => 1,
                                         'Return' => '35926',
                                         'ShortName' => '_M_get_allocator'
                                       },
                            '26124' => {
                                         'Class' => '25542',
                                         'Const' => 1,
                                         'Header' => 'basic_string.h',
                                         'InLine' => 2,
                                         'Line' => '402',
                                         'MnglName' => '_ZNKSt7__cxx1112basic_stringIcSt11char_traitsIcESaIcEE15_M_check_lengthEmmPKc',
                                         'Param' => {
                                                      '0' => {
                                                               'name' => 'this',
                                                               'type' => '35906'
                                                             },
                                                      '1' => {
                                                               'name' => '__n1',
                                                               'type' => '25586'
                                                             },
                                                      '2' => {
                                                               'name' => '__n2',
                                                               'type' => '25586'
                                                             },
                                                      '3' => {
                                                               'name' => '__s',
                                                               'type' => '3707'
                                                             }
                                                    },
                                         'Private' => 1,
                                         'Return' => '1',
                                         'ShortName' => '_M_check_length'
                                       },
                            '26204' => {
                                         'Class' => '25542',
                                         'Header' => 'basic_string.h',
                                         'InLine' => 2,
                                         'Line' => '430',
                                         'MnglName' => '_ZNSt7__cxx1112basic_stringIcSt11char_traitsIcESaIcEE7_S_copyEPcPKcm',
                                         'Param' => {
                                                      '0' => {
                                                               'name' => '__d',
                                                               'type' => '9723'
                                                             },
                                                      '1' => {
                                                               'name' => '__s',
                                                               'type' => '3707'
                                                             },
                                                      '2' => {
                                                               'name' => '__n',
                                                               'type' => '25586'
                                                             }
                                                    },
                                         'Private' => 1,
                                         'Return' => '1',
                                         'ShortName' => '_S_copy',
                                         'Static' => 1
                                       },
                            '2621' => {
                                        'Class' => '2619',
                                        'Header' => 'type.hpp',
                                        'InLine' => 2,
                                        'Line' => '76',
                                        'MnglName' => '_ZN4zeno7reflect10TypeHandle9from_rttiIbEES1_v',
                                        'Return' => '2619',
                                        'ShortName' => 'from_rtti<bool>',
                                        'Static' => 1,
                                        'TParam' => {
                                                      '0' => {
                                                               'key' => 'T',
                                                               'type' => '3663'
                                                             }
                                                    }
                                      },
                            '26228' => {
                                         'Class' => '25542',
                                         'Header' => 'basic_string.h',
                                         'InLine' => 2,
                                         'Line' => '440',
                                         'MnglName' => '_ZNSt7__cxx1112basic_stringIcSt11char_traitsIcESaIcEE7_S_moveEPcPKcm',
                                         'Param' => {
                                                      '0' => {
                                                               'name' => '__d',
                                                               'type' => '9723'
                                                             },
                                                      '1' => {
                                                               'name' => '__s',
                                                               'type' => '3707'
                                                             },
                                                      '2' => {
                                                               'name' => '__n',
                                                               'type' => '25586'
                                                             }
                                                    },
                                         'Private' => 1,
                                         'Return' => '1',
                                         'ShortName' => '_S_move',
                                         'Static' => 1
                                       },
                            '26252' => {
                                         'Class' => '25542',
                                         'Header' => 'basic_string.h',
                                         'InLine' => 2,
                                         'Line' => '450',
                                         'MnglName' => '_ZNSt7__cxx1112basic_stringIcSt11char_traitsIcESaIcEE9_S_assignEPcmc',
                                         'Param' => {
                                                      '0' => {
                                                               'name' => '__d',
                                                               'type' => '9723'
                                                             },
                                                      '1' => {
                                                               'name' => '__n',
                                                               'type' => '25586'
                                                             },
                                                      '2' => {
                                                               'name' => '__c',
                                                               'type' => '70'
                                                             }
                                                    },
                                         'Private' => 1,
                                         'Return' => '1',
                                         'ShortName' => '_S_assign',
                                         'Static' => 1
                                       },
                            '26343' => {
                                         'Class' => '25542',
                                         'Header' => 'basic_string.h',
                                         'InLine' => 2,
                                         'Line' => '482',
                                         'MnglName' => '_ZNSt7__cxx1112basic_stringIcSt11char_traitsIcESaIcEE13_S_copy_charsEPcS5_S5_',
                                         'Param' => {
                                                      '0' => {
                                                               'name' => '__p',
                                                               'type' => '9723'
                                                             },
                                                      '1' => {
                                                               'name' => '__k1',
                                                               'type' => '9723'
                                                             },
                                                      '2' => {
                                                               'name' => '__k2',
                                                               'type' => '9723'
                                                             }
                                                    },
                                         'Private' => 1,
                                         'Return' => '1',
                                         'ShortName' => '_S_copy_chars',
                                         'Static' => 1
                                       },
                            '26367' => {
                                         'Class' => '25542',
                                         'Header' => 'basic_string.h',
                                         'InLine' => 2,
                                         'Line' => '487',
                                         'MnglName' => '_ZNSt7__cxx1112basic_stringIcSt11char_traitsIcESaIcEE13_S_copy_charsEPcPKcS7_',
                                         'Param' => {
                                                      '0' => {
                                                               'name' => '__p',
                                                               'type' => '9723'
                                                             },
                                                      '1' => {
                                                               'name' => '__k1',
                                                               'type' => '3707'
                                                             },
                                                      '2' => {
                                                               'name' => '__k2',
                                                               'type' => '3707'
                                                             }
                                                    },
                                         'Private' => 1,
                                         'Return' => '1',
                                         'ShortName' => '_S_copy_chars',
                                         'Static' => 1
                                       },
                            '26432' => {
                                         'Class' => '25542',
                                         'Header' => 'basic_string.tcc',
                                         'InLine' => 2,
                                         'Line' => '326',
                                         'MnglName' => '_ZNSt7__cxx1112basic_stringIcSt11char_traitsIcESaIcEE9_M_mutateEmmPKcm',
                                         'Param' => {
                                                      '0' => {
                                                               'name' => 'this',
                                                               'type' => '35901'
                                                             },
                                                      '1' => {
                                                               'name' => '__pos',
                                                               'type' => '25586'
                                                             },
                                                      '2' => {
                                                               'name' => '__len1',
                                                               'type' => '25586'
                                                             },
                                                      '3' => {
                                                               'name' => '__s',
                                                               'type' => '3707'
                                                             },
                                                      '4' => {
                                                               'name' => '__len2',
                                                               'type' => '25586'
                                                             }
                                                    },
                                         'Private' => 1,
                                         'Return' => '1',
                                         'ShortName' => '_M_mutate'
                                       },
                            '26519' => {
                                         'Class' => '25542',
                                         'Constructor' => 1,
                                         'Header' => 'basic_string.h',
                                         'Line' => '552',
                                         'MnglName' => '_ZNSt7__cxx1112basic_stringIcSt11char_traitsIcESaIcEEC2ERKS4_',
                                         'Param' => {
                                                      '0' => {
                                                               'name' => 'this',
                                                               'type' => '35901'
                                                             },
                                                      '1' => {
                                                               'name' => '__str',
                                                               'type' => '35936'
                                                             }
                                                    },
                                         'ShortName' => 'basic_string'
                                       },
                            '26732' => {
                                         'Class' => '25542',
                                         'Destructor' => 1,
                                         'Header' => 'basic_string.h',
                                         'Line' => '808',
                                         'MnglName' => '_ZNSt7__cxx1112basic_stringIcSt11char_traitsIcESaIcEED2Ev',
                                         'Param' => {
                                                      '0' => {
                                                               'name' => 'this',
                                                               'type' => '35901'
                                                             }
                                                    },
                                         'ShortName' => '~basic_string'
                                       },
                            '2678' => {
                                        'Class' => '2639',
                                        'Header' => 'arraylist',
                                        'InLine' => 2,
                                        'Line' => '26',
                                        'MnglName' => '_ZN4zeno7reflect9ArrayListIPNS0_3AnyEE15resize_internalEv',
                                        'Param' => {
                                                     '0' => {
                                                              'name' => 'this',
                                                              'type' => '5772'
                                                            }
                                                   },
                                        'Private' => 1,
                                        'Return' => '1',
                                        'ShortName' => 'resize_internal'
                                      },
                            '2705' => {
                                        'Class' => '2639',
                                        'Constructor' => 1,
                                        'Header' => 'arraylist',
                                        'Line' => '44',
                                        'MnglName' => '_ZN4zeno7reflect9ArrayListIPNS0_3AnyEEC2ESt16initializer_listIS3_E',
                                        'Param' => {
                                                     '0' => {
                                                              'name' => 'this',
                                                              'type' => '5772'
                                                            },
                                                     '1' => {
                                                              'name' => 'init',
                                                              'type' => '3749'
                                                            }
                                                   },
                                        'ShortName' => 'ArrayList'
                                      },
                            '27114' => {
                                         'Class' => '25542',
                                         'Const' => 1,
                                         'Header' => 'basic_string.h',
                                         'InLine' => 2,
                                         'Line' => '1076',
                                         'MnglName' => '_ZNKSt7__cxx1112basic_stringIcSt11char_traitsIcESaIcEE4sizeEv',
                                         'Param' => {
                                                      '0' => {
                                                               'name' => 'this',
                                                               'type' => '35906'
                                                             }
                                                    },
                                         'Return' => '25586',
                                         'ShortName' => 'size'
                                       },
                            '27132' => {
                                         'Class' => '25542',
                                         'Const' => 1,
                                         'Header' => 'basic_string.h',
                                         'InLine' => 2,
                                         'Line' => '1083',
                                         'MnglName' => '_ZNKSt7__cxx1112basic_stringIcSt11char_traitsIcESaIcEE6lengthEv',
                                         'Param' => {
                                                      '0' => {
                                                               'name' => 'this',
                                                               'type' => '35906'
                                                             }
                                                    },
                                         'Return' => '25586',
                                         'ShortName' => 'length'
                                       },
                            '27150' => {
                                         'Class' => '25542',
                                         'Const' => 1,
                                         'Header' => 'basic_string.h',
                                         'InLine' => 2,
                                         'Line' => '1089',
                                         'MnglName' => '_ZNKSt7__cxx1112basic_stringIcSt11char_traitsIcESaIcEE8max_sizeEv',
                                         'Param' => {
                                                      '0' => {
                                                               'name' => 'this',
                                                               'type' => '35906'
                                                             }
                                                    },
                                         'Return' => '25586',
                                         'ShortName' => 'max_size'
                                       },
                            '27168' => {
                                         'Class' => '25542',
                                         'Header' => 'basic_string.tcc',
                                         'InLine' => 2,
                                         'Line' => '401',
                                         'MnglName' => '_ZNSt7__cxx1112basic_stringIcSt11char_traitsIcESaIcEE6resizeEmc',
                                         'Param' => {
                                                      '0' => {
                                                               'name' => 'this',
                                                               'type' => '35901'
                                                             },
                                                      '1' => {
                                                               'name' => '__n',
                                                               'type' => '25586'
                                                             },
                                                      '2' => {
                                                               'name' => '__c',
                                                               'type' => '70'
                                                             }
                                                    },
                                         'Return' => '1',
                                         'ShortName' => 'resize'
                                       },
                            '27193' => {
                                         'Class' => '25542',
                                         'Header' => 'basic_string.h',
                                         'InLine' => 2,
                                         'Line' => '1118',
                                         'MnglName' => '_ZNSt7__cxx1112basic_stringIcSt11char_traitsIcESaIcEE6resizeEm',
                                         'Param' => {
                                                      '0' => {
                                                               'name' => 'this',
                                                               'type' => '35901'
                                                             },
                                                      '1' => {
                                                               'name' => '__n',
                                                               'type' => '25586'
                                                             }
                                                    },
                                         'Return' => '1',
                                         'ShortName' => 'resize'
                                       },
                            '2721' => {
                                        'Class' => '2639',
                                        'Destructor' => 1,
                                        'Header' => 'arraylist',
                                        'Line' => '50',
                                        'MnglName' => '_ZN4zeno7reflect9ArrayListIPNS0_3AnyEED2Ev',
                                        'Param' => {
                                                     '0' => {
                                                              'name' => 'this',
                                                              'type' => '5772'
                                                            }
                                                   },
                                        'ShortName' => '~ArrayList'
                                      },
                            '27228' => {
                                         'Class' => '25542',
                                         'Const' => 1,
                                         'Header' => 'basic_string.h',
                                         'InLine' => 2,
                                         'Line' => '1180',
                                         'MnglName' => '_ZNKSt7__cxx1112basic_stringIcSt11char_traitsIcESaIcEE8capacityEv',
                                         'Param' => {
                                                      '0' => {
                                                               'name' => 'this',
                                                               'type' => '35906'
                                                             }
                                                    },
                                         'Return' => '25586',
                                         'ShortName' => 'capacity'
                                       },
                            '27705' => {
                                         'Class' => '25542',
                                         'Header' => 'basic_string.h',
                                         'InLine' => 2,
                                         'Line' => '1498',
                                         'MnglName' => '_ZNSt7__cxx1112basic_stringIcSt11char_traitsIcESaIcEE6appendEmc',
                                         'Param' => {
                                                      '0' => {
                                                               'name' => 'this',
                                                               'type' => '35901'
                                                             },
                                                      '1' => {
                                                               'name' => '__n',
                                                               'type' => '25586'
                                                             },
                                                      '2' => {
                                                               'name' => '__c',
                                                               'type' => '70'
                                                             }
                                                    },
                                         'Return' => '35946',
                                         'ShortName' => 'append'
                                       },
                            '2806' => {
                                        'Class' => '2639',
                                        'Header' => 'arraylist',
                                        'InLine' => 2,
                                        'Line' => '78',
                                        'MnglName' => '_ZN4zeno7reflect9ArrayListIPNS0_3AnyEE8add_itemEOS3_',
                                        'Param' => {
                                                     '0' => {
                                                              'name' => 'this',
                                                              'type' => '5772'
                                                            },
                                                     '1' => {
                                                              'name' => 'value',
                                                              'type' => '5826'
                                                            }
                                                   },
                                        'Return' => '3712',
                                        'ShortName' => 'add_item'
                                      },
                            '28849' => {
                                         'Class' => '25542',
                                         'Header' => 'basic_string.tcc',
                                         'InLine' => 2,
                                         'Line' => '451',
                                         'MnglName' => '_ZNSt7__cxx1112basic_stringIcSt11char_traitsIcESaIcEE14_M_replace_auxEmmmc',
                                         'Param' => {
                                                      '0' => {
                                                               'name' => 'this',
                                                               'type' => '35901'
                                                             },
                                                      '1' => {
                                                               'name' => '__pos1',
                                                               'type' => '25586'
                                                             },
                                                      '2' => {
                                                               'name' => '__n1',
                                                               'type' => '25586'
                                                             },
                                                      '3' => {
                                                               'name' => '__n2',
                                                               'type' => '25586'
                                                             },
                                                      '4' => {
                                                               'name' => '__c',
                                                               'type' => '70'
                                                             }
                                                    },
                                         'Private' => 1,
                                         'Return' => '35946',
                                         'ShortName' => '_M_replace_aux'
                                       },
                            '29063' => {
                                         'Class' => '25542',
                                         'Const' => 1,
                                         'Header' => 'basic_string.h',
                                         'InLine' => 2,
                                         'Line' => '2653',
                                         'MnglName' => '_ZNKSt7__cxx1112basic_stringIcSt11char_traitsIcESaIcEE4dataEv',
                                         'Param' => {
                                                      '0' => {
                                                               'name' => 'this',
                                                               'type' => '35906'
                                                             }
                                                    },
                                         'Return' => '3707',
                                         'ShortName' => 'data'
                                       },
                            '29081' => {
                                         'Class' => '25542',
                                         'Header' => 'basic_string.h',
                                         'InLine' => 2,
                                         'Line' => '2665',
                                         'MnglName' => '_ZNSt7__cxx1112basic_stringIcSt11char_traitsIcESaIcEE4dataEv',
                                         'Param' => {
                                                      '0' => {
                                                               'name' => 'this',
                                                               'type' => '35901'
                                                             }
                                                    },
                                         'Return' => '9723',
                                         'ShortName' => 'data'
                                       },
                            '2931' => {
                                        'Class' => '2639',
                                        'Header' => 'arraylist',
                                        'InLine' => 2,
                                        'Line' => '137',
                                        'MnglName' => '_ZN4zeno7reflect9ArrayListIPNS0_3AnyEE5resetEv',
                                        'Param' => {
                                                     '0' => {
                                                              'name' => 'this',
                                                              'type' => '5772'
                                                            }
                                                   },
                                        'Return' => '1',
                                        'ShortName' => 'reset'
                                      },
                            '3002' => {
                                        'Class' => '2639',
                                        'Const' => 1,
                                        'Header' => 'arraylist',
                                        'InLine' => 2,
                                        'Line' => '165',
                                        'MnglName' => '_ZNK4zeno7reflect9ArrayListIPNS0_3AnyEE4sizeEv',
                                        'Param' => {
                                                     '0' => {
                                                              'name' => 'this',
                                                              'type' => '5816'
                                                            }
                                                   },
                                        'Return' => '3712',
                                        'ShortName' => 'size'
                                      },
                            '30192' => {
                                         'Class' => '25542',
                                         'Header' => 'basic_string.tcc',
                                         'InLine' => 2,
                                         'Line' => '222',
                                         'MnglName' => '_ZNSt7__cxx1112basic_stringIcSt11char_traitsIcESaIcEE12_M_constructIPcEEvT_S7_St20forward_iterator_tag',
                                         'Param' => {
                                                      '0' => {
                                                               'name' => 'this',
                                                               'type' => '35901'
                                                             },
                                                      '1' => {
                                                               'name' => '__beg',
                                                               'type' => '9723'
                                                             },
                                                      '2' => {
                                                               'name' => '__end',
                                                               'type' => '9723'
                                                             },
                                                      '3' => {
                                                               'name' => 'p3',
                                                               'type' => '32929'
                                                             }
                                                    },
                                         'Private' => 1,
                                         'Return' => '1',
                                         'ShortName' => '_M_construct<char*>',
                                         'TParam' => {
                                                       '0' => {
                                                                'key' => '_FwdIterator',
                                                                'type' => '9723'
                                                              }
                                                     }
                                       },
                            '30227' => {
                                         'Class' => '25542',
                                         'Constructor' => 1,
                                         'Header' => 'basic_string.h',
                                         'Line' => '669',
                                         'MnglName' => '_ZNSt7__cxx1112basic_stringIcSt11char_traitsIcESaIcEEC2IS3_EEmcRKS3_',
                                         'Param' => {
                                                      '0' => {
                                                               'name' => 'this',
                                                               'type' => '35901'
                                                             },
                                                      '1' => {
                                                               'name' => '__n',
                                                               'type' => '25586'
                                                             },
                                                      '2' => {
                                                               'name' => '__c',
                                                               'type' => '70'
                                                             },
                                                      '3' => {
                                                               'name' => '__a',
                                                               'type' => '35466'
                                                             }
                                                    },
                                         'ShortName' => 'basic_string<std::allocator<char> >',
                                         'TParam' => {
                                                       '0' => {
                                                                'key' => undef,
                                                                'type' => '30578'
                                                              }
                                                     }
                                       },
                            '30275' => {
                                         'Class' => '30262',
                                         'Header' => 'char_traits.h',
                                         'InLine' => 2,
                                         'Line' => '343',
                                         'MnglName' => '_ZNSt11char_traitsIcE6assignERcRKc',
                                         'Param' => {
                                                      '0' => {
                                                               'name' => '__c1',
                                                               'type' => '35381'
                                                             },
                                                      '1' => {
                                                               'name' => '__c2',
                                                               'type' => '35386'
                                                             }
                                                    },
                                         'Return' => '1',
                                         'ShortName' => 'assign',
                                         'Static' => 1
                                       },
                            '30411' => {
                                         'Class' => '30262',
                                         'Header' => 'char_traits.h',
                                         'InLine' => 2,
                                         'Line' => '407',
                                         'MnglName' => '_ZNSt11char_traitsIcE4moveEPcPKcm',
                                         'Param' => {
                                                      '0' => {
                                                               'name' => '__s1',
                                                               'type' => '35401'
                                                             },
                                                      '1' => {
                                                               'name' => '__s2',
                                                               'type' => '35396'
                                                             },
                                                      '2' => {
                                                               'name' => '__n',
                                                               'type' => '3731'
                                                             }
                                                    },
                                         'Return' => '35401',
                                         'ShortName' => 'move',
                                         'Static' => 1
                                       },
                            '30437' => {
                                         'Class' => '30262',
                                         'Header' => 'char_traits.h',
                                         'InLine' => 2,
                                         'Line' => '419',
                                         'MnglName' => '_ZNSt11char_traitsIcE4copyEPcPKcm',
                                         'Param' => {
                                                      '0' => {
                                                               'name' => '__s1',
                                                               'type' => '35401'
                                                             },
                                                      '1' => {
                                                               'name' => '__s2',
                                                               'type' => '35396'
                                                             },
                                                      '2' => {
                                                               'name' => '__n',
                                                               'type' => '3731'
                                                             }
                                                    },
                                         'Return' => '35401',
                                         'ShortName' => 'copy',
                                         'Static' => 1
                                       },
                            '30463' => {
                                         'Class' => '30262',
                                         'Header' => 'char_traits.h',
                                         'InLine' => 2,
                                         'Line' => '431',
                                         'MnglName' => '_ZNSt11char_traitsIcE6assignEPcmc',
                                         'Param' => {
                                                      '0' => {
                                                               'name' => '__s',
                                                               'type' => '35401'
                                                             },
                                                      '1' => {
                                                               'name' => '__n',
                                                               'type' => '3731'
                                                             },
                                                      '2' => {
                                                               'name' => '__a',
                                                               'type' => '30292'
                                                             }
                                                    },
                                         'Return' => '35401',
                                         'ShortName' => 'assign',
                                         'Static' => 1
                                       },
                            '30768' => {
                                         'Class' => '30708',
                                         'Header' => 'new_allocator.h',
                                         'InLine' => 2,
                                         'Line' => '126',
                                         'MnglName' => '_ZNSt15__new_allocatorIcE8allocateEmPKv',
                                         'Param' => {
                                                      '0' => {
                                                               'name' => 'this',
                                                               'type' => '35416'
                                                             },
                                                      '1' => {
                                                               'name' => '__n',
                                                               'type' => '5787'
                                                             },
                                                      '2' => {
                                                               'name' => 'p2',
                                                               'type' => '6042'
                                                             }
                                                    },
                                         'Return' => '9723',
                                         'ShortName' => 'allocate'
                                       },
                            '30794' => {
                                         'Class' => '30708',
                                         'Header' => 'new_allocator.h',
                                         'InLine' => 2,
                                         'Line' => '156',
                                         'MnglName' => '_ZNSt15__new_allocatorIcE10deallocateEPcm',
                                         'Param' => {
                                                      '0' => {
                                                               'name' => 'this',
                                                               'type' => '35416'
                                                             },
                                                      '1' => {
                                                               'name' => '__p',
                                                               'type' => '9723'
                                                             },
                                                      '2' => {
                                                               'name' => '__n',
                                                               'type' => '5787'
                                                             }
                                                    },
                                         'Return' => '1',
                                         'ShortName' => 'deallocate'
                                       },
                            '31279' => {
                                         'Class' => '30992',
                                         'Const' => 1,
                                         'Header' => 'string_view',
                                         'InLine' => 2,
                                         'Line' => '229',
                                         'MnglName' => '_ZNKSt17basic_string_viewIcSt11char_traitsIcEE4sizeEv',
                                         'Param' => {
                                                      '0' => {
                                                               'name' => 'this',
                                                               'type' => '35891'
                                                             }
                                                    },
                                         'Return' => '5787',
                                         'ShortName' => 'size'
                                       },
                            '31429' => {
                                         'Class' => '30992',
                                         'Const' => 1,
                                         'Header' => 'string_view',
                                         'InLine' => 2,
                                         'Line' => '289',
                                         'MnglName' => '_ZNKSt17basic_string_viewIcSt11char_traitsIcEE4dataEv',
                                         'Param' => {
                                                      '0' => {
                                                               'name' => 'this',
                                                               'type' => '35891'
                                                             }
                                                    },
                                         'Return' => '31446',
                                         'ShortName' => 'data'
                                       },
                            '3287' => {
                                        'Class' => '3285',
                                        'Const' => 1,
                                        'Header' => 'arraylist',
                                        'InLine' => 2,
                                        'Line' => '195',
                                        'MnglName' => '_ZNK4zeno7reflect9ArrayListIPNS0_12IMemberFieldEE5beginEv',
                                        'Param' => {
                                                     '0' => {
                                                              'name' => 'this',
                                                              'type' => '6509'
                                                            }
                                                   },
                                        'Return' => '6022',
                                        'ShortName' => 'begin'
                                      },
                            '32977' => {
                                         'Class' => '32950',
                                         'Header' => 'ptr_traits.h',
                                         'InLine' => 2,
                                         'Line' => '134',
                                         'MnglName' => '_ZNSt19__ptr_traits_ptr_toIPccLb0EE10pointer_toERc',
                                         'Param' => {
                                                      '0' => {
                                                               'name' => '__r',
                                                               'type' => '42123'
                                                             }
                                                    },
                                         'Return' => '32994',
                                         'ShortName' => 'pointer_to',
                                         'Static' => 1
                                       },
                            '3303' => {
                                        'Class' => '3285',
                                        'Const' => 1,
                                        'Header' => 'arraylist',
                                        'InLine' => 2,
                                        'Line' => '199',
                                        'MnglName' => '_ZNK4zeno7reflect9ArrayListIPNS0_12IMemberFieldEE3endEv',
                                        'Param' => {
                                                     '0' => {
                                                              'name' => 'this',
                                                              'type' => '6509'
                                                            }
                                                   },
                                        'Return' => '6022',
                                        'ShortName' => 'end'
                                      },
                            '33147' => {
                                         'Class' => '33120',
                                         'Header' => 'ptr_traits.h',
                                         'InLine' => 2,
                                         'Line' => '134',
                                         'MnglName' => '_ZNSt19__ptr_traits_ptr_toIPKcS0_Lb0EE10pointer_toERS0_',
                                         'Param' => {
                                                      '0' => {
                                                               'name' => '__r',
                                                               'type' => '44092'
                                                             }
                                                    },
                                         'Return' => '33164',
                                         'ShortName' => 'pointer_to',
                                         'Static' => 1
                                       },
                            '3320' => {
                                        'Header' => 'any',
                                        'InLine' => 2,
                                        'Line' => '289',
                                        'MnglName' => '_ZN4zeno7reflect8make_anyINS0_7ArchiveEEENS0_3AnyEPNS0_3any18TEnableAnyFromThisIT_EE',
                                        'NameSpace' => 'zeno::reflect',
                                        'Param' => {
                                                     '0' => {
                                                              'name' => 'that',
                                                              'type' => '5560'
                                                            }
                                                   },
                                        'Return' => '1639',
                                        'ShortName' => 'make_any<zeno::reflect::Archive>',
                                        'TParam' => {
                                                      '0' => {
                                                               'key' => 'T',
                                                               'type' => '605'
                                                             }
                                                    }
                                      },
                            '3359' => {
                                        'Header' => 'move.hpp',
                                        'InLine' => 2,
                                        'Line' => '11',
                                        'MnglName' => '_ZN4zeno7reflect4moveIRPNS0_3AnyEEEONS0_16TRemoveReferenceIT_E4TypeEOS6_',
                                        'NameSpace' => 'zeno::reflect',
                                        'Param' => {
                                                     '0' => {
                                                              'name' => 'val',
                                                              'type' => '5831'
                                                            }
                                                   },
                                        'Return' => '13776',
                                        'ShortName' => 'move<zeno::reflect::Any*&>',
                                        'TParam' => {
                                                      '0' => {
                                                               'key' => 'T',
                                                               'type' => '5831'
                                                             }
                                                    }
                                      },
                            '3396' => {
                                        'Header' => 'reference.hpp',
                                        'InLine' => 2,
                                        'Line' => '32',
                                        'MnglName' => '_ZN4zeno7reflect7forwardIPNS0_3AnyEEEOT_RNS0_16TRemoveReferenceIS4_E4TypeE',
                                        'NameSpace' => 'zeno::reflect',
                                        'Param' => {
                                                     '0' => {
                                                              'name' => 'v',
                                                              'type' => '13881'
                                                            }
                                                   },
                                        'Return' => '5826',
                                        'ShortName' => 'forward<zeno::reflect::Any*>',
                                        'TParam' => {
                                                      '0' => {
                                                               'key' => 'T',
                                                               'type' => '5565'
                                                             }
                                                    }
                                      },
                            '3433' => {
                                        'Header' => 'duck',
                                        'InLine' => 2,
                                        'Line' => '22',
                                        'MnglName' => '_ZN4zeno7reflect15get_args_lengthIJRNS0_7ArchiveEEEEmv',
                                        'NameSpace' => 'zeno::reflect',
                                        'Return' => '3712',
                                        'ShortName' => 'get_args_length<zeno::reflect::Archive&>',
                                        'TParam' => {
                                                      '0' => {
                                                               'key' => undef,
                                                               'type' => '3667'
                                                             }
                                                    }
                                      },
                            '3462' => {
                                        'Class' => '3460',
                                        'Const' => 1,
                                        'Header' => 'arraylist',
                                        'InLine' => 2,
                                        'Line' => '195',
                                        'MnglName' => '_ZNK4zeno7reflect9ArrayListIPNS0_15IMemberFunctionEE5beginEv',
                                        'Param' => {
                                                     '0' => {
                                                              'name' => 'this',
                                                              'type' => '8523'
                                                            }
                                                   },
                                        'Return' => '6032',
                                        'ShortName' => 'begin'
                                      },
                            '3478' => {
                                        'Class' => '3460',
                                        'Const' => 1,
                                        'Header' => 'arraylist',
                                        'InLine' => 2,
                                        'Line' => '199',
                                        'MnglName' => '_ZNK4zeno7reflect9ArrayListIPNS0_15IMemberFunctionEE3endEv',
                                        'Param' => {
                                                     '0' => {
                                                              'name' => 'this',
                                                              'type' => '8523'
                                                            }
                                                   },
                                        'Return' => '6032',
                                        'ShortName' => 'end'
                                      },
                            '3495' => {
                                        'Header' => 'type.hpp',
                                        'InLine' => 2,
                                        'Line' => '128',
                                        'MnglName' => '_ZN4zeno7reflect8get_typeIbEENS0_10TypeHandleEv',
                                        'NameSpace' => 'zeno::reflect',
                                        'Return' => '2619',
                                        'ShortName' => 'get_type<bool>',
                                        'TParam' => {
                                                      '0' => {
                                                               'key' => 'T',
                                                               'type' => '3663'
                                                             }
                                                    }
                                      },
                            '3520' => {
                                        'Header' => 'move.hpp',
                                        'InLine' => 2,
                                        'Line' => '11',
                                        'MnglName' => '_ZN4zeno7reflect4moveIRNS0_3AnyEEEONS0_16TRemoveReferenceIT_E4TypeEOS5_',
                                        'NameSpace' => 'zeno::reflect',
                                        'Param' => {
                                                     '0' => {
                                                              'name' => 'val',
                                                              'type' => '5585'
                                                            }
                                                   },
                                        'Return' => '13781',
                                        'ShortName' => 'move<zeno::reflect::Any&>',
                                        'TParam' => {
                                                      '0' => {
                                                               'key' => 'T',
                                                               'type' => '5585'
                                                             }
                                                    }
                                      },
                            '36576' => {
                                         'Class' => '36559',
                                         'Constructor' => 1,
                                         'Header' => 'basic_string.tcc',
                                         'Line' => '239',
                                         'MnglName' => '_ZZNSt7__cxx1112basic_stringIcSt11char_traitsIcESaIcEE12_M_constructIPcEEvT_S7_St20forward_iterator_tagEN6_GuardC2EPS4_',
                                         'Param' => {
                                                      '0' => {
                                                               'name' => 'this',
                                                               'type' => '36764'
                                                             },
                                                      '1' => {
                                                               'name' => '__s',
                                                               'type' => '35901'
                                                             }
                                                    },
                                         'ShortName' => '_Guard'
                                       },
                            '36592' => {
                                         'Class' => '36559',
                                         'Destructor' => 1,
                                         'Header' => 'basic_string.tcc',
                                         'Line' => '242',
                                         'MnglName' => '_ZZNSt7__cxx1112basic_stringIcSt11char_traitsIcESaIcEE12_M_constructIPcEEvT_S7_St20forward_iterator_tagEN6_GuardD2Ev',
                                         'Param' => {
                                                      '0' => {
                                                               'name' => 'this',
                                                               'type' => '36764'
                                                             }
                                                    },
                                         'ShortName' => '~_Guard'
                                       },
                            '37046' => {
                                         'Destructor' => 1,
                                         'Line' => '22',
                                         'MnglName' => '_ZN4zeno7reflect23DefaultBinarySerializerD2Ev',
                                         'Param' => {
                                                      '0' => {
                                                               'name' => 'this',
                                                               'type' => '36064'
                                                             }
                                                    },
                                         'Source' => 'binary_serialization.cpp'
                                       },
                            '37434' => {
                                         'Destructor' => 1,
                                         'MnglName' => '_ZN4zeno7reflect11ISerializerD2Ev',
                                         'Param' => {
                                                      '0' => {
                                                               'name' => 'this',
                                                               'type' => '5595'
                                                             }
                                                    }
                                       },
                            '3828' => {
                                        'Class' => '3749',
                                        'Const' => 1,
                                        'Header' => 'initializer_list',
                                        'InLine' => 2,
                                        'Line' => '69',
                                        'MnglName' => '_ZNKSt16initializer_listIPN4zeno7reflect3AnyEE4sizeEv',
                                        'Param' => {
                                                     '0' => {
                                                              'name' => 'this',
                                                              'type' => '5801'
                                                            }
                                                   },
                                        'Return' => '5787',
                                        'ShortName' => 'size'
                                      },
                            '3844' => {
                                        'Class' => '3749',
                                        'Const' => 1,
                                        'Header' => 'initializer_list',
                                        'InLine' => 2,
                                        'Line' => '73',
                                        'MnglName' => '_ZNKSt16initializer_listIPN4zeno7reflect3AnyEE5beginEv',
                                        'Param' => {
                                                     '0' => {
                                                              'name' => 'this',
                                                              'type' => '5801'
                                                            }
                                                   },
                                        'Return' => '3808',
                                        'ShortName' => 'begin'
                                      },
                            '3860' => {
                                        'Class' => '3749',
                                        'Const' => 1,
                                        'Header' => 'initializer_list',
                                        'InLine' => 2,
                                        'Line' => '77',
                                        'MnglName' => '_ZNKSt16initializer_listIPN4zeno7reflect3AnyEE3endEv',
                                        'Param' => {
                                                     '0' => {
                                                              'name' => 'this',
                                                              'type' => '5801'
                                                            }
                                                   },
                                        'Return' => '3808',
                                        'ShortName' => 'end'
                                      },
                            '40089' => {
                                         'Destructor' => 1,
                                         'Header' => 'any',
                                         'Line' => '38',
                                         'MnglName' => '_ZN4zeno7reflect3any14ValueContainerIfED2Ev',
                                         'Param' => {
                                                      '0' => {
                                                               'name' => 'this',
                                                               'type' => '36187'
                                                             }
                                                    }
                                       },
                            '40805' => {
                                         'Destructor' => 1,
                                         'Header' => 'any',
                                         'Line' => '38',
                                         'MnglName' => '_ZN4zeno7reflect3any14ValueContainerIdED2Ev',
                                         'Param' => {
                                                      '0' => {
                                                               'name' => 'this',
                                                               'type' => '36218'
                                                             }
                                                    }
                                       },
                            '41358' => {
                                         'Destructor' => 1,
                                         'Header' => 'any',
                                         'Line' => '38',
                                         'MnglName' => '_ZN4zeno7reflect3any14ValueContainerIcED2Ev',
                                         'Param' => {
                                                      '0' => {
                                                               'name' => 'this',
                                                               'type' => '36249'
                                                             }
                                                    }
                                       },
                            '43149' => {
                                         'Destructor' => 1,
                                         'Header' => 'any',
                                         'Line' => '38',
                                         'MnglName' => '_ZN4zeno7reflect3any14ValueContainerINSt7__cxx1112basic_stringIcSt11char_traitsIcESaIcEEEED2Ev',
                                         'Param' => {
                                                      '0' => {
                                                               'name' => 'this',
                                                               'type' => '36292'
                                                             }
                                                    }
                                       },
                            '44434' => {
